
ece477-hts221demo.elf:     file format elf32-littlearm

Sections:
Idx Name          Size      VMA       LMA       File off  Algn
  0 .isr_vector   000000c0  08000000  08000000  00010000  2**0
                  CONTENTS, ALLOC, LOAD, READONLY, DATA
  1 .text         00004f3c  080000c0  080000c0  000100c0  2**2
                  CONTENTS, ALLOC, LOAD, READONLY, CODE
  2 .rodata       00000328  08004ffc  08004ffc  00014ffc  2**2
                  CONTENTS, ALLOC, LOAD, READONLY, DATA
  3 .ARM.extab    00000000  08005324  08005324  00020070  2**0
                  CONTENTS
  4 .ARM          00000008  08005324  08005324  00015324  2**2
                  CONTENTS, ALLOC, LOAD, READONLY, DATA
  5 .preinit_array 00000000  0800532c  0800532c  00020070  2**0
                  CONTENTS, ALLOC, LOAD, DATA
  6 .init_array   00000004  0800532c  0800532c  0001532c  2**2
                  CONTENTS, ALLOC, LOAD, DATA
  7 .fini_array   00000004  08005330  08005330  00015330  2**2
                  CONTENTS, ALLOC, LOAD, DATA
  8 .data         00000070  20000000  08005334  00020000  2**2
                  CONTENTS, ALLOC, LOAD, DATA
  9 .bss          00000144  20000070  080053a4  00020070  2**2
                  ALLOC
 10 ._user_heap_stack 00000604  200001b4  080053a4  000201b4  2**0
                  ALLOC
 11 .ARM.attributes 00000028  00000000  00000000  00020070  2**0
                  CONTENTS, READONLY
 12 .comment      0000007b  00000000  00000000  00020098  2**0
                  CONTENTS, READONLY
 13 .debug_frame  00000a6c  00000000  00000000  00020114  2**2
                  CONTENTS, READONLY, DEBUGGING

Disassembly of section .text:

080000c0 <__do_global_dtors_aux>:
 80000c0:	b510      	push	{r4, lr}
 80000c2:	4c06      	ldr	r4, [pc, #24]	; (80000dc <__do_global_dtors_aux+0x1c>)
 80000c4:	7823      	ldrb	r3, [r4, #0]
 80000c6:	2b00      	cmp	r3, #0
 80000c8:	d107      	bne.n	80000da <__do_global_dtors_aux+0x1a>
 80000ca:	4b05      	ldr	r3, [pc, #20]	; (80000e0 <__do_global_dtors_aux+0x20>)
 80000cc:	2b00      	cmp	r3, #0
 80000ce:	d002      	beq.n	80000d6 <__do_global_dtors_aux+0x16>
 80000d0:	4804      	ldr	r0, [pc, #16]	; (80000e4 <__do_global_dtors_aux+0x24>)
 80000d2:	e000      	b.n	80000d6 <__do_global_dtors_aux+0x16>
 80000d4:	bf00      	nop
 80000d6:	2301      	movs	r3, #1
 80000d8:	7023      	strb	r3, [r4, #0]
 80000da:	bd10      	pop	{r4, pc}
 80000dc:	20000070 	.word	0x20000070
 80000e0:	00000000 	.word	0x00000000
 80000e4:	08004fe4 	.word	0x08004fe4

080000e8 <frame_dummy>:
 80000e8:	4b04      	ldr	r3, [pc, #16]	; (80000fc <frame_dummy+0x14>)
 80000ea:	b510      	push	{r4, lr}
 80000ec:	2b00      	cmp	r3, #0
 80000ee:	d003      	beq.n	80000f8 <frame_dummy+0x10>
 80000f0:	4903      	ldr	r1, [pc, #12]	; (8000100 <frame_dummy+0x18>)
 80000f2:	4804      	ldr	r0, [pc, #16]	; (8000104 <frame_dummy+0x1c>)
 80000f4:	e000      	b.n	80000f8 <frame_dummy+0x10>
 80000f6:	bf00      	nop
 80000f8:	bd10      	pop	{r4, pc}
 80000fa:	46c0      	nop			; (mov r8, r8)
 80000fc:	00000000 	.word	0x00000000
 8000100:	20000074 	.word	0x20000074
 8000104:	08004fe4 	.word	0x08004fe4

08000108 <__gnu_thumb1_case_sqi>:
 8000108:	b402      	push	{r1}
 800010a:	4671      	mov	r1, lr
 800010c:	0849      	lsrs	r1, r1, #1
 800010e:	0049      	lsls	r1, r1, #1
 8000110:	5609      	ldrsb	r1, [r1, r0]
 8000112:	0049      	lsls	r1, r1, #1
 8000114:	448e      	add	lr, r1
 8000116:	bc02      	pop	{r1}
 8000118:	4770      	bx	lr
 800011a:	46c0      	nop			; (mov r8, r8)

0800011c <__gnu_thumb1_case_uqi>:
 800011c:	b402      	push	{r1}
 800011e:	4671      	mov	r1, lr
 8000120:	0849      	lsrs	r1, r1, #1
 8000122:	0049      	lsls	r1, r1, #1
 8000124:	5c09      	ldrb	r1, [r1, r0]
 8000126:	0049      	lsls	r1, r1, #1
 8000128:	448e      	add	lr, r1
 800012a:	bc02      	pop	{r1}
 800012c:	4770      	bx	lr
 800012e:	46c0      	nop			; (mov r8, r8)

08000130 <__udivsi3>:
 8000130:	2200      	movs	r2, #0
 8000132:	0843      	lsrs	r3, r0, #1
 8000134:	428b      	cmp	r3, r1
 8000136:	d374      	bcc.n	8000222 <__udivsi3+0xf2>
 8000138:	0903      	lsrs	r3, r0, #4
 800013a:	428b      	cmp	r3, r1
 800013c:	d35f      	bcc.n	80001fe <__udivsi3+0xce>
 800013e:	0a03      	lsrs	r3, r0, #8
 8000140:	428b      	cmp	r3, r1
 8000142:	d344      	bcc.n	80001ce <__udivsi3+0x9e>
 8000144:	0b03      	lsrs	r3, r0, #12
 8000146:	428b      	cmp	r3, r1
 8000148:	d328      	bcc.n	800019c <__udivsi3+0x6c>
 800014a:	0c03      	lsrs	r3, r0, #16
 800014c:	428b      	cmp	r3, r1
 800014e:	d30d      	bcc.n	800016c <__udivsi3+0x3c>
 8000150:	22ff      	movs	r2, #255	; 0xff
 8000152:	0209      	lsls	r1, r1, #8
 8000154:	ba12      	rev	r2, r2
 8000156:	0c03      	lsrs	r3, r0, #16
 8000158:	428b      	cmp	r3, r1
 800015a:	d302      	bcc.n	8000162 <__udivsi3+0x32>
 800015c:	1212      	asrs	r2, r2, #8
 800015e:	0209      	lsls	r1, r1, #8
 8000160:	d065      	beq.n	800022e <__udivsi3+0xfe>
 8000162:	0b03      	lsrs	r3, r0, #12
 8000164:	428b      	cmp	r3, r1
 8000166:	d319      	bcc.n	800019c <__udivsi3+0x6c>
 8000168:	e000      	b.n	800016c <__udivsi3+0x3c>
 800016a:	0a09      	lsrs	r1, r1, #8
 800016c:	0bc3      	lsrs	r3, r0, #15
 800016e:	428b      	cmp	r3, r1
 8000170:	d301      	bcc.n	8000176 <__udivsi3+0x46>
 8000172:	03cb      	lsls	r3, r1, #15
 8000174:	1ac0      	subs	r0, r0, r3
 8000176:	4152      	adcs	r2, r2
 8000178:	0b83      	lsrs	r3, r0, #14
 800017a:	428b      	cmp	r3, r1
 800017c:	d301      	bcc.n	8000182 <__udivsi3+0x52>
 800017e:	038b      	lsls	r3, r1, #14
 8000180:	1ac0      	subs	r0, r0, r3
 8000182:	4152      	adcs	r2, r2
 8000184:	0b43      	lsrs	r3, r0, #13
 8000186:	428b      	cmp	r3, r1
 8000188:	d301      	bcc.n	800018e <__udivsi3+0x5e>
 800018a:	034b      	lsls	r3, r1, #13
 800018c:	1ac0      	subs	r0, r0, r3
 800018e:	4152      	adcs	r2, r2
 8000190:	0b03      	lsrs	r3, r0, #12
 8000192:	428b      	cmp	r3, r1
 8000194:	d301      	bcc.n	800019a <__udivsi3+0x6a>
 8000196:	030b      	lsls	r3, r1, #12
 8000198:	1ac0      	subs	r0, r0, r3
 800019a:	4152      	adcs	r2, r2
 800019c:	0ac3      	lsrs	r3, r0, #11
 800019e:	428b      	cmp	r3, r1
 80001a0:	d301      	bcc.n	80001a6 <__udivsi3+0x76>
 80001a2:	02cb      	lsls	r3, r1, #11
 80001a4:	1ac0      	subs	r0, r0, r3
 80001a6:	4152      	adcs	r2, r2
 80001a8:	0a83      	lsrs	r3, r0, #10
 80001aa:	428b      	cmp	r3, r1
 80001ac:	d301      	bcc.n	80001b2 <__udivsi3+0x82>
 80001ae:	028b      	lsls	r3, r1, #10
 80001b0:	1ac0      	subs	r0, r0, r3
 80001b2:	4152      	adcs	r2, r2
 80001b4:	0a43      	lsrs	r3, r0, #9
 80001b6:	428b      	cmp	r3, r1
 80001b8:	d301      	bcc.n	80001be <__udivsi3+0x8e>
 80001ba:	024b      	lsls	r3, r1, #9
 80001bc:	1ac0      	subs	r0, r0, r3
 80001be:	4152      	adcs	r2, r2
 80001c0:	0a03      	lsrs	r3, r0, #8
 80001c2:	428b      	cmp	r3, r1
 80001c4:	d301      	bcc.n	80001ca <__udivsi3+0x9a>
 80001c6:	020b      	lsls	r3, r1, #8
 80001c8:	1ac0      	subs	r0, r0, r3
 80001ca:	4152      	adcs	r2, r2
 80001cc:	d2cd      	bcs.n	800016a <__udivsi3+0x3a>
 80001ce:	09c3      	lsrs	r3, r0, #7
 80001d0:	428b      	cmp	r3, r1
 80001d2:	d301      	bcc.n	80001d8 <__udivsi3+0xa8>
 80001d4:	01cb      	lsls	r3, r1, #7
 80001d6:	1ac0      	subs	r0, r0, r3
 80001d8:	4152      	adcs	r2, r2
 80001da:	0983      	lsrs	r3, r0, #6
 80001dc:	428b      	cmp	r3, r1
 80001de:	d301      	bcc.n	80001e4 <__udivsi3+0xb4>
 80001e0:	018b      	lsls	r3, r1, #6
 80001e2:	1ac0      	subs	r0, r0, r3
 80001e4:	4152      	adcs	r2, r2
 80001e6:	0943      	lsrs	r3, r0, #5
 80001e8:	428b      	cmp	r3, r1
 80001ea:	d301      	bcc.n	80001f0 <__udivsi3+0xc0>
 80001ec:	014b      	lsls	r3, r1, #5
 80001ee:	1ac0      	subs	r0, r0, r3
 80001f0:	4152      	adcs	r2, r2
 80001f2:	0903      	lsrs	r3, r0, #4
 80001f4:	428b      	cmp	r3, r1
 80001f6:	d301      	bcc.n	80001fc <__udivsi3+0xcc>
 80001f8:	010b      	lsls	r3, r1, #4
 80001fa:	1ac0      	subs	r0, r0, r3
 80001fc:	4152      	adcs	r2, r2
 80001fe:	08c3      	lsrs	r3, r0, #3
 8000200:	428b      	cmp	r3, r1
 8000202:	d301      	bcc.n	8000208 <__udivsi3+0xd8>
 8000204:	00cb      	lsls	r3, r1, #3
 8000206:	1ac0      	subs	r0, r0, r3
 8000208:	4152      	adcs	r2, r2
 800020a:	0883      	lsrs	r3, r0, #2
 800020c:	428b      	cmp	r3, r1
 800020e:	d301      	bcc.n	8000214 <__udivsi3+0xe4>
 8000210:	008b      	lsls	r3, r1, #2
 8000212:	1ac0      	subs	r0, r0, r3
 8000214:	4152      	adcs	r2, r2
 8000216:	0843      	lsrs	r3, r0, #1
 8000218:	428b      	cmp	r3, r1
 800021a:	d301      	bcc.n	8000220 <__udivsi3+0xf0>
 800021c:	004b      	lsls	r3, r1, #1
 800021e:	1ac0      	subs	r0, r0, r3
 8000220:	4152      	adcs	r2, r2
 8000222:	1a41      	subs	r1, r0, r1
 8000224:	d200      	bcs.n	8000228 <__udivsi3+0xf8>
 8000226:	4601      	mov	r1, r0
 8000228:	4152      	adcs	r2, r2
 800022a:	4610      	mov	r0, r2
 800022c:	4770      	bx	lr
 800022e:	e7ff      	b.n	8000230 <__udivsi3+0x100>
 8000230:	b501      	push	{r0, lr}
 8000232:	2000      	movs	r0, #0
 8000234:	f000 f806 	bl	8000244 <__aeabi_idiv0>
 8000238:	bd02      	pop	{r1, pc}
 800023a:	46c0      	nop			; (mov r8, r8)

0800023c <__aeabi_uidivmod>:
 800023c:	2900      	cmp	r1, #0
 800023e:	d0f7      	beq.n	8000230 <__udivsi3+0x100>
 8000240:	e776      	b.n	8000130 <__udivsi3>
 8000242:	4770      	bx	lr

08000244 <__aeabi_idiv0>:
 8000244:	4770      	bx	lr
 8000246:	46c0      	nop			; (mov r8, r8)

08000248 <__aeabi_uldivmod>:
 8000248:	2b00      	cmp	r3, #0
 800024a:	d111      	bne.n	8000270 <__aeabi_uldivmod+0x28>
 800024c:	2a00      	cmp	r2, #0
 800024e:	d10f      	bne.n	8000270 <__aeabi_uldivmod+0x28>
 8000250:	2900      	cmp	r1, #0
 8000252:	d100      	bne.n	8000256 <__aeabi_uldivmod+0xe>
 8000254:	2800      	cmp	r0, #0
 8000256:	d002      	beq.n	800025e <__aeabi_uldivmod+0x16>
 8000258:	2100      	movs	r1, #0
 800025a:	43c9      	mvns	r1, r1
 800025c:	1c08      	adds	r0, r1, #0
 800025e:	b407      	push	{r0, r1, r2}
 8000260:	4802      	ldr	r0, [pc, #8]	; (800026c <__aeabi_uldivmod+0x24>)
 8000262:	a102      	add	r1, pc, #8	; (adr r1, 800026c <__aeabi_uldivmod+0x24>)
 8000264:	1840      	adds	r0, r0, r1
 8000266:	9002      	str	r0, [sp, #8]
 8000268:	bd03      	pop	{r0, r1, pc}
 800026a:	46c0      	nop			; (mov r8, r8)
 800026c:	ffffffd9 	.word	0xffffffd9
 8000270:	b403      	push	{r0, r1}
 8000272:	4668      	mov	r0, sp
 8000274:	b501      	push	{r0, lr}
 8000276:	9802      	ldr	r0, [sp, #8]
 8000278:	f000 f830 	bl	80002dc <__udivmoddi4>
 800027c:	9b01      	ldr	r3, [sp, #4]
 800027e:	469e      	mov	lr, r3
 8000280:	b002      	add	sp, #8
 8000282:	bc0c      	pop	{r2, r3}
 8000284:	4770      	bx	lr
 8000286:	46c0      	nop			; (mov r8, r8)

08000288 <__aeabi_lmul>:
 8000288:	b5f0      	push	{r4, r5, r6, r7, lr}
 800028a:	46ce      	mov	lr, r9
 800028c:	4647      	mov	r7, r8
 800028e:	0415      	lsls	r5, r2, #16
 8000290:	0c2d      	lsrs	r5, r5, #16
 8000292:	002e      	movs	r6, r5
 8000294:	b580      	push	{r7, lr}
 8000296:	0407      	lsls	r7, r0, #16
 8000298:	0c14      	lsrs	r4, r2, #16
 800029a:	0c3f      	lsrs	r7, r7, #16
 800029c:	4699      	mov	r9, r3
 800029e:	0c03      	lsrs	r3, r0, #16
 80002a0:	437e      	muls	r6, r7
 80002a2:	435d      	muls	r5, r3
 80002a4:	4367      	muls	r7, r4
 80002a6:	4363      	muls	r3, r4
 80002a8:	197f      	adds	r7, r7, r5
 80002aa:	0c34      	lsrs	r4, r6, #16
 80002ac:	19e4      	adds	r4, r4, r7
 80002ae:	469c      	mov	ip, r3
 80002b0:	42a5      	cmp	r5, r4
 80002b2:	d903      	bls.n	80002bc <__aeabi_lmul+0x34>
 80002b4:	2380      	movs	r3, #128	; 0x80
 80002b6:	025b      	lsls	r3, r3, #9
 80002b8:	4698      	mov	r8, r3
 80002ba:	44c4      	add	ip, r8
 80002bc:	464b      	mov	r3, r9
 80002be:	4343      	muls	r3, r0
 80002c0:	4351      	muls	r1, r2
 80002c2:	0c25      	lsrs	r5, r4, #16
 80002c4:	0436      	lsls	r6, r6, #16
 80002c6:	4465      	add	r5, ip
 80002c8:	0c36      	lsrs	r6, r6, #16
 80002ca:	0424      	lsls	r4, r4, #16
 80002cc:	19a4      	adds	r4, r4, r6
 80002ce:	195b      	adds	r3, r3, r5
 80002d0:	1859      	adds	r1, r3, r1
 80002d2:	0020      	movs	r0, r4
 80002d4:	bc0c      	pop	{r2, r3}
 80002d6:	4690      	mov	r8, r2
 80002d8:	4699      	mov	r9, r3
 80002da:	bdf0      	pop	{r4, r5, r6, r7, pc}

080002dc <__udivmoddi4>:
 80002dc:	b5f0      	push	{r4, r5, r6, r7, lr}
 80002de:	464f      	mov	r7, r9
 80002e0:	4646      	mov	r6, r8
 80002e2:	46d6      	mov	lr, sl
 80002e4:	b5c0      	push	{r6, r7, lr}
 80002e6:	0004      	movs	r4, r0
 80002e8:	b082      	sub	sp, #8
 80002ea:	000d      	movs	r5, r1
 80002ec:	4691      	mov	r9, r2
 80002ee:	4698      	mov	r8, r3
 80002f0:	428b      	cmp	r3, r1
 80002f2:	d82f      	bhi.n	8000354 <__udivmoddi4+0x78>
 80002f4:	d02c      	beq.n	8000350 <__udivmoddi4+0x74>
 80002f6:	4641      	mov	r1, r8
 80002f8:	4648      	mov	r0, r9
 80002fa:	f001 fe69 	bl	8001fd0 <__clzdi2>
 80002fe:	0029      	movs	r1, r5
 8000300:	0006      	movs	r6, r0
 8000302:	0020      	movs	r0, r4
 8000304:	f001 fe64 	bl	8001fd0 <__clzdi2>
 8000308:	1a33      	subs	r3, r6, r0
 800030a:	469c      	mov	ip, r3
 800030c:	3b20      	subs	r3, #32
 800030e:	469a      	mov	sl, r3
 8000310:	d500      	bpl.n	8000314 <__udivmoddi4+0x38>
 8000312:	e076      	b.n	8000402 <__udivmoddi4+0x126>
 8000314:	464b      	mov	r3, r9
 8000316:	4652      	mov	r2, sl
 8000318:	4093      	lsls	r3, r2
 800031a:	001f      	movs	r7, r3
 800031c:	464b      	mov	r3, r9
 800031e:	4662      	mov	r2, ip
 8000320:	4093      	lsls	r3, r2
 8000322:	001e      	movs	r6, r3
 8000324:	42af      	cmp	r7, r5
 8000326:	d828      	bhi.n	800037a <__udivmoddi4+0x9e>
 8000328:	d025      	beq.n	8000376 <__udivmoddi4+0x9a>
 800032a:	4653      	mov	r3, sl
 800032c:	1ba4      	subs	r4, r4, r6
 800032e:	41bd      	sbcs	r5, r7
 8000330:	2b00      	cmp	r3, #0
 8000332:	da00      	bge.n	8000336 <__udivmoddi4+0x5a>
 8000334:	e07b      	b.n	800042e <__udivmoddi4+0x152>
 8000336:	2200      	movs	r2, #0
 8000338:	2300      	movs	r3, #0
 800033a:	9200      	str	r2, [sp, #0]
 800033c:	9301      	str	r3, [sp, #4]
 800033e:	2301      	movs	r3, #1
 8000340:	4652      	mov	r2, sl
 8000342:	4093      	lsls	r3, r2
 8000344:	9301      	str	r3, [sp, #4]
 8000346:	2301      	movs	r3, #1
 8000348:	4662      	mov	r2, ip
 800034a:	4093      	lsls	r3, r2
 800034c:	9300      	str	r3, [sp, #0]
 800034e:	e018      	b.n	8000382 <__udivmoddi4+0xa6>
 8000350:	4282      	cmp	r2, r0
 8000352:	d9d0      	bls.n	80002f6 <__udivmoddi4+0x1a>
 8000354:	2200      	movs	r2, #0
 8000356:	2300      	movs	r3, #0
 8000358:	9200      	str	r2, [sp, #0]
 800035a:	9301      	str	r3, [sp, #4]
 800035c:	9b0a      	ldr	r3, [sp, #40]	; 0x28
 800035e:	2b00      	cmp	r3, #0
 8000360:	d001      	beq.n	8000366 <__udivmoddi4+0x8a>
 8000362:	601c      	str	r4, [r3, #0]
 8000364:	605d      	str	r5, [r3, #4]
 8000366:	9800      	ldr	r0, [sp, #0]
 8000368:	9901      	ldr	r1, [sp, #4]
 800036a:	b002      	add	sp, #8
 800036c:	bc1c      	pop	{r2, r3, r4}
 800036e:	4690      	mov	r8, r2
 8000370:	4699      	mov	r9, r3
 8000372:	46a2      	mov	sl, r4
 8000374:	bdf0      	pop	{r4, r5, r6, r7, pc}
 8000376:	42a3      	cmp	r3, r4
 8000378:	d9d7      	bls.n	800032a <__udivmoddi4+0x4e>
 800037a:	2200      	movs	r2, #0
 800037c:	2300      	movs	r3, #0
 800037e:	9200      	str	r2, [sp, #0]
 8000380:	9301      	str	r3, [sp, #4]
 8000382:	4663      	mov	r3, ip
 8000384:	2b00      	cmp	r3, #0
 8000386:	d0e9      	beq.n	800035c <__udivmoddi4+0x80>
 8000388:	07fb      	lsls	r3, r7, #31
 800038a:	4698      	mov	r8, r3
 800038c:	4641      	mov	r1, r8
 800038e:	0872      	lsrs	r2, r6, #1
 8000390:	430a      	orrs	r2, r1
 8000392:	087b      	lsrs	r3, r7, #1
 8000394:	4666      	mov	r6, ip
 8000396:	e00e      	b.n	80003b6 <__udivmoddi4+0xda>
 8000398:	42ab      	cmp	r3, r5
 800039a:	d101      	bne.n	80003a0 <__udivmoddi4+0xc4>
 800039c:	42a2      	cmp	r2, r4
 800039e:	d80c      	bhi.n	80003ba <__udivmoddi4+0xde>
 80003a0:	1aa4      	subs	r4, r4, r2
 80003a2:	419d      	sbcs	r5, r3
 80003a4:	2001      	movs	r0, #1
 80003a6:	1924      	adds	r4, r4, r4
 80003a8:	416d      	adcs	r5, r5
 80003aa:	2100      	movs	r1, #0
 80003ac:	3e01      	subs	r6, #1
 80003ae:	1824      	adds	r4, r4, r0
 80003b0:	414d      	adcs	r5, r1
 80003b2:	2e00      	cmp	r6, #0
 80003b4:	d006      	beq.n	80003c4 <__udivmoddi4+0xe8>
 80003b6:	42ab      	cmp	r3, r5
 80003b8:	d9ee      	bls.n	8000398 <__udivmoddi4+0xbc>
 80003ba:	3e01      	subs	r6, #1
 80003bc:	1924      	adds	r4, r4, r4
 80003be:	416d      	adcs	r5, r5
 80003c0:	2e00      	cmp	r6, #0
 80003c2:	d1f8      	bne.n	80003b6 <__udivmoddi4+0xda>
 80003c4:	9800      	ldr	r0, [sp, #0]
 80003c6:	9901      	ldr	r1, [sp, #4]
 80003c8:	4653      	mov	r3, sl
 80003ca:	1900      	adds	r0, r0, r4
 80003cc:	4169      	adcs	r1, r5
 80003ce:	2b00      	cmp	r3, #0
 80003d0:	db23      	blt.n	800041a <__udivmoddi4+0x13e>
 80003d2:	002b      	movs	r3, r5
 80003d4:	4652      	mov	r2, sl
 80003d6:	40d3      	lsrs	r3, r2
 80003d8:	002a      	movs	r2, r5
 80003da:	4664      	mov	r4, ip
 80003dc:	40e2      	lsrs	r2, r4
 80003de:	001c      	movs	r4, r3
 80003e0:	4653      	mov	r3, sl
 80003e2:	0015      	movs	r5, r2
 80003e4:	2b00      	cmp	r3, #0
 80003e6:	db2d      	blt.n	8000444 <__udivmoddi4+0x168>
 80003e8:	0026      	movs	r6, r4
 80003ea:	4657      	mov	r7, sl
 80003ec:	40be      	lsls	r6, r7
 80003ee:	0033      	movs	r3, r6
 80003f0:	0026      	movs	r6, r4
 80003f2:	4667      	mov	r7, ip
 80003f4:	40be      	lsls	r6, r7
 80003f6:	0032      	movs	r2, r6
 80003f8:	1a80      	subs	r0, r0, r2
 80003fa:	4199      	sbcs	r1, r3
 80003fc:	9000      	str	r0, [sp, #0]
 80003fe:	9101      	str	r1, [sp, #4]
 8000400:	e7ac      	b.n	800035c <__udivmoddi4+0x80>
 8000402:	4662      	mov	r2, ip
 8000404:	2320      	movs	r3, #32
 8000406:	1a9b      	subs	r3, r3, r2
 8000408:	464a      	mov	r2, r9
 800040a:	40da      	lsrs	r2, r3
 800040c:	4661      	mov	r1, ip
 800040e:	0013      	movs	r3, r2
 8000410:	4642      	mov	r2, r8
 8000412:	408a      	lsls	r2, r1
 8000414:	0017      	movs	r7, r2
 8000416:	431f      	orrs	r7, r3
 8000418:	e780      	b.n	800031c <__udivmoddi4+0x40>
 800041a:	4662      	mov	r2, ip
 800041c:	2320      	movs	r3, #32
 800041e:	1a9b      	subs	r3, r3, r2
 8000420:	002a      	movs	r2, r5
 8000422:	4666      	mov	r6, ip
 8000424:	409a      	lsls	r2, r3
 8000426:	0023      	movs	r3, r4
 8000428:	40f3      	lsrs	r3, r6
 800042a:	4313      	orrs	r3, r2
 800042c:	e7d4      	b.n	80003d8 <__udivmoddi4+0xfc>
 800042e:	4662      	mov	r2, ip
 8000430:	2320      	movs	r3, #32
 8000432:	2100      	movs	r1, #0
 8000434:	1a9b      	subs	r3, r3, r2
 8000436:	2200      	movs	r2, #0
 8000438:	9100      	str	r1, [sp, #0]
 800043a:	9201      	str	r2, [sp, #4]
 800043c:	2201      	movs	r2, #1
 800043e:	40da      	lsrs	r2, r3
 8000440:	9201      	str	r2, [sp, #4]
 8000442:	e780      	b.n	8000346 <__udivmoddi4+0x6a>
 8000444:	2320      	movs	r3, #32
 8000446:	4662      	mov	r2, ip
 8000448:	0026      	movs	r6, r4
 800044a:	1a9b      	subs	r3, r3, r2
 800044c:	40de      	lsrs	r6, r3
 800044e:	002f      	movs	r7, r5
 8000450:	46b0      	mov	r8, r6
 8000452:	4666      	mov	r6, ip
 8000454:	40b7      	lsls	r7, r6
 8000456:	4646      	mov	r6, r8
 8000458:	003b      	movs	r3, r7
 800045a:	4333      	orrs	r3, r6
 800045c:	e7c8      	b.n	80003f0 <__udivmoddi4+0x114>
 800045e:	46c0      	nop			; (mov r8, r8)

08000460 <__aeabi_fadd>:
 8000460:	b5f8      	push	{r3, r4, r5, r6, r7, lr}
 8000462:	4647      	mov	r7, r8
 8000464:	46ce      	mov	lr, r9
 8000466:	0243      	lsls	r3, r0, #9
 8000468:	0a5b      	lsrs	r3, r3, #9
 800046a:	0044      	lsls	r4, r0, #1
 800046c:	0fc2      	lsrs	r2, r0, #31
 800046e:	469c      	mov	ip, r3
 8000470:	0048      	lsls	r0, r1, #1
 8000472:	00dd      	lsls	r5, r3, #3
 8000474:	024b      	lsls	r3, r1, #9
 8000476:	0e24      	lsrs	r4, r4, #24
 8000478:	0a5b      	lsrs	r3, r3, #9
 800047a:	0e00      	lsrs	r0, r0, #24
 800047c:	b580      	push	{r7, lr}
 800047e:	4698      	mov	r8, r3
 8000480:	0026      	movs	r6, r4
 8000482:	4691      	mov	r9, r2
 8000484:	0fc9      	lsrs	r1, r1, #31
 8000486:	00db      	lsls	r3, r3, #3
 8000488:	1a27      	subs	r7, r4, r0
 800048a:	428a      	cmp	r2, r1
 800048c:	d029      	beq.n	80004e2 <__aeabi_fadd+0x82>
 800048e:	2f00      	cmp	r7, #0
 8000490:	dd15      	ble.n	80004be <__aeabi_fadd+0x5e>
 8000492:	2800      	cmp	r0, #0
 8000494:	d14a      	bne.n	800052c <__aeabi_fadd+0xcc>
 8000496:	2b00      	cmp	r3, #0
 8000498:	d000      	beq.n	800049c <__aeabi_fadd+0x3c>
 800049a:	e095      	b.n	80005c8 <__aeabi_fadd+0x168>
 800049c:	08ed      	lsrs	r5, r5, #3
 800049e:	2cff      	cmp	r4, #255	; 0xff
 80004a0:	d100      	bne.n	80004a4 <__aeabi_fadd+0x44>
 80004a2:	e088      	b.n	80005b6 <__aeabi_fadd+0x156>
 80004a4:	026b      	lsls	r3, r5, #9
 80004a6:	0a5b      	lsrs	r3, r3, #9
 80004a8:	b2e6      	uxtb	r6, r4
 80004aa:	025b      	lsls	r3, r3, #9
 80004ac:	05f6      	lsls	r6, r6, #23
 80004ae:	0a58      	lsrs	r0, r3, #9
 80004b0:	4330      	orrs	r0, r6
 80004b2:	07d2      	lsls	r2, r2, #31
 80004b4:	4310      	orrs	r0, r2
 80004b6:	bc0c      	pop	{r2, r3}
 80004b8:	4690      	mov	r8, r2
 80004ba:	4699      	mov	r9, r3
 80004bc:	bdf8      	pop	{r3, r4, r5, r6, r7, pc}
 80004be:	2f00      	cmp	r7, #0
 80004c0:	d000      	beq.n	80004c4 <__aeabi_fadd+0x64>
 80004c2:	e087      	b.n	80005d4 <__aeabi_fadd+0x174>
 80004c4:	1c60      	adds	r0, r4, #1
 80004c6:	b2c0      	uxtb	r0, r0
 80004c8:	2801      	cmp	r0, #1
 80004ca:	dc00      	bgt.n	80004ce <__aeabi_fadd+0x6e>
 80004cc:	e0b6      	b.n	800063c <__aeabi_fadd+0x1dc>
 80004ce:	1aee      	subs	r6, r5, r3
 80004d0:	0172      	lsls	r2, r6, #5
 80004d2:	d500      	bpl.n	80004d6 <__aeabi_fadd+0x76>
 80004d4:	e0c5      	b.n	8000662 <__aeabi_fadd+0x202>
 80004d6:	2e00      	cmp	r6, #0
 80004d8:	d13d      	bne.n	8000556 <__aeabi_fadd+0xf6>
 80004da:	2200      	movs	r2, #0
 80004dc:	2600      	movs	r6, #0
 80004de:	2300      	movs	r3, #0
 80004e0:	e7e3      	b.n	80004aa <__aeabi_fadd+0x4a>
 80004e2:	2f00      	cmp	r7, #0
 80004e4:	dc00      	bgt.n	80004e8 <__aeabi_fadd+0x88>
 80004e6:	e096      	b.n	8000616 <__aeabi_fadd+0x1b6>
 80004e8:	2800      	cmp	r0, #0
 80004ea:	d05d      	beq.n	80005a8 <__aeabi_fadd+0x148>
 80004ec:	2cff      	cmp	r4, #255	; 0xff
 80004ee:	d060      	beq.n	80005b2 <__aeabi_fadd+0x152>
 80004f0:	2280      	movs	r2, #128	; 0x80
 80004f2:	04d2      	lsls	r2, r2, #19
 80004f4:	4313      	orrs	r3, r2
 80004f6:	2f1b      	cmp	r7, #27
 80004f8:	dd00      	ble.n	80004fc <__aeabi_fadd+0x9c>
 80004fa:	e0ec      	b.n	80006d6 <__aeabi_fadd+0x276>
 80004fc:	2220      	movs	r2, #32
 80004fe:	1bd2      	subs	r2, r2, r7
 8000500:	0018      	movs	r0, r3
 8000502:	4093      	lsls	r3, r2
 8000504:	40f8      	lsrs	r0, r7
 8000506:	1e5a      	subs	r2, r3, #1
 8000508:	4193      	sbcs	r3, r2
 800050a:	4303      	orrs	r3, r0
 800050c:	18ed      	adds	r5, r5, r3
 800050e:	016b      	lsls	r3, r5, #5
 8000510:	d57b      	bpl.n	800060a <__aeabi_fadd+0x1aa>
 8000512:	3401      	adds	r4, #1
 8000514:	2cff      	cmp	r4, #255	; 0xff
 8000516:	d100      	bne.n	800051a <__aeabi_fadd+0xba>
 8000518:	e0b7      	b.n	800068a <__aeabi_fadd+0x22a>
 800051a:	2201      	movs	r2, #1
 800051c:	2607      	movs	r6, #7
 800051e:	402a      	ands	r2, r5
 8000520:	086b      	lsrs	r3, r5, #1
 8000522:	4d9a      	ldr	r5, [pc, #616]	; (800078c <__aeabi_fadd+0x32c>)
 8000524:	401d      	ands	r5, r3
 8000526:	4315      	orrs	r5, r2
 8000528:	402e      	ands	r6, r5
 800052a:	e029      	b.n	8000580 <__aeabi_fadd+0x120>
 800052c:	2cff      	cmp	r4, #255	; 0xff
 800052e:	d0b5      	beq.n	800049c <__aeabi_fadd+0x3c>
 8000530:	2280      	movs	r2, #128	; 0x80
 8000532:	04d2      	lsls	r2, r2, #19
 8000534:	4313      	orrs	r3, r2
 8000536:	2f1b      	cmp	r7, #27
 8000538:	dd00      	ble.n	800053c <__aeabi_fadd+0xdc>
 800053a:	e0b2      	b.n	80006a2 <__aeabi_fadd+0x242>
 800053c:	2220      	movs	r2, #32
 800053e:	1bd2      	subs	r2, r2, r7
 8000540:	0019      	movs	r1, r3
 8000542:	4093      	lsls	r3, r2
 8000544:	40f9      	lsrs	r1, r7
 8000546:	1e5a      	subs	r2, r3, #1
 8000548:	4193      	sbcs	r3, r2
 800054a:	430b      	orrs	r3, r1
 800054c:	1aed      	subs	r5, r5, r3
 800054e:	016b      	lsls	r3, r5, #5
 8000550:	d55b      	bpl.n	800060a <__aeabi_fadd+0x1aa>
 8000552:	01ad      	lsls	r5, r5, #6
 8000554:	09ae      	lsrs	r6, r5, #6
 8000556:	0030      	movs	r0, r6
 8000558:	f001 fd1c 	bl	8001f94 <__clzsi2>
 800055c:	3805      	subs	r0, #5
 800055e:	4086      	lsls	r6, r0
 8000560:	4284      	cmp	r4, r0
 8000562:	dc65      	bgt.n	8000630 <__aeabi_fadd+0x1d0>
 8000564:	1b04      	subs	r4, r0, r4
 8000566:	0033      	movs	r3, r6
 8000568:	2020      	movs	r0, #32
 800056a:	3401      	adds	r4, #1
 800056c:	40e3      	lsrs	r3, r4
 800056e:	1b04      	subs	r4, r0, r4
 8000570:	40a6      	lsls	r6, r4
 8000572:	1e75      	subs	r5, r6, #1
 8000574:	41ae      	sbcs	r6, r5
 8000576:	4333      	orrs	r3, r6
 8000578:	2607      	movs	r6, #7
 800057a:	001d      	movs	r5, r3
 800057c:	2400      	movs	r4, #0
 800057e:	401e      	ands	r6, r3
 8000580:	2201      	movs	r2, #1
 8000582:	464b      	mov	r3, r9
 8000584:	401a      	ands	r2, r3
 8000586:	2e00      	cmp	r6, #0
 8000588:	d004      	beq.n	8000594 <__aeabi_fadd+0x134>
 800058a:	230f      	movs	r3, #15
 800058c:	402b      	ands	r3, r5
 800058e:	2b04      	cmp	r3, #4
 8000590:	d000      	beq.n	8000594 <__aeabi_fadd+0x134>
 8000592:	3504      	adds	r5, #4
 8000594:	016b      	lsls	r3, r5, #5
 8000596:	d400      	bmi.n	800059a <__aeabi_fadd+0x13a>
 8000598:	e780      	b.n	800049c <__aeabi_fadd+0x3c>
 800059a:	3401      	adds	r4, #1
 800059c:	b2e6      	uxtb	r6, r4
 800059e:	2cff      	cmp	r4, #255	; 0xff
 80005a0:	d12f      	bne.n	8000602 <__aeabi_fadd+0x1a2>
 80005a2:	26ff      	movs	r6, #255	; 0xff
 80005a4:	2300      	movs	r3, #0
 80005a6:	e780      	b.n	80004aa <__aeabi_fadd+0x4a>
 80005a8:	2b00      	cmp	r3, #0
 80005aa:	d152      	bne.n	8000652 <__aeabi_fadd+0x1f2>
 80005ac:	2cff      	cmp	r4, #255	; 0xff
 80005ae:	d000      	beq.n	80005b2 <__aeabi_fadd+0x152>
 80005b0:	e774      	b.n	800049c <__aeabi_fadd+0x3c>
 80005b2:	000a      	movs	r2, r1
 80005b4:	08ed      	lsrs	r5, r5, #3
 80005b6:	2d00      	cmp	r5, #0
 80005b8:	d0f3      	beq.n	80005a2 <__aeabi_fadd+0x142>
 80005ba:	2380      	movs	r3, #128	; 0x80
 80005bc:	03db      	lsls	r3, r3, #15
 80005be:	432b      	orrs	r3, r5
 80005c0:	025b      	lsls	r3, r3, #9
 80005c2:	0a5b      	lsrs	r3, r3, #9
 80005c4:	26ff      	movs	r6, #255	; 0xff
 80005c6:	e770      	b.n	80004aa <__aeabi_fadd+0x4a>
 80005c8:	3f01      	subs	r7, #1
 80005ca:	2f00      	cmp	r7, #0
 80005cc:	d0be      	beq.n	800054c <__aeabi_fadd+0xec>
 80005ce:	2cff      	cmp	r4, #255	; 0xff
 80005d0:	d1b1      	bne.n	8000536 <__aeabi_fadd+0xd6>
 80005d2:	e763      	b.n	800049c <__aeabi_fadd+0x3c>
 80005d4:	2c00      	cmp	r4, #0
 80005d6:	d047      	beq.n	8000668 <__aeabi_fadd+0x208>
 80005d8:	28ff      	cmp	r0, #255	; 0xff
 80005da:	d069      	beq.n	80006b0 <__aeabi_fadd+0x250>
 80005dc:	2480      	movs	r4, #128	; 0x80
 80005de:	04e4      	lsls	r4, r4, #19
 80005e0:	427a      	negs	r2, r7
 80005e2:	4325      	orrs	r5, r4
 80005e4:	2a1b      	cmp	r2, #27
 80005e6:	dd00      	ble.n	80005ea <__aeabi_fadd+0x18a>
 80005e8:	e0c5      	b.n	8000776 <__aeabi_fadd+0x316>
 80005ea:	002c      	movs	r4, r5
 80005ec:	2620      	movs	r6, #32
 80005ee:	40d4      	lsrs	r4, r2
 80005f0:	1ab2      	subs	r2, r6, r2
 80005f2:	4095      	lsls	r5, r2
 80005f4:	1e6a      	subs	r2, r5, #1
 80005f6:	4195      	sbcs	r5, r2
 80005f8:	4325      	orrs	r5, r4
 80005fa:	1b5d      	subs	r5, r3, r5
 80005fc:	0004      	movs	r4, r0
 80005fe:	4689      	mov	r9, r1
 8000600:	e7a5      	b.n	800054e <__aeabi_fadd+0xee>
 8000602:	01ab      	lsls	r3, r5, #6
 8000604:	0a5b      	lsrs	r3, r3, #9
 8000606:	e750      	b.n	80004aa <__aeabi_fadd+0x4a>
 8000608:	2400      	movs	r4, #0
 800060a:	2201      	movs	r2, #1
 800060c:	464b      	mov	r3, r9
 800060e:	401a      	ands	r2, r3
 8000610:	076b      	lsls	r3, r5, #29
 8000612:	d1ba      	bne.n	800058a <__aeabi_fadd+0x12a>
 8000614:	e742      	b.n	800049c <__aeabi_fadd+0x3c>
 8000616:	2f00      	cmp	r7, #0
 8000618:	d13b      	bne.n	8000692 <__aeabi_fadd+0x232>
 800061a:	3401      	adds	r4, #1
 800061c:	b2e0      	uxtb	r0, r4
 800061e:	2801      	cmp	r0, #1
 8000620:	dd4a      	ble.n	80006b8 <__aeabi_fadd+0x258>
 8000622:	2cff      	cmp	r4, #255	; 0xff
 8000624:	d0bd      	beq.n	80005a2 <__aeabi_fadd+0x142>
 8000626:	2607      	movs	r6, #7
 8000628:	18ed      	adds	r5, r5, r3
 800062a:	086d      	lsrs	r5, r5, #1
 800062c:	402e      	ands	r6, r5
 800062e:	e7a7      	b.n	8000580 <__aeabi_fadd+0x120>
 8000630:	2307      	movs	r3, #7
 8000632:	4d57      	ldr	r5, [pc, #348]	; (8000790 <__aeabi_fadd+0x330>)
 8000634:	1a24      	subs	r4, r4, r0
 8000636:	4035      	ands	r5, r6
 8000638:	401e      	ands	r6, r3
 800063a:	e7a1      	b.n	8000580 <__aeabi_fadd+0x120>
 800063c:	2c00      	cmp	r4, #0
 800063e:	d11b      	bne.n	8000678 <__aeabi_fadd+0x218>
 8000640:	2d00      	cmp	r5, #0
 8000642:	d16e      	bne.n	8000722 <__aeabi_fadd+0x2c2>
 8000644:	2b00      	cmp	r3, #0
 8000646:	d100      	bne.n	800064a <__aeabi_fadd+0x1ea>
 8000648:	e09a      	b.n	8000780 <__aeabi_fadd+0x320>
 800064a:	000a      	movs	r2, r1
 800064c:	001d      	movs	r5, r3
 800064e:	003c      	movs	r4, r7
 8000650:	e724      	b.n	800049c <__aeabi_fadd+0x3c>
 8000652:	3f01      	subs	r7, #1
 8000654:	2f00      	cmp	r7, #0
 8000656:	d100      	bne.n	800065a <__aeabi_fadd+0x1fa>
 8000658:	e758      	b.n	800050c <__aeabi_fadd+0xac>
 800065a:	2cff      	cmp	r4, #255	; 0xff
 800065c:	d000      	beq.n	8000660 <__aeabi_fadd+0x200>
 800065e:	e74a      	b.n	80004f6 <__aeabi_fadd+0x96>
 8000660:	e7a7      	b.n	80005b2 <__aeabi_fadd+0x152>
 8000662:	1b5e      	subs	r6, r3, r5
 8000664:	4689      	mov	r9, r1
 8000666:	e776      	b.n	8000556 <__aeabi_fadd+0xf6>
 8000668:	2d00      	cmp	r5, #0
 800066a:	d11c      	bne.n	80006a6 <__aeabi_fadd+0x246>
 800066c:	000a      	movs	r2, r1
 800066e:	28ff      	cmp	r0, #255	; 0xff
 8000670:	d01f      	beq.n	80006b2 <__aeabi_fadd+0x252>
 8000672:	0004      	movs	r4, r0
 8000674:	001d      	movs	r5, r3
 8000676:	e711      	b.n	800049c <__aeabi_fadd+0x3c>
 8000678:	2d00      	cmp	r5, #0
 800067a:	d15d      	bne.n	8000738 <__aeabi_fadd+0x2d8>
 800067c:	2b00      	cmp	r3, #0
 800067e:	d117      	bne.n	80006b0 <__aeabi_fadd+0x250>
 8000680:	2380      	movs	r3, #128	; 0x80
 8000682:	2200      	movs	r2, #0
 8000684:	03db      	lsls	r3, r3, #15
 8000686:	26ff      	movs	r6, #255	; 0xff
 8000688:	e70f      	b.n	80004aa <__aeabi_fadd+0x4a>
 800068a:	000a      	movs	r2, r1
 800068c:	26ff      	movs	r6, #255	; 0xff
 800068e:	2300      	movs	r3, #0
 8000690:	e70b      	b.n	80004aa <__aeabi_fadd+0x4a>
 8000692:	2c00      	cmp	r4, #0
 8000694:	d121      	bne.n	80006da <__aeabi_fadd+0x27a>
 8000696:	2d00      	cmp	r5, #0
 8000698:	d166      	bne.n	8000768 <__aeabi_fadd+0x308>
 800069a:	28ff      	cmp	r0, #255	; 0xff
 800069c:	d1e9      	bne.n	8000672 <__aeabi_fadd+0x212>
 800069e:	001d      	movs	r5, r3
 80006a0:	e787      	b.n	80005b2 <__aeabi_fadd+0x152>
 80006a2:	2301      	movs	r3, #1
 80006a4:	e752      	b.n	800054c <__aeabi_fadd+0xec>
 80006a6:	1c7a      	adds	r2, r7, #1
 80006a8:	d0a7      	beq.n	80005fa <__aeabi_fadd+0x19a>
 80006aa:	43fa      	mvns	r2, r7
 80006ac:	28ff      	cmp	r0, #255	; 0xff
 80006ae:	d199      	bne.n	80005e4 <__aeabi_fadd+0x184>
 80006b0:	000a      	movs	r2, r1
 80006b2:	001d      	movs	r5, r3
 80006b4:	24ff      	movs	r4, #255	; 0xff
 80006b6:	e6f1      	b.n	800049c <__aeabi_fadd+0x3c>
 80006b8:	2e00      	cmp	r6, #0
 80006ba:	d121      	bne.n	8000700 <__aeabi_fadd+0x2a0>
 80006bc:	2d00      	cmp	r5, #0
 80006be:	d04f      	beq.n	8000760 <__aeabi_fadd+0x300>
 80006c0:	2b00      	cmp	r3, #0
 80006c2:	d04c      	beq.n	800075e <__aeabi_fadd+0x2fe>
 80006c4:	18ed      	adds	r5, r5, r3
 80006c6:	016b      	lsls	r3, r5, #5
 80006c8:	d59e      	bpl.n	8000608 <__aeabi_fadd+0x1a8>
 80006ca:	4b31      	ldr	r3, [pc, #196]	; (8000790 <__aeabi_fadd+0x330>)
 80006cc:	3607      	adds	r6, #7
 80006ce:	402e      	ands	r6, r5
 80006d0:	2401      	movs	r4, #1
 80006d2:	401d      	ands	r5, r3
 80006d4:	e754      	b.n	8000580 <__aeabi_fadd+0x120>
 80006d6:	2301      	movs	r3, #1
 80006d8:	e718      	b.n	800050c <__aeabi_fadd+0xac>
 80006da:	28ff      	cmp	r0, #255	; 0xff
 80006dc:	d0df      	beq.n	800069e <__aeabi_fadd+0x23e>
 80006de:	2480      	movs	r4, #128	; 0x80
 80006e0:	04e4      	lsls	r4, r4, #19
 80006e2:	427f      	negs	r7, r7
 80006e4:	4325      	orrs	r5, r4
 80006e6:	2f1b      	cmp	r7, #27
 80006e8:	dc4d      	bgt.n	8000786 <__aeabi_fadd+0x326>
 80006ea:	2620      	movs	r6, #32
 80006ec:	1bf6      	subs	r6, r6, r7
 80006ee:	002c      	movs	r4, r5
 80006f0:	40b5      	lsls	r5, r6
 80006f2:	40fc      	lsrs	r4, r7
 80006f4:	1e6a      	subs	r2, r5, #1
 80006f6:	4195      	sbcs	r5, r2
 80006f8:	4325      	orrs	r5, r4
 80006fa:	18ed      	adds	r5, r5, r3
 80006fc:	0004      	movs	r4, r0
 80006fe:	e706      	b.n	800050e <__aeabi_fadd+0xae>
 8000700:	2d00      	cmp	r5, #0
 8000702:	d0cc      	beq.n	800069e <__aeabi_fadd+0x23e>
 8000704:	2b00      	cmp	r3, #0
 8000706:	d100      	bne.n	800070a <__aeabi_fadd+0x2aa>
 8000708:	e753      	b.n	80005b2 <__aeabi_fadd+0x152>
 800070a:	2180      	movs	r1, #128	; 0x80
 800070c:	4660      	mov	r0, ip
 800070e:	03c9      	lsls	r1, r1, #15
 8000710:	4208      	tst	r0, r1
 8000712:	d003      	beq.n	800071c <__aeabi_fadd+0x2bc>
 8000714:	4640      	mov	r0, r8
 8000716:	4208      	tst	r0, r1
 8000718:	d100      	bne.n	800071c <__aeabi_fadd+0x2bc>
 800071a:	001d      	movs	r5, r3
 800071c:	2101      	movs	r1, #1
 800071e:	4011      	ands	r1, r2
 8000720:	e747      	b.n	80005b2 <__aeabi_fadd+0x152>
 8000722:	2b00      	cmp	r3, #0
 8000724:	d100      	bne.n	8000728 <__aeabi_fadd+0x2c8>
 8000726:	e6b9      	b.n	800049c <__aeabi_fadd+0x3c>
 8000728:	1aea      	subs	r2, r5, r3
 800072a:	0150      	lsls	r0, r2, #5
 800072c:	d525      	bpl.n	800077a <__aeabi_fadd+0x31a>
 800072e:	2607      	movs	r6, #7
 8000730:	1b5d      	subs	r5, r3, r5
 8000732:	402e      	ands	r6, r5
 8000734:	4689      	mov	r9, r1
 8000736:	e723      	b.n	8000580 <__aeabi_fadd+0x120>
 8000738:	24ff      	movs	r4, #255	; 0xff
 800073a:	2b00      	cmp	r3, #0
 800073c:	d100      	bne.n	8000740 <__aeabi_fadd+0x2e0>
 800073e:	e6ad      	b.n	800049c <__aeabi_fadd+0x3c>
 8000740:	2280      	movs	r2, #128	; 0x80
 8000742:	4660      	mov	r0, ip
 8000744:	03d2      	lsls	r2, r2, #15
 8000746:	4210      	tst	r0, r2
 8000748:	d004      	beq.n	8000754 <__aeabi_fadd+0x2f4>
 800074a:	4640      	mov	r0, r8
 800074c:	4210      	tst	r0, r2
 800074e:	d101      	bne.n	8000754 <__aeabi_fadd+0x2f4>
 8000750:	001d      	movs	r5, r3
 8000752:	4689      	mov	r9, r1
 8000754:	2201      	movs	r2, #1
 8000756:	464b      	mov	r3, r9
 8000758:	24ff      	movs	r4, #255	; 0xff
 800075a:	401a      	ands	r2, r3
 800075c:	e69e      	b.n	800049c <__aeabi_fadd+0x3c>
 800075e:	002b      	movs	r3, r5
 8000760:	08dd      	lsrs	r5, r3, #3
 8000762:	000a      	movs	r2, r1
 8000764:	2400      	movs	r4, #0
 8000766:	e69d      	b.n	80004a4 <__aeabi_fadd+0x44>
 8000768:	1c7a      	adds	r2, r7, #1
 800076a:	d0c6      	beq.n	80006fa <__aeabi_fadd+0x29a>
 800076c:	43ff      	mvns	r7, r7
 800076e:	28ff      	cmp	r0, #255	; 0xff
 8000770:	d1b9      	bne.n	80006e6 <__aeabi_fadd+0x286>
 8000772:	001d      	movs	r5, r3
 8000774:	e71d      	b.n	80005b2 <__aeabi_fadd+0x152>
 8000776:	2501      	movs	r5, #1
 8000778:	e73f      	b.n	80005fa <__aeabi_fadd+0x19a>
 800077a:	1e15      	subs	r5, r2, #0
 800077c:	d000      	beq.n	8000780 <__aeabi_fadd+0x320>
 800077e:	e744      	b.n	800060a <__aeabi_fadd+0x1aa>
 8000780:	2200      	movs	r2, #0
 8000782:	2300      	movs	r3, #0
 8000784:	e691      	b.n	80004aa <__aeabi_fadd+0x4a>
 8000786:	2501      	movs	r5, #1
 8000788:	e7b7      	b.n	80006fa <__aeabi_fadd+0x29a>
 800078a:	46c0      	nop			; (mov r8, r8)
 800078c:	7dffffff 	.word	0x7dffffff
 8000790:	fbffffff 	.word	0xfbffffff

08000794 <__aeabi_fdiv>:
 8000794:	b5f8      	push	{r3, r4, r5, r6, r7, lr}
 8000796:	4657      	mov	r7, sl
 8000798:	464e      	mov	r6, r9
 800079a:	4645      	mov	r5, r8
 800079c:	46de      	mov	lr, fp
 800079e:	0244      	lsls	r4, r0, #9
 80007a0:	b5e0      	push	{r5, r6, r7, lr}
 80007a2:	0046      	lsls	r6, r0, #1
 80007a4:	4688      	mov	r8, r1
 80007a6:	0a64      	lsrs	r4, r4, #9
 80007a8:	0e36      	lsrs	r6, r6, #24
 80007aa:	0fc7      	lsrs	r7, r0, #31
 80007ac:	2e00      	cmp	r6, #0
 80007ae:	d063      	beq.n	8000878 <__aeabi_fdiv+0xe4>
 80007b0:	2eff      	cmp	r6, #255	; 0xff
 80007b2:	d024      	beq.n	80007fe <__aeabi_fdiv+0x6a>
 80007b4:	2380      	movs	r3, #128	; 0x80
 80007b6:	00e4      	lsls	r4, r4, #3
 80007b8:	04db      	lsls	r3, r3, #19
 80007ba:	431c      	orrs	r4, r3
 80007bc:	2300      	movs	r3, #0
 80007be:	4699      	mov	r9, r3
 80007c0:	469b      	mov	fp, r3
 80007c2:	3e7f      	subs	r6, #127	; 0x7f
 80007c4:	4643      	mov	r3, r8
 80007c6:	4642      	mov	r2, r8
 80007c8:	025d      	lsls	r5, r3, #9
 80007ca:	0fd2      	lsrs	r2, r2, #31
 80007cc:	005b      	lsls	r3, r3, #1
 80007ce:	0a6d      	lsrs	r5, r5, #9
 80007d0:	0e1b      	lsrs	r3, r3, #24
 80007d2:	4690      	mov	r8, r2
 80007d4:	4692      	mov	sl, r2
 80007d6:	d065      	beq.n	80008a4 <__aeabi_fdiv+0x110>
 80007d8:	2bff      	cmp	r3, #255	; 0xff
 80007da:	d055      	beq.n	8000888 <__aeabi_fdiv+0xf4>
 80007dc:	2280      	movs	r2, #128	; 0x80
 80007de:	2100      	movs	r1, #0
 80007e0:	00ed      	lsls	r5, r5, #3
 80007e2:	04d2      	lsls	r2, r2, #19
 80007e4:	3b7f      	subs	r3, #127	; 0x7f
 80007e6:	4315      	orrs	r5, r2
 80007e8:	1af6      	subs	r6, r6, r3
 80007ea:	4643      	mov	r3, r8
 80007ec:	464a      	mov	r2, r9
 80007ee:	407b      	eors	r3, r7
 80007f0:	2a0f      	cmp	r2, #15
 80007f2:	d900      	bls.n	80007f6 <__aeabi_fdiv+0x62>
 80007f4:	e08d      	b.n	8000912 <__aeabi_fdiv+0x17e>
 80007f6:	486d      	ldr	r0, [pc, #436]	; (80009ac <__aeabi_fdiv+0x218>)
 80007f8:	0092      	lsls	r2, r2, #2
 80007fa:	5882      	ldr	r2, [r0, r2]
 80007fc:	4697      	mov	pc, r2
 80007fe:	2c00      	cmp	r4, #0
 8000800:	d154      	bne.n	80008ac <__aeabi_fdiv+0x118>
 8000802:	2308      	movs	r3, #8
 8000804:	4699      	mov	r9, r3
 8000806:	3b06      	subs	r3, #6
 8000808:	26ff      	movs	r6, #255	; 0xff
 800080a:	469b      	mov	fp, r3
 800080c:	e7da      	b.n	80007c4 <__aeabi_fdiv+0x30>
 800080e:	2500      	movs	r5, #0
 8000810:	4653      	mov	r3, sl
 8000812:	2902      	cmp	r1, #2
 8000814:	d01b      	beq.n	800084e <__aeabi_fdiv+0xba>
 8000816:	2903      	cmp	r1, #3
 8000818:	d100      	bne.n	800081c <__aeabi_fdiv+0x88>
 800081a:	e0bf      	b.n	800099c <__aeabi_fdiv+0x208>
 800081c:	2901      	cmp	r1, #1
 800081e:	d028      	beq.n	8000872 <__aeabi_fdiv+0xde>
 8000820:	0030      	movs	r0, r6
 8000822:	307f      	adds	r0, #127	; 0x7f
 8000824:	2800      	cmp	r0, #0
 8000826:	dd20      	ble.n	800086a <__aeabi_fdiv+0xd6>
 8000828:	076a      	lsls	r2, r5, #29
 800082a:	d004      	beq.n	8000836 <__aeabi_fdiv+0xa2>
 800082c:	220f      	movs	r2, #15
 800082e:	402a      	ands	r2, r5
 8000830:	2a04      	cmp	r2, #4
 8000832:	d000      	beq.n	8000836 <__aeabi_fdiv+0xa2>
 8000834:	3504      	adds	r5, #4
 8000836:	012a      	lsls	r2, r5, #4
 8000838:	d503      	bpl.n	8000842 <__aeabi_fdiv+0xae>
 800083a:	0030      	movs	r0, r6
 800083c:	4a5c      	ldr	r2, [pc, #368]	; (80009b0 <__aeabi_fdiv+0x21c>)
 800083e:	3080      	adds	r0, #128	; 0x80
 8000840:	4015      	ands	r5, r2
 8000842:	28fe      	cmp	r0, #254	; 0xfe
 8000844:	dc03      	bgt.n	800084e <__aeabi_fdiv+0xba>
 8000846:	01ac      	lsls	r4, r5, #6
 8000848:	0a64      	lsrs	r4, r4, #9
 800084a:	b2c2      	uxtb	r2, r0
 800084c:	e001      	b.n	8000852 <__aeabi_fdiv+0xbe>
 800084e:	22ff      	movs	r2, #255	; 0xff
 8000850:	2400      	movs	r4, #0
 8000852:	0264      	lsls	r4, r4, #9
 8000854:	05d2      	lsls	r2, r2, #23
 8000856:	0a60      	lsrs	r0, r4, #9
 8000858:	07db      	lsls	r3, r3, #31
 800085a:	4310      	orrs	r0, r2
 800085c:	4318      	orrs	r0, r3
 800085e:	bc3c      	pop	{r2, r3, r4, r5}
 8000860:	4690      	mov	r8, r2
 8000862:	4699      	mov	r9, r3
 8000864:	46a2      	mov	sl, r4
 8000866:	46ab      	mov	fp, r5
 8000868:	bdf8      	pop	{r3, r4, r5, r6, r7, pc}
 800086a:	2201      	movs	r2, #1
 800086c:	1a10      	subs	r0, r2, r0
 800086e:	281b      	cmp	r0, #27
 8000870:	dd7c      	ble.n	800096c <__aeabi_fdiv+0x1d8>
 8000872:	2200      	movs	r2, #0
 8000874:	2400      	movs	r4, #0
 8000876:	e7ec      	b.n	8000852 <__aeabi_fdiv+0xbe>
 8000878:	2c00      	cmp	r4, #0
 800087a:	d11d      	bne.n	80008b8 <__aeabi_fdiv+0x124>
 800087c:	2304      	movs	r3, #4
 800087e:	4699      	mov	r9, r3
 8000880:	3b03      	subs	r3, #3
 8000882:	2600      	movs	r6, #0
 8000884:	469b      	mov	fp, r3
 8000886:	e79d      	b.n	80007c4 <__aeabi_fdiv+0x30>
 8000888:	3eff      	subs	r6, #255	; 0xff
 800088a:	2d00      	cmp	r5, #0
 800088c:	d120      	bne.n	80008d0 <__aeabi_fdiv+0x13c>
 800088e:	2102      	movs	r1, #2
 8000890:	4643      	mov	r3, r8
 8000892:	464a      	mov	r2, r9
 8000894:	407b      	eors	r3, r7
 8000896:	430a      	orrs	r2, r1
 8000898:	2a0f      	cmp	r2, #15
 800089a:	d8d8      	bhi.n	800084e <__aeabi_fdiv+0xba>
 800089c:	4845      	ldr	r0, [pc, #276]	; (80009b4 <__aeabi_fdiv+0x220>)
 800089e:	0092      	lsls	r2, r2, #2
 80008a0:	5882      	ldr	r2, [r0, r2]
 80008a2:	4697      	mov	pc, r2
 80008a4:	2d00      	cmp	r5, #0
 80008a6:	d119      	bne.n	80008dc <__aeabi_fdiv+0x148>
 80008a8:	2101      	movs	r1, #1
 80008aa:	e7f1      	b.n	8000890 <__aeabi_fdiv+0xfc>
 80008ac:	230c      	movs	r3, #12
 80008ae:	4699      	mov	r9, r3
 80008b0:	3b09      	subs	r3, #9
 80008b2:	26ff      	movs	r6, #255	; 0xff
 80008b4:	469b      	mov	fp, r3
 80008b6:	e785      	b.n	80007c4 <__aeabi_fdiv+0x30>
 80008b8:	0020      	movs	r0, r4
 80008ba:	f001 fb6b 	bl	8001f94 <__clzsi2>
 80008be:	2676      	movs	r6, #118	; 0x76
 80008c0:	1f43      	subs	r3, r0, #5
 80008c2:	409c      	lsls	r4, r3
 80008c4:	2300      	movs	r3, #0
 80008c6:	4276      	negs	r6, r6
 80008c8:	1a36      	subs	r6, r6, r0
 80008ca:	4699      	mov	r9, r3
 80008cc:	469b      	mov	fp, r3
 80008ce:	e779      	b.n	80007c4 <__aeabi_fdiv+0x30>
 80008d0:	464a      	mov	r2, r9
 80008d2:	2303      	movs	r3, #3
 80008d4:	431a      	orrs	r2, r3
 80008d6:	4691      	mov	r9, r2
 80008d8:	2103      	movs	r1, #3
 80008da:	e786      	b.n	80007ea <__aeabi_fdiv+0x56>
 80008dc:	0028      	movs	r0, r5
 80008de:	f001 fb59 	bl	8001f94 <__clzsi2>
 80008e2:	1f43      	subs	r3, r0, #5
 80008e4:	1836      	adds	r6, r6, r0
 80008e6:	409d      	lsls	r5, r3
 80008e8:	3676      	adds	r6, #118	; 0x76
 80008ea:	2100      	movs	r1, #0
 80008ec:	e77d      	b.n	80007ea <__aeabi_fdiv+0x56>
 80008ee:	2480      	movs	r4, #128	; 0x80
 80008f0:	2300      	movs	r3, #0
 80008f2:	03e4      	lsls	r4, r4, #15
 80008f4:	22ff      	movs	r2, #255	; 0xff
 80008f6:	e7ac      	b.n	8000852 <__aeabi_fdiv+0xbe>
 80008f8:	2500      	movs	r5, #0
 80008fa:	2380      	movs	r3, #128	; 0x80
 80008fc:	03db      	lsls	r3, r3, #15
 80008fe:	421c      	tst	r4, r3
 8000900:	d028      	beq.n	8000954 <__aeabi_fdiv+0x1c0>
 8000902:	421d      	tst	r5, r3
 8000904:	d126      	bne.n	8000954 <__aeabi_fdiv+0x1c0>
 8000906:	432b      	orrs	r3, r5
 8000908:	025c      	lsls	r4, r3, #9
 800090a:	0a64      	lsrs	r4, r4, #9
 800090c:	4643      	mov	r3, r8
 800090e:	22ff      	movs	r2, #255	; 0xff
 8000910:	e79f      	b.n	8000852 <__aeabi_fdiv+0xbe>
 8000912:	0162      	lsls	r2, r4, #5
 8000914:	016c      	lsls	r4, r5, #5
 8000916:	42a2      	cmp	r2, r4
 8000918:	d224      	bcs.n	8000964 <__aeabi_fdiv+0x1d0>
 800091a:	211b      	movs	r1, #27
 800091c:	2500      	movs	r5, #0
 800091e:	3e01      	subs	r6, #1
 8000920:	2701      	movs	r7, #1
 8000922:	0010      	movs	r0, r2
 8000924:	006d      	lsls	r5, r5, #1
 8000926:	0052      	lsls	r2, r2, #1
 8000928:	2800      	cmp	r0, #0
 800092a:	db01      	blt.n	8000930 <__aeabi_fdiv+0x19c>
 800092c:	4294      	cmp	r4, r2
 800092e:	d801      	bhi.n	8000934 <__aeabi_fdiv+0x1a0>
 8000930:	1b12      	subs	r2, r2, r4
 8000932:	433d      	orrs	r5, r7
 8000934:	3901      	subs	r1, #1
 8000936:	2900      	cmp	r1, #0
 8000938:	d1f3      	bne.n	8000922 <__aeabi_fdiv+0x18e>
 800093a:	0014      	movs	r4, r2
 800093c:	1e62      	subs	r2, r4, #1
 800093e:	4194      	sbcs	r4, r2
 8000940:	4325      	orrs	r5, r4
 8000942:	e76d      	b.n	8000820 <__aeabi_fdiv+0x8c>
 8000944:	46ba      	mov	sl, r7
 8000946:	4659      	mov	r1, fp
 8000948:	0025      	movs	r5, r4
 800094a:	4653      	mov	r3, sl
 800094c:	2902      	cmp	r1, #2
 800094e:	d000      	beq.n	8000952 <__aeabi_fdiv+0x1be>
 8000950:	e761      	b.n	8000816 <__aeabi_fdiv+0x82>
 8000952:	e77c      	b.n	800084e <__aeabi_fdiv+0xba>
 8000954:	2380      	movs	r3, #128	; 0x80
 8000956:	03db      	lsls	r3, r3, #15
 8000958:	431c      	orrs	r4, r3
 800095a:	0264      	lsls	r4, r4, #9
 800095c:	0a64      	lsrs	r4, r4, #9
 800095e:	003b      	movs	r3, r7
 8000960:	22ff      	movs	r2, #255	; 0xff
 8000962:	e776      	b.n	8000852 <__aeabi_fdiv+0xbe>
 8000964:	1b12      	subs	r2, r2, r4
 8000966:	211a      	movs	r1, #26
 8000968:	2501      	movs	r5, #1
 800096a:	e7d9      	b.n	8000920 <__aeabi_fdiv+0x18c>
 800096c:	369e      	adds	r6, #158	; 0x9e
 800096e:	002a      	movs	r2, r5
 8000970:	40b5      	lsls	r5, r6
 8000972:	002c      	movs	r4, r5
 8000974:	40c2      	lsrs	r2, r0
 8000976:	1e65      	subs	r5, r4, #1
 8000978:	41ac      	sbcs	r4, r5
 800097a:	4314      	orrs	r4, r2
 800097c:	0762      	lsls	r2, r4, #29
 800097e:	d004      	beq.n	800098a <__aeabi_fdiv+0x1f6>
 8000980:	220f      	movs	r2, #15
 8000982:	4022      	ands	r2, r4
 8000984:	2a04      	cmp	r2, #4
 8000986:	d000      	beq.n	800098a <__aeabi_fdiv+0x1f6>
 8000988:	3404      	adds	r4, #4
 800098a:	0162      	lsls	r2, r4, #5
 800098c:	d403      	bmi.n	8000996 <__aeabi_fdiv+0x202>
 800098e:	01a4      	lsls	r4, r4, #6
 8000990:	0a64      	lsrs	r4, r4, #9
 8000992:	2200      	movs	r2, #0
 8000994:	e75d      	b.n	8000852 <__aeabi_fdiv+0xbe>
 8000996:	2201      	movs	r2, #1
 8000998:	2400      	movs	r4, #0
 800099a:	e75a      	b.n	8000852 <__aeabi_fdiv+0xbe>
 800099c:	2480      	movs	r4, #128	; 0x80
 800099e:	03e4      	lsls	r4, r4, #15
 80009a0:	432c      	orrs	r4, r5
 80009a2:	0264      	lsls	r4, r4, #9
 80009a4:	0a64      	lsrs	r4, r4, #9
 80009a6:	22ff      	movs	r2, #255	; 0xff
 80009a8:	e753      	b.n	8000852 <__aeabi_fdiv+0xbe>
 80009aa:	46c0      	nop			; (mov r8, r8)
 80009ac:	08004ffc 	.word	0x08004ffc
 80009b0:	f7ffffff 	.word	0xf7ffffff
 80009b4:	0800503c 	.word	0x0800503c

080009b8 <__aeabi_fmul>:
 80009b8:	b5f0      	push	{r4, r5, r6, r7, lr}
 80009ba:	464e      	mov	r6, r9
 80009bc:	4657      	mov	r7, sl
 80009be:	4645      	mov	r5, r8
 80009c0:	46de      	mov	lr, fp
 80009c2:	b5e0      	push	{r5, r6, r7, lr}
 80009c4:	0243      	lsls	r3, r0, #9
 80009c6:	0a5b      	lsrs	r3, r3, #9
 80009c8:	0045      	lsls	r5, r0, #1
 80009ca:	b083      	sub	sp, #12
 80009cc:	1c0f      	adds	r7, r1, #0
 80009ce:	4699      	mov	r9, r3
 80009d0:	0e2d      	lsrs	r5, r5, #24
 80009d2:	0fc6      	lsrs	r6, r0, #31
 80009d4:	2d00      	cmp	r5, #0
 80009d6:	d057      	beq.n	8000a88 <__aeabi_fmul+0xd0>
 80009d8:	2dff      	cmp	r5, #255	; 0xff
 80009da:	d024      	beq.n	8000a26 <__aeabi_fmul+0x6e>
 80009dc:	2080      	movs	r0, #128	; 0x80
 80009de:	00db      	lsls	r3, r3, #3
 80009e0:	04c0      	lsls	r0, r0, #19
 80009e2:	4318      	orrs	r0, r3
 80009e4:	2300      	movs	r3, #0
 80009e6:	4681      	mov	r9, r0
 80009e8:	469a      	mov	sl, r3
 80009ea:	469b      	mov	fp, r3
 80009ec:	3d7f      	subs	r5, #127	; 0x7f
 80009ee:	027c      	lsls	r4, r7, #9
 80009f0:	007a      	lsls	r2, r7, #1
 80009f2:	0ffb      	lsrs	r3, r7, #31
 80009f4:	0a64      	lsrs	r4, r4, #9
 80009f6:	0e12      	lsrs	r2, r2, #24
 80009f8:	4698      	mov	r8, r3
 80009fa:	d023      	beq.n	8000a44 <__aeabi_fmul+0x8c>
 80009fc:	2aff      	cmp	r2, #255	; 0xff
 80009fe:	d04b      	beq.n	8000a98 <__aeabi_fmul+0xe0>
 8000a00:	00e3      	lsls	r3, r4, #3
 8000a02:	2480      	movs	r4, #128	; 0x80
 8000a04:	2000      	movs	r0, #0
 8000a06:	04e4      	lsls	r4, r4, #19
 8000a08:	3a7f      	subs	r2, #127	; 0x7f
 8000a0a:	431c      	orrs	r4, r3
 8000a0c:	18ad      	adds	r5, r5, r2
 8000a0e:	1c6b      	adds	r3, r5, #1
 8000a10:	4647      	mov	r7, r8
 8000a12:	9301      	str	r3, [sp, #4]
 8000a14:	4653      	mov	r3, sl
 8000a16:	4077      	eors	r7, r6
 8000a18:	003a      	movs	r2, r7
 8000a1a:	2b0f      	cmp	r3, #15
 8000a1c:	d848      	bhi.n	8000ab0 <__aeabi_fmul+0xf8>
 8000a1e:	497d      	ldr	r1, [pc, #500]	; (8000c14 <__aeabi_fmul+0x25c>)
 8000a20:	009b      	lsls	r3, r3, #2
 8000a22:	58cb      	ldr	r3, [r1, r3]
 8000a24:	469f      	mov	pc, r3
 8000a26:	2b00      	cmp	r3, #0
 8000a28:	d000      	beq.n	8000a2c <__aeabi_fmul+0x74>
 8000a2a:	e085      	b.n	8000b38 <__aeabi_fmul+0x180>
 8000a2c:	3308      	adds	r3, #8
 8000a2e:	469a      	mov	sl, r3
 8000a30:	3b06      	subs	r3, #6
 8000a32:	469b      	mov	fp, r3
 8000a34:	027c      	lsls	r4, r7, #9
 8000a36:	007a      	lsls	r2, r7, #1
 8000a38:	0ffb      	lsrs	r3, r7, #31
 8000a3a:	25ff      	movs	r5, #255	; 0xff
 8000a3c:	0a64      	lsrs	r4, r4, #9
 8000a3e:	0e12      	lsrs	r2, r2, #24
 8000a40:	4698      	mov	r8, r3
 8000a42:	d1db      	bne.n	80009fc <__aeabi_fmul+0x44>
 8000a44:	2c00      	cmp	r4, #0
 8000a46:	d000      	beq.n	8000a4a <__aeabi_fmul+0x92>
 8000a48:	e090      	b.n	8000b6c <__aeabi_fmul+0x1b4>
 8000a4a:	4652      	mov	r2, sl
 8000a4c:	2301      	movs	r3, #1
 8000a4e:	431a      	orrs	r2, r3
 8000a50:	4692      	mov	sl, r2
 8000a52:	2001      	movs	r0, #1
 8000a54:	e7db      	b.n	8000a0e <__aeabi_fmul+0x56>
 8000a56:	464c      	mov	r4, r9
 8000a58:	4658      	mov	r0, fp
 8000a5a:	0017      	movs	r7, r2
 8000a5c:	2802      	cmp	r0, #2
 8000a5e:	d024      	beq.n	8000aaa <__aeabi_fmul+0xf2>
 8000a60:	2803      	cmp	r0, #3
 8000a62:	d100      	bne.n	8000a66 <__aeabi_fmul+0xae>
 8000a64:	e0cf      	b.n	8000c06 <__aeabi_fmul+0x24e>
 8000a66:	2200      	movs	r2, #0
 8000a68:	2300      	movs	r3, #0
 8000a6a:	2801      	cmp	r0, #1
 8000a6c:	d14d      	bne.n	8000b0a <__aeabi_fmul+0x152>
 8000a6e:	0258      	lsls	r0, r3, #9
 8000a70:	05d2      	lsls	r2, r2, #23
 8000a72:	0a40      	lsrs	r0, r0, #9
 8000a74:	07ff      	lsls	r7, r7, #31
 8000a76:	4310      	orrs	r0, r2
 8000a78:	4338      	orrs	r0, r7
 8000a7a:	b003      	add	sp, #12
 8000a7c:	bc3c      	pop	{r2, r3, r4, r5}
 8000a7e:	4690      	mov	r8, r2
 8000a80:	4699      	mov	r9, r3
 8000a82:	46a2      	mov	sl, r4
 8000a84:	46ab      	mov	fp, r5
 8000a86:	bdf0      	pop	{r4, r5, r6, r7, pc}
 8000a88:	2b00      	cmp	r3, #0
 8000a8a:	d15b      	bne.n	8000b44 <__aeabi_fmul+0x18c>
 8000a8c:	2304      	movs	r3, #4
 8000a8e:	469a      	mov	sl, r3
 8000a90:	3b03      	subs	r3, #3
 8000a92:	2500      	movs	r5, #0
 8000a94:	469b      	mov	fp, r3
 8000a96:	e7aa      	b.n	80009ee <__aeabi_fmul+0x36>
 8000a98:	35ff      	adds	r5, #255	; 0xff
 8000a9a:	2c00      	cmp	r4, #0
 8000a9c:	d160      	bne.n	8000b60 <__aeabi_fmul+0x1a8>
 8000a9e:	4652      	mov	r2, sl
 8000aa0:	2302      	movs	r3, #2
 8000aa2:	431a      	orrs	r2, r3
 8000aa4:	4692      	mov	sl, r2
 8000aa6:	2002      	movs	r0, #2
 8000aa8:	e7b1      	b.n	8000a0e <__aeabi_fmul+0x56>
 8000aaa:	22ff      	movs	r2, #255	; 0xff
 8000aac:	2300      	movs	r3, #0
 8000aae:	e7de      	b.n	8000a6e <__aeabi_fmul+0xb6>
 8000ab0:	464b      	mov	r3, r9
 8000ab2:	0c1b      	lsrs	r3, r3, #16
 8000ab4:	469c      	mov	ip, r3
 8000ab6:	464b      	mov	r3, r9
 8000ab8:	0426      	lsls	r6, r4, #16
 8000aba:	0c36      	lsrs	r6, r6, #16
 8000abc:	0418      	lsls	r0, r3, #16
 8000abe:	4661      	mov	r1, ip
 8000ac0:	0033      	movs	r3, r6
 8000ac2:	0c22      	lsrs	r2, r4, #16
 8000ac4:	4664      	mov	r4, ip
 8000ac6:	0c00      	lsrs	r0, r0, #16
 8000ac8:	4343      	muls	r3, r0
 8000aca:	434e      	muls	r6, r1
 8000acc:	4350      	muls	r0, r2
 8000ace:	4354      	muls	r4, r2
 8000ad0:	1980      	adds	r0, r0, r6
 8000ad2:	0c1a      	lsrs	r2, r3, #16
 8000ad4:	1812      	adds	r2, r2, r0
 8000ad6:	4296      	cmp	r6, r2
 8000ad8:	d903      	bls.n	8000ae2 <__aeabi_fmul+0x12a>
 8000ada:	2180      	movs	r1, #128	; 0x80
 8000adc:	0249      	lsls	r1, r1, #9
 8000ade:	468c      	mov	ip, r1
 8000ae0:	4464      	add	r4, ip
 8000ae2:	041b      	lsls	r3, r3, #16
 8000ae4:	0c1b      	lsrs	r3, r3, #16
 8000ae6:	0410      	lsls	r0, r2, #16
 8000ae8:	18c0      	adds	r0, r0, r3
 8000aea:	0183      	lsls	r3, r0, #6
 8000aec:	1e5e      	subs	r6, r3, #1
 8000aee:	41b3      	sbcs	r3, r6
 8000af0:	0e80      	lsrs	r0, r0, #26
 8000af2:	4318      	orrs	r0, r3
 8000af4:	0c13      	lsrs	r3, r2, #16
 8000af6:	191b      	adds	r3, r3, r4
 8000af8:	019b      	lsls	r3, r3, #6
 8000afa:	4303      	orrs	r3, r0
 8000afc:	001c      	movs	r4, r3
 8000afe:	0123      	lsls	r3, r4, #4
 8000b00:	d579      	bpl.n	8000bf6 <__aeabi_fmul+0x23e>
 8000b02:	2301      	movs	r3, #1
 8000b04:	0862      	lsrs	r2, r4, #1
 8000b06:	401c      	ands	r4, r3
 8000b08:	4314      	orrs	r4, r2
 8000b0a:	9a01      	ldr	r2, [sp, #4]
 8000b0c:	327f      	adds	r2, #127	; 0x7f
 8000b0e:	2a00      	cmp	r2, #0
 8000b10:	dd4d      	ble.n	8000bae <__aeabi_fmul+0x1f6>
 8000b12:	0763      	lsls	r3, r4, #29
 8000b14:	d004      	beq.n	8000b20 <__aeabi_fmul+0x168>
 8000b16:	230f      	movs	r3, #15
 8000b18:	4023      	ands	r3, r4
 8000b1a:	2b04      	cmp	r3, #4
 8000b1c:	d000      	beq.n	8000b20 <__aeabi_fmul+0x168>
 8000b1e:	3404      	adds	r4, #4
 8000b20:	0123      	lsls	r3, r4, #4
 8000b22:	d503      	bpl.n	8000b2c <__aeabi_fmul+0x174>
 8000b24:	4b3c      	ldr	r3, [pc, #240]	; (8000c18 <__aeabi_fmul+0x260>)
 8000b26:	9a01      	ldr	r2, [sp, #4]
 8000b28:	401c      	ands	r4, r3
 8000b2a:	3280      	adds	r2, #128	; 0x80
 8000b2c:	2afe      	cmp	r2, #254	; 0xfe
 8000b2e:	dcbc      	bgt.n	8000aaa <__aeabi_fmul+0xf2>
 8000b30:	01a3      	lsls	r3, r4, #6
 8000b32:	0a5b      	lsrs	r3, r3, #9
 8000b34:	b2d2      	uxtb	r2, r2
 8000b36:	e79a      	b.n	8000a6e <__aeabi_fmul+0xb6>
 8000b38:	230c      	movs	r3, #12
 8000b3a:	469a      	mov	sl, r3
 8000b3c:	3b09      	subs	r3, #9
 8000b3e:	25ff      	movs	r5, #255	; 0xff
 8000b40:	469b      	mov	fp, r3
 8000b42:	e754      	b.n	80009ee <__aeabi_fmul+0x36>
 8000b44:	0018      	movs	r0, r3
 8000b46:	f001 fa25 	bl	8001f94 <__clzsi2>
 8000b4a:	464a      	mov	r2, r9
 8000b4c:	1f43      	subs	r3, r0, #5
 8000b4e:	2576      	movs	r5, #118	; 0x76
 8000b50:	409a      	lsls	r2, r3
 8000b52:	2300      	movs	r3, #0
 8000b54:	426d      	negs	r5, r5
 8000b56:	4691      	mov	r9, r2
 8000b58:	1a2d      	subs	r5, r5, r0
 8000b5a:	469a      	mov	sl, r3
 8000b5c:	469b      	mov	fp, r3
 8000b5e:	e746      	b.n	80009ee <__aeabi_fmul+0x36>
 8000b60:	4652      	mov	r2, sl
 8000b62:	2303      	movs	r3, #3
 8000b64:	431a      	orrs	r2, r3
 8000b66:	4692      	mov	sl, r2
 8000b68:	2003      	movs	r0, #3
 8000b6a:	e750      	b.n	8000a0e <__aeabi_fmul+0x56>
 8000b6c:	0020      	movs	r0, r4
 8000b6e:	f001 fa11 	bl	8001f94 <__clzsi2>
 8000b72:	1f43      	subs	r3, r0, #5
 8000b74:	1a2d      	subs	r5, r5, r0
 8000b76:	409c      	lsls	r4, r3
 8000b78:	3d76      	subs	r5, #118	; 0x76
 8000b7a:	2000      	movs	r0, #0
 8000b7c:	e747      	b.n	8000a0e <__aeabi_fmul+0x56>
 8000b7e:	2380      	movs	r3, #128	; 0x80
 8000b80:	2700      	movs	r7, #0
 8000b82:	03db      	lsls	r3, r3, #15
 8000b84:	22ff      	movs	r2, #255	; 0xff
 8000b86:	e772      	b.n	8000a6e <__aeabi_fmul+0xb6>
 8000b88:	4642      	mov	r2, r8
 8000b8a:	e766      	b.n	8000a5a <__aeabi_fmul+0xa2>
 8000b8c:	464c      	mov	r4, r9
 8000b8e:	0032      	movs	r2, r6
 8000b90:	4658      	mov	r0, fp
 8000b92:	e762      	b.n	8000a5a <__aeabi_fmul+0xa2>
 8000b94:	2380      	movs	r3, #128	; 0x80
 8000b96:	464a      	mov	r2, r9
 8000b98:	03db      	lsls	r3, r3, #15
 8000b9a:	421a      	tst	r2, r3
 8000b9c:	d022      	beq.n	8000be4 <__aeabi_fmul+0x22c>
 8000b9e:	421c      	tst	r4, r3
 8000ba0:	d120      	bne.n	8000be4 <__aeabi_fmul+0x22c>
 8000ba2:	4323      	orrs	r3, r4
 8000ba4:	025b      	lsls	r3, r3, #9
 8000ba6:	0a5b      	lsrs	r3, r3, #9
 8000ba8:	4647      	mov	r7, r8
 8000baa:	22ff      	movs	r2, #255	; 0xff
 8000bac:	e75f      	b.n	8000a6e <__aeabi_fmul+0xb6>
 8000bae:	2301      	movs	r3, #1
 8000bb0:	1a9a      	subs	r2, r3, r2
 8000bb2:	2a1b      	cmp	r2, #27
 8000bb4:	dc21      	bgt.n	8000bfa <__aeabi_fmul+0x242>
 8000bb6:	0023      	movs	r3, r4
 8000bb8:	9901      	ldr	r1, [sp, #4]
 8000bba:	40d3      	lsrs	r3, r2
 8000bbc:	319e      	adds	r1, #158	; 0x9e
 8000bbe:	408c      	lsls	r4, r1
 8000bc0:	001a      	movs	r2, r3
 8000bc2:	0023      	movs	r3, r4
 8000bc4:	1e5c      	subs	r4, r3, #1
 8000bc6:	41a3      	sbcs	r3, r4
 8000bc8:	4313      	orrs	r3, r2
 8000bca:	075a      	lsls	r2, r3, #29
 8000bcc:	d004      	beq.n	8000bd8 <__aeabi_fmul+0x220>
 8000bce:	220f      	movs	r2, #15
 8000bd0:	401a      	ands	r2, r3
 8000bd2:	2a04      	cmp	r2, #4
 8000bd4:	d000      	beq.n	8000bd8 <__aeabi_fmul+0x220>
 8000bd6:	3304      	adds	r3, #4
 8000bd8:	015a      	lsls	r2, r3, #5
 8000bda:	d411      	bmi.n	8000c00 <__aeabi_fmul+0x248>
 8000bdc:	019b      	lsls	r3, r3, #6
 8000bde:	0a5b      	lsrs	r3, r3, #9
 8000be0:	2200      	movs	r2, #0
 8000be2:	e744      	b.n	8000a6e <__aeabi_fmul+0xb6>
 8000be4:	2380      	movs	r3, #128	; 0x80
 8000be6:	464a      	mov	r2, r9
 8000be8:	03db      	lsls	r3, r3, #15
 8000bea:	4313      	orrs	r3, r2
 8000bec:	025b      	lsls	r3, r3, #9
 8000bee:	0a5b      	lsrs	r3, r3, #9
 8000bf0:	0037      	movs	r7, r6
 8000bf2:	22ff      	movs	r2, #255	; 0xff
 8000bf4:	e73b      	b.n	8000a6e <__aeabi_fmul+0xb6>
 8000bf6:	9501      	str	r5, [sp, #4]
 8000bf8:	e787      	b.n	8000b0a <__aeabi_fmul+0x152>
 8000bfa:	2200      	movs	r2, #0
 8000bfc:	2300      	movs	r3, #0
 8000bfe:	e736      	b.n	8000a6e <__aeabi_fmul+0xb6>
 8000c00:	2201      	movs	r2, #1
 8000c02:	2300      	movs	r3, #0
 8000c04:	e733      	b.n	8000a6e <__aeabi_fmul+0xb6>
 8000c06:	2380      	movs	r3, #128	; 0x80
 8000c08:	03db      	lsls	r3, r3, #15
 8000c0a:	4323      	orrs	r3, r4
 8000c0c:	025b      	lsls	r3, r3, #9
 8000c0e:	0a5b      	lsrs	r3, r3, #9
 8000c10:	22ff      	movs	r2, #255	; 0xff
 8000c12:	e72c      	b.n	8000a6e <__aeabi_fmul+0xb6>
 8000c14:	0800507c 	.word	0x0800507c
 8000c18:	f7ffffff 	.word	0xf7ffffff

08000c1c <__aeabi_f2iz>:
 8000c1c:	0241      	lsls	r1, r0, #9
 8000c1e:	0042      	lsls	r2, r0, #1
 8000c20:	0fc3      	lsrs	r3, r0, #31
 8000c22:	0a49      	lsrs	r1, r1, #9
 8000c24:	0e12      	lsrs	r2, r2, #24
 8000c26:	2000      	movs	r0, #0
 8000c28:	2a7e      	cmp	r2, #126	; 0x7e
 8000c2a:	d90d      	bls.n	8000c48 <__aeabi_f2iz+0x2c>
 8000c2c:	2a9d      	cmp	r2, #157	; 0x9d
 8000c2e:	d80c      	bhi.n	8000c4a <__aeabi_f2iz+0x2e>
 8000c30:	2080      	movs	r0, #128	; 0x80
 8000c32:	0400      	lsls	r0, r0, #16
 8000c34:	4301      	orrs	r1, r0
 8000c36:	2a95      	cmp	r2, #149	; 0x95
 8000c38:	dc0a      	bgt.n	8000c50 <__aeabi_f2iz+0x34>
 8000c3a:	2096      	movs	r0, #150	; 0x96
 8000c3c:	1a82      	subs	r2, r0, r2
 8000c3e:	40d1      	lsrs	r1, r2
 8000c40:	4248      	negs	r0, r1
 8000c42:	2b00      	cmp	r3, #0
 8000c44:	d100      	bne.n	8000c48 <__aeabi_f2iz+0x2c>
 8000c46:	0008      	movs	r0, r1
 8000c48:	4770      	bx	lr
 8000c4a:	4a03      	ldr	r2, [pc, #12]	; (8000c58 <__aeabi_f2iz+0x3c>)
 8000c4c:	1898      	adds	r0, r3, r2
 8000c4e:	e7fb      	b.n	8000c48 <__aeabi_f2iz+0x2c>
 8000c50:	3a96      	subs	r2, #150	; 0x96
 8000c52:	4091      	lsls	r1, r2
 8000c54:	e7f4      	b.n	8000c40 <__aeabi_f2iz+0x24>
 8000c56:	46c0      	nop			; (mov r8, r8)
 8000c58:	7fffffff 	.word	0x7fffffff

08000c5c <__aeabi_i2f>:
 8000c5c:	b570      	push	{r4, r5, r6, lr}
 8000c5e:	2800      	cmp	r0, #0
 8000c60:	d03d      	beq.n	8000cde <__aeabi_i2f+0x82>
 8000c62:	17c3      	asrs	r3, r0, #31
 8000c64:	18c5      	adds	r5, r0, r3
 8000c66:	405d      	eors	r5, r3
 8000c68:	0fc4      	lsrs	r4, r0, #31
 8000c6a:	0028      	movs	r0, r5
 8000c6c:	f001 f992 	bl	8001f94 <__clzsi2>
 8000c70:	229e      	movs	r2, #158	; 0x9e
 8000c72:	1a12      	subs	r2, r2, r0
 8000c74:	2a96      	cmp	r2, #150	; 0x96
 8000c76:	dc07      	bgt.n	8000c88 <__aeabi_i2f+0x2c>
 8000c78:	b2d2      	uxtb	r2, r2
 8000c7a:	2808      	cmp	r0, #8
 8000c7c:	dd33      	ble.n	8000ce6 <__aeabi_i2f+0x8a>
 8000c7e:	3808      	subs	r0, #8
 8000c80:	4085      	lsls	r5, r0
 8000c82:	0268      	lsls	r0, r5, #9
 8000c84:	0a40      	lsrs	r0, r0, #9
 8000c86:	e023      	b.n	8000cd0 <__aeabi_i2f+0x74>
 8000c88:	2a99      	cmp	r2, #153	; 0x99
 8000c8a:	dd0b      	ble.n	8000ca4 <__aeabi_i2f+0x48>
 8000c8c:	2305      	movs	r3, #5
 8000c8e:	0029      	movs	r1, r5
 8000c90:	1a1b      	subs	r3, r3, r0
 8000c92:	40d9      	lsrs	r1, r3
 8000c94:	0003      	movs	r3, r0
 8000c96:	331b      	adds	r3, #27
 8000c98:	409d      	lsls	r5, r3
 8000c9a:	002b      	movs	r3, r5
 8000c9c:	1e5d      	subs	r5, r3, #1
 8000c9e:	41ab      	sbcs	r3, r5
 8000ca0:	4319      	orrs	r1, r3
 8000ca2:	000d      	movs	r5, r1
 8000ca4:	2805      	cmp	r0, #5
 8000ca6:	dd01      	ble.n	8000cac <__aeabi_i2f+0x50>
 8000ca8:	1f43      	subs	r3, r0, #5
 8000caa:	409d      	lsls	r5, r3
 8000cac:	002b      	movs	r3, r5
 8000cae:	490f      	ldr	r1, [pc, #60]	; (8000cec <__aeabi_i2f+0x90>)
 8000cb0:	400b      	ands	r3, r1
 8000cb2:	076e      	lsls	r6, r5, #29
 8000cb4:	d009      	beq.n	8000cca <__aeabi_i2f+0x6e>
 8000cb6:	260f      	movs	r6, #15
 8000cb8:	4035      	ands	r5, r6
 8000cba:	2d04      	cmp	r5, #4
 8000cbc:	d005      	beq.n	8000cca <__aeabi_i2f+0x6e>
 8000cbe:	3304      	adds	r3, #4
 8000cc0:	015d      	lsls	r5, r3, #5
 8000cc2:	d502      	bpl.n	8000cca <__aeabi_i2f+0x6e>
 8000cc4:	229f      	movs	r2, #159	; 0x9f
 8000cc6:	400b      	ands	r3, r1
 8000cc8:	1a12      	subs	r2, r2, r0
 8000cca:	019b      	lsls	r3, r3, #6
 8000ccc:	0a58      	lsrs	r0, r3, #9
 8000cce:	b2d2      	uxtb	r2, r2
 8000cd0:	0240      	lsls	r0, r0, #9
 8000cd2:	05d2      	lsls	r2, r2, #23
 8000cd4:	0a40      	lsrs	r0, r0, #9
 8000cd6:	07e4      	lsls	r4, r4, #31
 8000cd8:	4310      	orrs	r0, r2
 8000cda:	4320      	orrs	r0, r4
 8000cdc:	bd70      	pop	{r4, r5, r6, pc}
 8000cde:	2400      	movs	r4, #0
 8000ce0:	2200      	movs	r2, #0
 8000ce2:	2000      	movs	r0, #0
 8000ce4:	e7f4      	b.n	8000cd0 <__aeabi_i2f+0x74>
 8000ce6:	0268      	lsls	r0, r5, #9
 8000ce8:	0a40      	lsrs	r0, r0, #9
 8000cea:	e7f1      	b.n	8000cd0 <__aeabi_i2f+0x74>
 8000cec:	fbffffff 	.word	0xfbffffff

08000cf0 <__aeabi_dadd>:
 8000cf0:	b5f0      	push	{r4, r5, r6, r7, lr}
 8000cf2:	464f      	mov	r7, r9
 8000cf4:	4646      	mov	r6, r8
 8000cf6:	46d6      	mov	lr, sl
 8000cf8:	000c      	movs	r4, r1
 8000cfa:	0309      	lsls	r1, r1, #12
 8000cfc:	b5c0      	push	{r6, r7, lr}
 8000cfe:	0a49      	lsrs	r1, r1, #9
 8000d00:	0f47      	lsrs	r7, r0, #29
 8000d02:	005e      	lsls	r6, r3, #1
 8000d04:	4339      	orrs	r1, r7
 8000d06:	031f      	lsls	r7, r3, #12
 8000d08:	0fdb      	lsrs	r3, r3, #31
 8000d0a:	469c      	mov	ip, r3
 8000d0c:	0065      	lsls	r5, r4, #1
 8000d0e:	0a7b      	lsrs	r3, r7, #9
 8000d10:	0f57      	lsrs	r7, r2, #29
 8000d12:	431f      	orrs	r7, r3
 8000d14:	0d6d      	lsrs	r5, r5, #21
 8000d16:	0fe4      	lsrs	r4, r4, #31
 8000d18:	0d76      	lsrs	r6, r6, #21
 8000d1a:	46a1      	mov	r9, r4
 8000d1c:	00c0      	lsls	r0, r0, #3
 8000d1e:	46b8      	mov	r8, r7
 8000d20:	00d2      	lsls	r2, r2, #3
 8000d22:	1bab      	subs	r3, r5, r6
 8000d24:	4564      	cmp	r4, ip
 8000d26:	d07b      	beq.n	8000e20 <__aeabi_dadd+0x130>
 8000d28:	2b00      	cmp	r3, #0
 8000d2a:	dd5f      	ble.n	8000dec <__aeabi_dadd+0xfc>
 8000d2c:	2e00      	cmp	r6, #0
 8000d2e:	d000      	beq.n	8000d32 <__aeabi_dadd+0x42>
 8000d30:	e0a4      	b.n	8000e7c <__aeabi_dadd+0x18c>
 8000d32:	003e      	movs	r6, r7
 8000d34:	4316      	orrs	r6, r2
 8000d36:	d100      	bne.n	8000d3a <__aeabi_dadd+0x4a>
 8000d38:	e112      	b.n	8000f60 <__aeabi_dadd+0x270>
 8000d3a:	1e5e      	subs	r6, r3, #1
 8000d3c:	2e00      	cmp	r6, #0
 8000d3e:	d000      	beq.n	8000d42 <__aeabi_dadd+0x52>
 8000d40:	e19e      	b.n	8001080 <__aeabi_dadd+0x390>
 8000d42:	1a87      	subs	r7, r0, r2
 8000d44:	4643      	mov	r3, r8
 8000d46:	42b8      	cmp	r0, r7
 8000d48:	4180      	sbcs	r0, r0
 8000d4a:	2501      	movs	r5, #1
 8000d4c:	1ac9      	subs	r1, r1, r3
 8000d4e:	4240      	negs	r0, r0
 8000d50:	1a09      	subs	r1, r1, r0
 8000d52:	020b      	lsls	r3, r1, #8
 8000d54:	d400      	bmi.n	8000d58 <__aeabi_dadd+0x68>
 8000d56:	e131      	b.n	8000fbc <__aeabi_dadd+0x2cc>
 8000d58:	0249      	lsls	r1, r1, #9
 8000d5a:	0a4e      	lsrs	r6, r1, #9
 8000d5c:	2e00      	cmp	r6, #0
 8000d5e:	d100      	bne.n	8000d62 <__aeabi_dadd+0x72>
 8000d60:	e16e      	b.n	8001040 <__aeabi_dadd+0x350>
 8000d62:	0030      	movs	r0, r6
 8000d64:	f001 f916 	bl	8001f94 <__clzsi2>
 8000d68:	0003      	movs	r3, r0
 8000d6a:	3b08      	subs	r3, #8
 8000d6c:	2b1f      	cmp	r3, #31
 8000d6e:	dd00      	ble.n	8000d72 <__aeabi_dadd+0x82>
 8000d70:	e161      	b.n	8001036 <__aeabi_dadd+0x346>
 8000d72:	2220      	movs	r2, #32
 8000d74:	0039      	movs	r1, r7
 8000d76:	1ad2      	subs	r2, r2, r3
 8000d78:	409e      	lsls	r6, r3
 8000d7a:	40d1      	lsrs	r1, r2
 8000d7c:	409f      	lsls	r7, r3
 8000d7e:	430e      	orrs	r6, r1
 8000d80:	429d      	cmp	r5, r3
 8000d82:	dd00      	ble.n	8000d86 <__aeabi_dadd+0x96>
 8000d84:	e151      	b.n	800102a <__aeabi_dadd+0x33a>
 8000d86:	1b5d      	subs	r5, r3, r5
 8000d88:	1c6b      	adds	r3, r5, #1
 8000d8a:	2b1f      	cmp	r3, #31
 8000d8c:	dd00      	ble.n	8000d90 <__aeabi_dadd+0xa0>
 8000d8e:	e17c      	b.n	800108a <__aeabi_dadd+0x39a>
 8000d90:	2120      	movs	r1, #32
 8000d92:	1ac9      	subs	r1, r1, r3
 8000d94:	003d      	movs	r5, r7
 8000d96:	0030      	movs	r0, r6
 8000d98:	408f      	lsls	r7, r1
 8000d9a:	4088      	lsls	r0, r1
 8000d9c:	40dd      	lsrs	r5, r3
 8000d9e:	1e79      	subs	r1, r7, #1
 8000da0:	418f      	sbcs	r7, r1
 8000da2:	0031      	movs	r1, r6
 8000da4:	2207      	movs	r2, #7
 8000da6:	4328      	orrs	r0, r5
 8000da8:	40d9      	lsrs	r1, r3
 8000daa:	2500      	movs	r5, #0
 8000dac:	4307      	orrs	r7, r0
 8000dae:	403a      	ands	r2, r7
 8000db0:	2a00      	cmp	r2, #0
 8000db2:	d009      	beq.n	8000dc8 <__aeabi_dadd+0xd8>
 8000db4:	230f      	movs	r3, #15
 8000db6:	403b      	ands	r3, r7
 8000db8:	2b04      	cmp	r3, #4
 8000dba:	d005      	beq.n	8000dc8 <__aeabi_dadd+0xd8>
 8000dbc:	1d3b      	adds	r3, r7, #4
 8000dbe:	42bb      	cmp	r3, r7
 8000dc0:	41bf      	sbcs	r7, r7
 8000dc2:	427f      	negs	r7, r7
 8000dc4:	19c9      	adds	r1, r1, r7
 8000dc6:	001f      	movs	r7, r3
 8000dc8:	020b      	lsls	r3, r1, #8
 8000dca:	d400      	bmi.n	8000dce <__aeabi_dadd+0xde>
 8000dcc:	e226      	b.n	800121c <__aeabi_dadd+0x52c>
 8000dce:	1c6a      	adds	r2, r5, #1
 8000dd0:	4bc6      	ldr	r3, [pc, #792]	; (80010ec <__aeabi_dadd+0x3fc>)
 8000dd2:	0555      	lsls	r5, r2, #21
 8000dd4:	0d6d      	lsrs	r5, r5, #21
 8000dd6:	429a      	cmp	r2, r3
 8000dd8:	d100      	bne.n	8000ddc <__aeabi_dadd+0xec>
 8000dda:	e106      	b.n	8000fea <__aeabi_dadd+0x2fa>
 8000ddc:	4ac4      	ldr	r2, [pc, #784]	; (80010f0 <__aeabi_dadd+0x400>)
 8000dde:	08ff      	lsrs	r7, r7, #3
 8000de0:	400a      	ands	r2, r1
 8000de2:	0753      	lsls	r3, r2, #29
 8000de4:	0252      	lsls	r2, r2, #9
 8000de6:	433b      	orrs	r3, r7
 8000de8:	0b12      	lsrs	r2, r2, #12
 8000dea:	e08e      	b.n	8000f0a <__aeabi_dadd+0x21a>
 8000dec:	2b00      	cmp	r3, #0
 8000dee:	d000      	beq.n	8000df2 <__aeabi_dadd+0x102>
 8000df0:	e0b8      	b.n	8000f64 <__aeabi_dadd+0x274>
 8000df2:	1c6b      	adds	r3, r5, #1
 8000df4:	055b      	lsls	r3, r3, #21
 8000df6:	0d5b      	lsrs	r3, r3, #21
 8000df8:	2b01      	cmp	r3, #1
 8000dfa:	dc00      	bgt.n	8000dfe <__aeabi_dadd+0x10e>
 8000dfc:	e130      	b.n	8001060 <__aeabi_dadd+0x370>
 8000dfe:	1a87      	subs	r7, r0, r2
 8000e00:	4643      	mov	r3, r8
 8000e02:	42b8      	cmp	r0, r7
 8000e04:	41b6      	sbcs	r6, r6
 8000e06:	1acb      	subs	r3, r1, r3
 8000e08:	4276      	negs	r6, r6
 8000e0a:	1b9e      	subs	r6, r3, r6
 8000e0c:	0233      	lsls	r3, r6, #8
 8000e0e:	d500      	bpl.n	8000e12 <__aeabi_dadd+0x122>
 8000e10:	e14c      	b.n	80010ac <__aeabi_dadd+0x3bc>
 8000e12:	003b      	movs	r3, r7
 8000e14:	4333      	orrs	r3, r6
 8000e16:	d1a1      	bne.n	8000d5c <__aeabi_dadd+0x6c>
 8000e18:	2200      	movs	r2, #0
 8000e1a:	2400      	movs	r4, #0
 8000e1c:	2500      	movs	r5, #0
 8000e1e:	e070      	b.n	8000f02 <__aeabi_dadd+0x212>
 8000e20:	2b00      	cmp	r3, #0
 8000e22:	dc00      	bgt.n	8000e26 <__aeabi_dadd+0x136>
 8000e24:	e0e5      	b.n	8000ff2 <__aeabi_dadd+0x302>
 8000e26:	2e00      	cmp	r6, #0
 8000e28:	d100      	bne.n	8000e2c <__aeabi_dadd+0x13c>
 8000e2a:	e083      	b.n	8000f34 <__aeabi_dadd+0x244>
 8000e2c:	4eaf      	ldr	r6, [pc, #700]	; (80010ec <__aeabi_dadd+0x3fc>)
 8000e2e:	42b5      	cmp	r5, r6
 8000e30:	d060      	beq.n	8000ef4 <__aeabi_dadd+0x204>
 8000e32:	2680      	movs	r6, #128	; 0x80
 8000e34:	0436      	lsls	r6, r6, #16
 8000e36:	4337      	orrs	r7, r6
 8000e38:	46b8      	mov	r8, r7
 8000e3a:	2b38      	cmp	r3, #56	; 0x38
 8000e3c:	dc00      	bgt.n	8000e40 <__aeabi_dadd+0x150>
 8000e3e:	e13e      	b.n	80010be <__aeabi_dadd+0x3ce>
 8000e40:	4643      	mov	r3, r8
 8000e42:	4313      	orrs	r3, r2
 8000e44:	001f      	movs	r7, r3
 8000e46:	1e7a      	subs	r2, r7, #1
 8000e48:	4197      	sbcs	r7, r2
 8000e4a:	183f      	adds	r7, r7, r0
 8000e4c:	4287      	cmp	r7, r0
 8000e4e:	4180      	sbcs	r0, r0
 8000e50:	4240      	negs	r0, r0
 8000e52:	1809      	adds	r1, r1, r0
 8000e54:	020b      	lsls	r3, r1, #8
 8000e56:	d400      	bmi.n	8000e5a <__aeabi_dadd+0x16a>
 8000e58:	e0b0      	b.n	8000fbc <__aeabi_dadd+0x2cc>
 8000e5a:	4ba4      	ldr	r3, [pc, #656]	; (80010ec <__aeabi_dadd+0x3fc>)
 8000e5c:	3501      	adds	r5, #1
 8000e5e:	429d      	cmp	r5, r3
 8000e60:	d100      	bne.n	8000e64 <__aeabi_dadd+0x174>
 8000e62:	e0c3      	b.n	8000fec <__aeabi_dadd+0x2fc>
 8000e64:	4aa2      	ldr	r2, [pc, #648]	; (80010f0 <__aeabi_dadd+0x400>)
 8000e66:	087b      	lsrs	r3, r7, #1
 8000e68:	400a      	ands	r2, r1
 8000e6a:	2101      	movs	r1, #1
 8000e6c:	400f      	ands	r7, r1
 8000e6e:	431f      	orrs	r7, r3
 8000e70:	0851      	lsrs	r1, r2, #1
 8000e72:	07d3      	lsls	r3, r2, #31
 8000e74:	2207      	movs	r2, #7
 8000e76:	431f      	orrs	r7, r3
 8000e78:	403a      	ands	r2, r7
 8000e7a:	e799      	b.n	8000db0 <__aeabi_dadd+0xc0>
 8000e7c:	4e9b      	ldr	r6, [pc, #620]	; (80010ec <__aeabi_dadd+0x3fc>)
 8000e7e:	42b5      	cmp	r5, r6
 8000e80:	d038      	beq.n	8000ef4 <__aeabi_dadd+0x204>
 8000e82:	2680      	movs	r6, #128	; 0x80
 8000e84:	0436      	lsls	r6, r6, #16
 8000e86:	4337      	orrs	r7, r6
 8000e88:	46b8      	mov	r8, r7
 8000e8a:	2b38      	cmp	r3, #56	; 0x38
 8000e8c:	dd00      	ble.n	8000e90 <__aeabi_dadd+0x1a0>
 8000e8e:	e0dc      	b.n	800104a <__aeabi_dadd+0x35a>
 8000e90:	2b1f      	cmp	r3, #31
 8000e92:	dc00      	bgt.n	8000e96 <__aeabi_dadd+0x1a6>
 8000e94:	e130      	b.n	80010f8 <__aeabi_dadd+0x408>
 8000e96:	001e      	movs	r6, r3
 8000e98:	4647      	mov	r7, r8
 8000e9a:	3e20      	subs	r6, #32
 8000e9c:	40f7      	lsrs	r7, r6
 8000e9e:	46bc      	mov	ip, r7
 8000ea0:	2b20      	cmp	r3, #32
 8000ea2:	d004      	beq.n	8000eae <__aeabi_dadd+0x1be>
 8000ea4:	2640      	movs	r6, #64	; 0x40
 8000ea6:	1af3      	subs	r3, r6, r3
 8000ea8:	4646      	mov	r6, r8
 8000eaa:	409e      	lsls	r6, r3
 8000eac:	4332      	orrs	r2, r6
 8000eae:	0017      	movs	r7, r2
 8000eb0:	4663      	mov	r3, ip
 8000eb2:	1e7a      	subs	r2, r7, #1
 8000eb4:	4197      	sbcs	r7, r2
 8000eb6:	431f      	orrs	r7, r3
 8000eb8:	e0cc      	b.n	8001054 <__aeabi_dadd+0x364>
 8000eba:	2b00      	cmp	r3, #0
 8000ebc:	d100      	bne.n	8000ec0 <__aeabi_dadd+0x1d0>
 8000ebe:	e204      	b.n	80012ca <__aeabi_dadd+0x5da>
 8000ec0:	4643      	mov	r3, r8
 8000ec2:	4313      	orrs	r3, r2
 8000ec4:	d100      	bne.n	8000ec8 <__aeabi_dadd+0x1d8>
 8000ec6:	e159      	b.n	800117c <__aeabi_dadd+0x48c>
 8000ec8:	074b      	lsls	r3, r1, #29
 8000eca:	08c0      	lsrs	r0, r0, #3
 8000ecc:	4318      	orrs	r0, r3
 8000ece:	2380      	movs	r3, #128	; 0x80
 8000ed0:	08c9      	lsrs	r1, r1, #3
 8000ed2:	031b      	lsls	r3, r3, #12
 8000ed4:	4219      	tst	r1, r3
 8000ed6:	d008      	beq.n	8000eea <__aeabi_dadd+0x1fa>
 8000ed8:	4645      	mov	r5, r8
 8000eda:	08ed      	lsrs	r5, r5, #3
 8000edc:	421d      	tst	r5, r3
 8000ede:	d104      	bne.n	8000eea <__aeabi_dadd+0x1fa>
 8000ee0:	4643      	mov	r3, r8
 8000ee2:	08d0      	lsrs	r0, r2, #3
 8000ee4:	0759      	lsls	r1, r3, #29
 8000ee6:	4308      	orrs	r0, r1
 8000ee8:	0029      	movs	r1, r5
 8000eea:	0f42      	lsrs	r2, r0, #29
 8000eec:	00c9      	lsls	r1, r1, #3
 8000eee:	4d7f      	ldr	r5, [pc, #508]	; (80010ec <__aeabi_dadd+0x3fc>)
 8000ef0:	4311      	orrs	r1, r2
 8000ef2:	00c0      	lsls	r0, r0, #3
 8000ef4:	074b      	lsls	r3, r1, #29
 8000ef6:	08ca      	lsrs	r2, r1, #3
 8000ef8:	497c      	ldr	r1, [pc, #496]	; (80010ec <__aeabi_dadd+0x3fc>)
 8000efa:	08c0      	lsrs	r0, r0, #3
 8000efc:	4303      	orrs	r3, r0
 8000efe:	428d      	cmp	r5, r1
 8000f00:	d068      	beq.n	8000fd4 <__aeabi_dadd+0x2e4>
 8000f02:	0312      	lsls	r2, r2, #12
 8000f04:	056d      	lsls	r5, r5, #21
 8000f06:	0b12      	lsrs	r2, r2, #12
 8000f08:	0d6d      	lsrs	r5, r5, #21
 8000f0a:	2100      	movs	r1, #0
 8000f0c:	0312      	lsls	r2, r2, #12
 8000f0e:	0018      	movs	r0, r3
 8000f10:	0b13      	lsrs	r3, r2, #12
 8000f12:	0d0a      	lsrs	r2, r1, #20
 8000f14:	0512      	lsls	r2, r2, #20
 8000f16:	431a      	orrs	r2, r3
 8000f18:	4b76      	ldr	r3, [pc, #472]	; (80010f4 <__aeabi_dadd+0x404>)
 8000f1a:	052d      	lsls	r5, r5, #20
 8000f1c:	4013      	ands	r3, r2
 8000f1e:	432b      	orrs	r3, r5
 8000f20:	005b      	lsls	r3, r3, #1
 8000f22:	07e4      	lsls	r4, r4, #31
 8000f24:	085b      	lsrs	r3, r3, #1
 8000f26:	4323      	orrs	r3, r4
 8000f28:	0019      	movs	r1, r3
 8000f2a:	bc1c      	pop	{r2, r3, r4}
 8000f2c:	4690      	mov	r8, r2
 8000f2e:	4699      	mov	r9, r3
 8000f30:	46a2      	mov	sl, r4
 8000f32:	bdf0      	pop	{r4, r5, r6, r7, pc}
 8000f34:	003e      	movs	r6, r7
 8000f36:	4316      	orrs	r6, r2
 8000f38:	d012      	beq.n	8000f60 <__aeabi_dadd+0x270>
 8000f3a:	1e5e      	subs	r6, r3, #1
 8000f3c:	2e00      	cmp	r6, #0
 8000f3e:	d000      	beq.n	8000f42 <__aeabi_dadd+0x252>
 8000f40:	e100      	b.n	8001144 <__aeabi_dadd+0x454>
 8000f42:	1887      	adds	r7, r0, r2
 8000f44:	4287      	cmp	r7, r0
 8000f46:	4180      	sbcs	r0, r0
 8000f48:	4441      	add	r1, r8
 8000f4a:	4240      	negs	r0, r0
 8000f4c:	1809      	adds	r1, r1, r0
 8000f4e:	2501      	movs	r5, #1
 8000f50:	020b      	lsls	r3, r1, #8
 8000f52:	d533      	bpl.n	8000fbc <__aeabi_dadd+0x2cc>
 8000f54:	2502      	movs	r5, #2
 8000f56:	e785      	b.n	8000e64 <__aeabi_dadd+0x174>
 8000f58:	4664      	mov	r4, ip
 8000f5a:	0033      	movs	r3, r6
 8000f5c:	4641      	mov	r1, r8
 8000f5e:	0010      	movs	r0, r2
 8000f60:	001d      	movs	r5, r3
 8000f62:	e7c7      	b.n	8000ef4 <__aeabi_dadd+0x204>
 8000f64:	2d00      	cmp	r5, #0
 8000f66:	d000      	beq.n	8000f6a <__aeabi_dadd+0x27a>
 8000f68:	e0da      	b.n	8001120 <__aeabi_dadd+0x430>
 8000f6a:	000c      	movs	r4, r1
 8000f6c:	4304      	orrs	r4, r0
 8000f6e:	d0f3      	beq.n	8000f58 <__aeabi_dadd+0x268>
 8000f70:	1c5c      	adds	r4, r3, #1
 8000f72:	d100      	bne.n	8000f76 <__aeabi_dadd+0x286>
 8000f74:	e19f      	b.n	80012b6 <__aeabi_dadd+0x5c6>
 8000f76:	4c5d      	ldr	r4, [pc, #372]	; (80010ec <__aeabi_dadd+0x3fc>)
 8000f78:	42a6      	cmp	r6, r4
 8000f7a:	d100      	bne.n	8000f7e <__aeabi_dadd+0x28e>
 8000f7c:	e12f      	b.n	80011de <__aeabi_dadd+0x4ee>
 8000f7e:	43db      	mvns	r3, r3
 8000f80:	2b38      	cmp	r3, #56	; 0x38
 8000f82:	dd00      	ble.n	8000f86 <__aeabi_dadd+0x296>
 8000f84:	e166      	b.n	8001254 <__aeabi_dadd+0x564>
 8000f86:	2b1f      	cmp	r3, #31
 8000f88:	dd00      	ble.n	8000f8c <__aeabi_dadd+0x29c>
 8000f8a:	e183      	b.n	8001294 <__aeabi_dadd+0x5a4>
 8000f8c:	2420      	movs	r4, #32
 8000f8e:	0005      	movs	r5, r0
 8000f90:	1ae4      	subs	r4, r4, r3
 8000f92:	000f      	movs	r7, r1
 8000f94:	40dd      	lsrs	r5, r3
 8000f96:	40d9      	lsrs	r1, r3
 8000f98:	40a0      	lsls	r0, r4
 8000f9a:	4643      	mov	r3, r8
 8000f9c:	40a7      	lsls	r7, r4
 8000f9e:	1a5b      	subs	r3, r3, r1
 8000fa0:	1e44      	subs	r4, r0, #1
 8000fa2:	41a0      	sbcs	r0, r4
 8000fa4:	4698      	mov	r8, r3
 8000fa6:	432f      	orrs	r7, r5
 8000fa8:	4338      	orrs	r0, r7
 8000faa:	1a17      	subs	r7, r2, r0
 8000fac:	42ba      	cmp	r2, r7
 8000fae:	4192      	sbcs	r2, r2
 8000fb0:	4643      	mov	r3, r8
 8000fb2:	4252      	negs	r2, r2
 8000fb4:	1a99      	subs	r1, r3, r2
 8000fb6:	4664      	mov	r4, ip
 8000fb8:	0035      	movs	r5, r6
 8000fba:	e6ca      	b.n	8000d52 <__aeabi_dadd+0x62>
 8000fbc:	2207      	movs	r2, #7
 8000fbe:	403a      	ands	r2, r7
 8000fc0:	2a00      	cmp	r2, #0
 8000fc2:	d000      	beq.n	8000fc6 <__aeabi_dadd+0x2d6>
 8000fc4:	e6f6      	b.n	8000db4 <__aeabi_dadd+0xc4>
 8000fc6:	074b      	lsls	r3, r1, #29
 8000fc8:	08ca      	lsrs	r2, r1, #3
 8000fca:	4948      	ldr	r1, [pc, #288]	; (80010ec <__aeabi_dadd+0x3fc>)
 8000fcc:	08ff      	lsrs	r7, r7, #3
 8000fce:	433b      	orrs	r3, r7
 8000fd0:	428d      	cmp	r5, r1
 8000fd2:	d196      	bne.n	8000f02 <__aeabi_dadd+0x212>
 8000fd4:	0019      	movs	r1, r3
 8000fd6:	4311      	orrs	r1, r2
 8000fd8:	d100      	bne.n	8000fdc <__aeabi_dadd+0x2ec>
 8000fda:	e19e      	b.n	800131a <__aeabi_dadd+0x62a>
 8000fdc:	2180      	movs	r1, #128	; 0x80
 8000fde:	0309      	lsls	r1, r1, #12
 8000fe0:	430a      	orrs	r2, r1
 8000fe2:	0312      	lsls	r2, r2, #12
 8000fe4:	0b12      	lsrs	r2, r2, #12
 8000fe6:	4d41      	ldr	r5, [pc, #260]	; (80010ec <__aeabi_dadd+0x3fc>)
 8000fe8:	e78f      	b.n	8000f0a <__aeabi_dadd+0x21a>
 8000fea:	0015      	movs	r5, r2
 8000fec:	2200      	movs	r2, #0
 8000fee:	2300      	movs	r3, #0
 8000ff0:	e78b      	b.n	8000f0a <__aeabi_dadd+0x21a>
 8000ff2:	2b00      	cmp	r3, #0
 8000ff4:	d000      	beq.n	8000ff8 <__aeabi_dadd+0x308>
 8000ff6:	e0c7      	b.n	8001188 <__aeabi_dadd+0x498>
 8000ff8:	1c6b      	adds	r3, r5, #1
 8000ffa:	055f      	lsls	r7, r3, #21
 8000ffc:	0d7f      	lsrs	r7, r7, #21
 8000ffe:	2f01      	cmp	r7, #1
 8001000:	dc00      	bgt.n	8001004 <__aeabi_dadd+0x314>
 8001002:	e0f1      	b.n	80011e8 <__aeabi_dadd+0x4f8>
 8001004:	4d39      	ldr	r5, [pc, #228]	; (80010ec <__aeabi_dadd+0x3fc>)
 8001006:	42ab      	cmp	r3, r5
 8001008:	d100      	bne.n	800100c <__aeabi_dadd+0x31c>
 800100a:	e0b9      	b.n	8001180 <__aeabi_dadd+0x490>
 800100c:	1885      	adds	r5, r0, r2
 800100e:	000a      	movs	r2, r1
 8001010:	4285      	cmp	r5, r0
 8001012:	4189      	sbcs	r1, r1
 8001014:	4442      	add	r2, r8
 8001016:	4249      	negs	r1, r1
 8001018:	1851      	adds	r1, r2, r1
 800101a:	2207      	movs	r2, #7
 800101c:	07cf      	lsls	r7, r1, #31
 800101e:	086d      	lsrs	r5, r5, #1
 8001020:	432f      	orrs	r7, r5
 8001022:	0849      	lsrs	r1, r1, #1
 8001024:	403a      	ands	r2, r7
 8001026:	001d      	movs	r5, r3
 8001028:	e6c2      	b.n	8000db0 <__aeabi_dadd+0xc0>
 800102a:	2207      	movs	r2, #7
 800102c:	4930      	ldr	r1, [pc, #192]	; (80010f0 <__aeabi_dadd+0x400>)
 800102e:	1aed      	subs	r5, r5, r3
 8001030:	4031      	ands	r1, r6
 8001032:	403a      	ands	r2, r7
 8001034:	e6bc      	b.n	8000db0 <__aeabi_dadd+0xc0>
 8001036:	003e      	movs	r6, r7
 8001038:	3828      	subs	r0, #40	; 0x28
 800103a:	4086      	lsls	r6, r0
 800103c:	2700      	movs	r7, #0
 800103e:	e69f      	b.n	8000d80 <__aeabi_dadd+0x90>
 8001040:	0038      	movs	r0, r7
 8001042:	f000 ffa7 	bl	8001f94 <__clzsi2>
 8001046:	3020      	adds	r0, #32
 8001048:	e68e      	b.n	8000d68 <__aeabi_dadd+0x78>
 800104a:	4643      	mov	r3, r8
 800104c:	4313      	orrs	r3, r2
 800104e:	001f      	movs	r7, r3
 8001050:	1e7a      	subs	r2, r7, #1
 8001052:	4197      	sbcs	r7, r2
 8001054:	1bc7      	subs	r7, r0, r7
 8001056:	42b8      	cmp	r0, r7
 8001058:	4180      	sbcs	r0, r0
 800105a:	4240      	negs	r0, r0
 800105c:	1a09      	subs	r1, r1, r0
 800105e:	e678      	b.n	8000d52 <__aeabi_dadd+0x62>
 8001060:	000e      	movs	r6, r1
 8001062:	003b      	movs	r3, r7
 8001064:	4306      	orrs	r6, r0
 8001066:	4313      	orrs	r3, r2
 8001068:	2d00      	cmp	r5, #0
 800106a:	d161      	bne.n	8001130 <__aeabi_dadd+0x440>
 800106c:	2e00      	cmp	r6, #0
 800106e:	d000      	beq.n	8001072 <__aeabi_dadd+0x382>
 8001070:	e0f4      	b.n	800125c <__aeabi_dadd+0x56c>
 8001072:	2b00      	cmp	r3, #0
 8001074:	d100      	bne.n	8001078 <__aeabi_dadd+0x388>
 8001076:	e11b      	b.n	80012b0 <__aeabi_dadd+0x5c0>
 8001078:	4664      	mov	r4, ip
 800107a:	0039      	movs	r1, r7
 800107c:	0010      	movs	r0, r2
 800107e:	e739      	b.n	8000ef4 <__aeabi_dadd+0x204>
 8001080:	4f1a      	ldr	r7, [pc, #104]	; (80010ec <__aeabi_dadd+0x3fc>)
 8001082:	42bb      	cmp	r3, r7
 8001084:	d07a      	beq.n	800117c <__aeabi_dadd+0x48c>
 8001086:	0033      	movs	r3, r6
 8001088:	e6ff      	b.n	8000e8a <__aeabi_dadd+0x19a>
 800108a:	0030      	movs	r0, r6
 800108c:	3d1f      	subs	r5, #31
 800108e:	40e8      	lsrs	r0, r5
 8001090:	2b20      	cmp	r3, #32
 8001092:	d003      	beq.n	800109c <__aeabi_dadd+0x3ac>
 8001094:	2140      	movs	r1, #64	; 0x40
 8001096:	1acb      	subs	r3, r1, r3
 8001098:	409e      	lsls	r6, r3
 800109a:	4337      	orrs	r7, r6
 800109c:	1e7b      	subs	r3, r7, #1
 800109e:	419f      	sbcs	r7, r3
 80010a0:	2207      	movs	r2, #7
 80010a2:	4307      	orrs	r7, r0
 80010a4:	403a      	ands	r2, r7
 80010a6:	2100      	movs	r1, #0
 80010a8:	2500      	movs	r5, #0
 80010aa:	e789      	b.n	8000fc0 <__aeabi_dadd+0x2d0>
 80010ac:	1a17      	subs	r7, r2, r0
 80010ae:	4643      	mov	r3, r8
 80010b0:	42ba      	cmp	r2, r7
 80010b2:	41b6      	sbcs	r6, r6
 80010b4:	1a59      	subs	r1, r3, r1
 80010b6:	4276      	negs	r6, r6
 80010b8:	1b8e      	subs	r6, r1, r6
 80010ba:	4664      	mov	r4, ip
 80010bc:	e64e      	b.n	8000d5c <__aeabi_dadd+0x6c>
 80010be:	2b1f      	cmp	r3, #31
 80010c0:	dd00      	ble.n	80010c4 <__aeabi_dadd+0x3d4>
 80010c2:	e0ad      	b.n	8001220 <__aeabi_dadd+0x530>
 80010c4:	2620      	movs	r6, #32
 80010c6:	4647      	mov	r7, r8
 80010c8:	1af6      	subs	r6, r6, r3
 80010ca:	40b7      	lsls	r7, r6
 80010cc:	46b9      	mov	r9, r7
 80010ce:	0017      	movs	r7, r2
 80010d0:	46b2      	mov	sl, r6
 80010d2:	40df      	lsrs	r7, r3
 80010d4:	464e      	mov	r6, r9
 80010d6:	433e      	orrs	r6, r7
 80010d8:	0037      	movs	r7, r6
 80010da:	4656      	mov	r6, sl
 80010dc:	40b2      	lsls	r2, r6
 80010de:	1e56      	subs	r6, r2, #1
 80010e0:	41b2      	sbcs	r2, r6
 80010e2:	4317      	orrs	r7, r2
 80010e4:	4642      	mov	r2, r8
 80010e6:	40da      	lsrs	r2, r3
 80010e8:	1889      	adds	r1, r1, r2
 80010ea:	e6ae      	b.n	8000e4a <__aeabi_dadd+0x15a>
 80010ec:	000007ff 	.word	0x000007ff
 80010f0:	ff7fffff 	.word	0xff7fffff
 80010f4:	800fffff 	.word	0x800fffff
 80010f8:	2620      	movs	r6, #32
 80010fa:	4647      	mov	r7, r8
 80010fc:	1af6      	subs	r6, r6, r3
 80010fe:	40b7      	lsls	r7, r6
 8001100:	46b9      	mov	r9, r7
 8001102:	0017      	movs	r7, r2
 8001104:	46b2      	mov	sl, r6
 8001106:	40df      	lsrs	r7, r3
 8001108:	464e      	mov	r6, r9
 800110a:	433e      	orrs	r6, r7
 800110c:	0037      	movs	r7, r6
 800110e:	4656      	mov	r6, sl
 8001110:	40b2      	lsls	r2, r6
 8001112:	1e56      	subs	r6, r2, #1
 8001114:	41b2      	sbcs	r2, r6
 8001116:	4317      	orrs	r7, r2
 8001118:	4642      	mov	r2, r8
 800111a:	40da      	lsrs	r2, r3
 800111c:	1a89      	subs	r1, r1, r2
 800111e:	e799      	b.n	8001054 <__aeabi_dadd+0x364>
 8001120:	4c7f      	ldr	r4, [pc, #508]	; (8001320 <__aeabi_dadd+0x630>)
 8001122:	42a6      	cmp	r6, r4
 8001124:	d05b      	beq.n	80011de <__aeabi_dadd+0x4ee>
 8001126:	2480      	movs	r4, #128	; 0x80
 8001128:	0424      	lsls	r4, r4, #16
 800112a:	425b      	negs	r3, r3
 800112c:	4321      	orrs	r1, r4
 800112e:	e727      	b.n	8000f80 <__aeabi_dadd+0x290>
 8001130:	2e00      	cmp	r6, #0
 8001132:	d10c      	bne.n	800114e <__aeabi_dadd+0x45e>
 8001134:	2b00      	cmp	r3, #0
 8001136:	d100      	bne.n	800113a <__aeabi_dadd+0x44a>
 8001138:	e0cb      	b.n	80012d2 <__aeabi_dadd+0x5e2>
 800113a:	4664      	mov	r4, ip
 800113c:	0039      	movs	r1, r7
 800113e:	0010      	movs	r0, r2
 8001140:	4d77      	ldr	r5, [pc, #476]	; (8001320 <__aeabi_dadd+0x630>)
 8001142:	e6d7      	b.n	8000ef4 <__aeabi_dadd+0x204>
 8001144:	4f76      	ldr	r7, [pc, #472]	; (8001320 <__aeabi_dadd+0x630>)
 8001146:	42bb      	cmp	r3, r7
 8001148:	d018      	beq.n	800117c <__aeabi_dadd+0x48c>
 800114a:	0033      	movs	r3, r6
 800114c:	e675      	b.n	8000e3a <__aeabi_dadd+0x14a>
 800114e:	2b00      	cmp	r3, #0
 8001150:	d014      	beq.n	800117c <__aeabi_dadd+0x48c>
 8001152:	074b      	lsls	r3, r1, #29
 8001154:	08c0      	lsrs	r0, r0, #3
 8001156:	4318      	orrs	r0, r3
 8001158:	2380      	movs	r3, #128	; 0x80
 800115a:	08c9      	lsrs	r1, r1, #3
 800115c:	031b      	lsls	r3, r3, #12
 800115e:	4219      	tst	r1, r3
 8001160:	d007      	beq.n	8001172 <__aeabi_dadd+0x482>
 8001162:	08fc      	lsrs	r4, r7, #3
 8001164:	421c      	tst	r4, r3
 8001166:	d104      	bne.n	8001172 <__aeabi_dadd+0x482>
 8001168:	0779      	lsls	r1, r7, #29
 800116a:	08d0      	lsrs	r0, r2, #3
 800116c:	4308      	orrs	r0, r1
 800116e:	46e1      	mov	r9, ip
 8001170:	0021      	movs	r1, r4
 8001172:	464c      	mov	r4, r9
 8001174:	0f42      	lsrs	r2, r0, #29
 8001176:	00c9      	lsls	r1, r1, #3
 8001178:	4311      	orrs	r1, r2
 800117a:	00c0      	lsls	r0, r0, #3
 800117c:	4d68      	ldr	r5, [pc, #416]	; (8001320 <__aeabi_dadd+0x630>)
 800117e:	e6b9      	b.n	8000ef4 <__aeabi_dadd+0x204>
 8001180:	001d      	movs	r5, r3
 8001182:	2200      	movs	r2, #0
 8001184:	2300      	movs	r3, #0
 8001186:	e6c0      	b.n	8000f0a <__aeabi_dadd+0x21a>
 8001188:	2d00      	cmp	r5, #0
 800118a:	d15b      	bne.n	8001244 <__aeabi_dadd+0x554>
 800118c:	000d      	movs	r5, r1
 800118e:	4305      	orrs	r5, r0
 8001190:	d100      	bne.n	8001194 <__aeabi_dadd+0x4a4>
 8001192:	e6e2      	b.n	8000f5a <__aeabi_dadd+0x26a>
 8001194:	1c5d      	adds	r5, r3, #1
 8001196:	d100      	bne.n	800119a <__aeabi_dadd+0x4aa>
 8001198:	e0b0      	b.n	80012fc <__aeabi_dadd+0x60c>
 800119a:	4d61      	ldr	r5, [pc, #388]	; (8001320 <__aeabi_dadd+0x630>)
 800119c:	42ae      	cmp	r6, r5
 800119e:	d01f      	beq.n	80011e0 <__aeabi_dadd+0x4f0>
 80011a0:	43db      	mvns	r3, r3
 80011a2:	2b38      	cmp	r3, #56	; 0x38
 80011a4:	dc71      	bgt.n	800128a <__aeabi_dadd+0x59a>
 80011a6:	2b1f      	cmp	r3, #31
 80011a8:	dd00      	ble.n	80011ac <__aeabi_dadd+0x4bc>
 80011aa:	e096      	b.n	80012da <__aeabi_dadd+0x5ea>
 80011ac:	2520      	movs	r5, #32
 80011ae:	000f      	movs	r7, r1
 80011b0:	1aed      	subs	r5, r5, r3
 80011b2:	40af      	lsls	r7, r5
 80011b4:	46b9      	mov	r9, r7
 80011b6:	0007      	movs	r7, r0
 80011b8:	46aa      	mov	sl, r5
 80011ba:	40df      	lsrs	r7, r3
 80011bc:	464d      	mov	r5, r9
 80011be:	433d      	orrs	r5, r7
 80011c0:	002f      	movs	r7, r5
 80011c2:	4655      	mov	r5, sl
 80011c4:	40a8      	lsls	r0, r5
 80011c6:	40d9      	lsrs	r1, r3
 80011c8:	1e45      	subs	r5, r0, #1
 80011ca:	41a8      	sbcs	r0, r5
 80011cc:	4488      	add	r8, r1
 80011ce:	4307      	orrs	r7, r0
 80011d0:	18bf      	adds	r7, r7, r2
 80011d2:	4297      	cmp	r7, r2
 80011d4:	4192      	sbcs	r2, r2
 80011d6:	4251      	negs	r1, r2
 80011d8:	4441      	add	r1, r8
 80011da:	0035      	movs	r5, r6
 80011dc:	e63a      	b.n	8000e54 <__aeabi_dadd+0x164>
 80011de:	4664      	mov	r4, ip
 80011e0:	0035      	movs	r5, r6
 80011e2:	4641      	mov	r1, r8
 80011e4:	0010      	movs	r0, r2
 80011e6:	e685      	b.n	8000ef4 <__aeabi_dadd+0x204>
 80011e8:	000b      	movs	r3, r1
 80011ea:	4303      	orrs	r3, r0
 80011ec:	2d00      	cmp	r5, #0
 80011ee:	d000      	beq.n	80011f2 <__aeabi_dadd+0x502>
 80011f0:	e663      	b.n	8000eba <__aeabi_dadd+0x1ca>
 80011f2:	2b00      	cmp	r3, #0
 80011f4:	d0f5      	beq.n	80011e2 <__aeabi_dadd+0x4f2>
 80011f6:	4643      	mov	r3, r8
 80011f8:	4313      	orrs	r3, r2
 80011fa:	d100      	bne.n	80011fe <__aeabi_dadd+0x50e>
 80011fc:	e67a      	b.n	8000ef4 <__aeabi_dadd+0x204>
 80011fe:	1887      	adds	r7, r0, r2
 8001200:	4287      	cmp	r7, r0
 8001202:	4180      	sbcs	r0, r0
 8001204:	2207      	movs	r2, #7
 8001206:	4441      	add	r1, r8
 8001208:	4240      	negs	r0, r0
 800120a:	1809      	adds	r1, r1, r0
 800120c:	403a      	ands	r2, r7
 800120e:	020b      	lsls	r3, r1, #8
 8001210:	d400      	bmi.n	8001214 <__aeabi_dadd+0x524>
 8001212:	e6d5      	b.n	8000fc0 <__aeabi_dadd+0x2d0>
 8001214:	4b43      	ldr	r3, [pc, #268]	; (8001324 <__aeabi_dadd+0x634>)
 8001216:	3501      	adds	r5, #1
 8001218:	4019      	ands	r1, r3
 800121a:	e5c9      	b.n	8000db0 <__aeabi_dadd+0xc0>
 800121c:	0038      	movs	r0, r7
 800121e:	e669      	b.n	8000ef4 <__aeabi_dadd+0x204>
 8001220:	001e      	movs	r6, r3
 8001222:	4647      	mov	r7, r8
 8001224:	3e20      	subs	r6, #32
 8001226:	40f7      	lsrs	r7, r6
 8001228:	46bc      	mov	ip, r7
 800122a:	2b20      	cmp	r3, #32
 800122c:	d004      	beq.n	8001238 <__aeabi_dadd+0x548>
 800122e:	2640      	movs	r6, #64	; 0x40
 8001230:	1af3      	subs	r3, r6, r3
 8001232:	4646      	mov	r6, r8
 8001234:	409e      	lsls	r6, r3
 8001236:	4332      	orrs	r2, r6
 8001238:	0017      	movs	r7, r2
 800123a:	4663      	mov	r3, ip
 800123c:	1e7a      	subs	r2, r7, #1
 800123e:	4197      	sbcs	r7, r2
 8001240:	431f      	orrs	r7, r3
 8001242:	e602      	b.n	8000e4a <__aeabi_dadd+0x15a>
 8001244:	4d36      	ldr	r5, [pc, #216]	; (8001320 <__aeabi_dadd+0x630>)
 8001246:	42ae      	cmp	r6, r5
 8001248:	d0ca      	beq.n	80011e0 <__aeabi_dadd+0x4f0>
 800124a:	2580      	movs	r5, #128	; 0x80
 800124c:	042d      	lsls	r5, r5, #16
 800124e:	425b      	negs	r3, r3
 8001250:	4329      	orrs	r1, r5
 8001252:	e7a6      	b.n	80011a2 <__aeabi_dadd+0x4b2>
 8001254:	4308      	orrs	r0, r1
 8001256:	1e41      	subs	r1, r0, #1
 8001258:	4188      	sbcs	r0, r1
 800125a:	e6a6      	b.n	8000faa <__aeabi_dadd+0x2ba>
 800125c:	2b00      	cmp	r3, #0
 800125e:	d100      	bne.n	8001262 <__aeabi_dadd+0x572>
 8001260:	e648      	b.n	8000ef4 <__aeabi_dadd+0x204>
 8001262:	1a87      	subs	r7, r0, r2
 8001264:	4643      	mov	r3, r8
 8001266:	42b8      	cmp	r0, r7
 8001268:	41b6      	sbcs	r6, r6
 800126a:	1acb      	subs	r3, r1, r3
 800126c:	4276      	negs	r6, r6
 800126e:	1b9e      	subs	r6, r3, r6
 8001270:	0233      	lsls	r3, r6, #8
 8001272:	d54b      	bpl.n	800130c <__aeabi_dadd+0x61c>
 8001274:	1a17      	subs	r7, r2, r0
 8001276:	4643      	mov	r3, r8
 8001278:	42ba      	cmp	r2, r7
 800127a:	4192      	sbcs	r2, r2
 800127c:	1a59      	subs	r1, r3, r1
 800127e:	4252      	negs	r2, r2
 8001280:	1a89      	subs	r1, r1, r2
 8001282:	2207      	movs	r2, #7
 8001284:	4664      	mov	r4, ip
 8001286:	403a      	ands	r2, r7
 8001288:	e592      	b.n	8000db0 <__aeabi_dadd+0xc0>
 800128a:	4301      	orrs	r1, r0
 800128c:	000f      	movs	r7, r1
 800128e:	1e79      	subs	r1, r7, #1
 8001290:	418f      	sbcs	r7, r1
 8001292:	e79d      	b.n	80011d0 <__aeabi_dadd+0x4e0>
 8001294:	001c      	movs	r4, r3
 8001296:	000f      	movs	r7, r1
 8001298:	3c20      	subs	r4, #32
 800129a:	40e7      	lsrs	r7, r4
 800129c:	2b20      	cmp	r3, #32
 800129e:	d003      	beq.n	80012a8 <__aeabi_dadd+0x5b8>
 80012a0:	2440      	movs	r4, #64	; 0x40
 80012a2:	1ae3      	subs	r3, r4, r3
 80012a4:	4099      	lsls	r1, r3
 80012a6:	4308      	orrs	r0, r1
 80012a8:	1e41      	subs	r1, r0, #1
 80012aa:	4188      	sbcs	r0, r1
 80012ac:	4338      	orrs	r0, r7
 80012ae:	e67c      	b.n	8000faa <__aeabi_dadd+0x2ba>
 80012b0:	2200      	movs	r2, #0
 80012b2:	2400      	movs	r4, #0
 80012b4:	e625      	b.n	8000f02 <__aeabi_dadd+0x212>
 80012b6:	1a17      	subs	r7, r2, r0
 80012b8:	4643      	mov	r3, r8
 80012ba:	42ba      	cmp	r2, r7
 80012bc:	4192      	sbcs	r2, r2
 80012be:	1a59      	subs	r1, r3, r1
 80012c0:	4252      	negs	r2, r2
 80012c2:	1a89      	subs	r1, r1, r2
 80012c4:	4664      	mov	r4, ip
 80012c6:	0035      	movs	r5, r6
 80012c8:	e543      	b.n	8000d52 <__aeabi_dadd+0x62>
 80012ca:	4641      	mov	r1, r8
 80012cc:	0010      	movs	r0, r2
 80012ce:	4d14      	ldr	r5, [pc, #80]	; (8001320 <__aeabi_dadd+0x630>)
 80012d0:	e610      	b.n	8000ef4 <__aeabi_dadd+0x204>
 80012d2:	2280      	movs	r2, #128	; 0x80
 80012d4:	2400      	movs	r4, #0
 80012d6:	0312      	lsls	r2, r2, #12
 80012d8:	e680      	b.n	8000fdc <__aeabi_dadd+0x2ec>
 80012da:	001d      	movs	r5, r3
 80012dc:	000f      	movs	r7, r1
 80012de:	3d20      	subs	r5, #32
 80012e0:	40ef      	lsrs	r7, r5
 80012e2:	46bc      	mov	ip, r7
 80012e4:	2b20      	cmp	r3, #32
 80012e6:	d003      	beq.n	80012f0 <__aeabi_dadd+0x600>
 80012e8:	2540      	movs	r5, #64	; 0x40
 80012ea:	1aeb      	subs	r3, r5, r3
 80012ec:	4099      	lsls	r1, r3
 80012ee:	4308      	orrs	r0, r1
 80012f0:	0007      	movs	r7, r0
 80012f2:	4663      	mov	r3, ip
 80012f4:	1e78      	subs	r0, r7, #1
 80012f6:	4187      	sbcs	r7, r0
 80012f8:	431f      	orrs	r7, r3
 80012fa:	e769      	b.n	80011d0 <__aeabi_dadd+0x4e0>
 80012fc:	1887      	adds	r7, r0, r2
 80012fe:	4297      	cmp	r7, r2
 8001300:	419b      	sbcs	r3, r3
 8001302:	4441      	add	r1, r8
 8001304:	425b      	negs	r3, r3
 8001306:	18c9      	adds	r1, r1, r3
 8001308:	0035      	movs	r5, r6
 800130a:	e5a3      	b.n	8000e54 <__aeabi_dadd+0x164>
 800130c:	003b      	movs	r3, r7
 800130e:	4333      	orrs	r3, r6
 8001310:	d0ce      	beq.n	80012b0 <__aeabi_dadd+0x5c0>
 8001312:	2207      	movs	r2, #7
 8001314:	0031      	movs	r1, r6
 8001316:	403a      	ands	r2, r7
 8001318:	e652      	b.n	8000fc0 <__aeabi_dadd+0x2d0>
 800131a:	2300      	movs	r3, #0
 800131c:	001a      	movs	r2, r3
 800131e:	e5f4      	b.n	8000f0a <__aeabi_dadd+0x21a>
 8001320:	000007ff 	.word	0x000007ff
 8001324:	ff7fffff 	.word	0xff7fffff

08001328 <__aeabi_ddiv>:
 8001328:	b5f0      	push	{r4, r5, r6, r7, lr}
 800132a:	4657      	mov	r7, sl
 800132c:	46de      	mov	lr, fp
 800132e:	464e      	mov	r6, r9
 8001330:	4645      	mov	r5, r8
 8001332:	b5e0      	push	{r5, r6, r7, lr}
 8001334:	4683      	mov	fp, r0
 8001336:	0007      	movs	r7, r0
 8001338:	030e      	lsls	r6, r1, #12
 800133a:	0048      	lsls	r0, r1, #1
 800133c:	b085      	sub	sp, #20
 800133e:	4692      	mov	sl, r2
 8001340:	001c      	movs	r4, r3
 8001342:	0b36      	lsrs	r6, r6, #12
 8001344:	0d40      	lsrs	r0, r0, #21
 8001346:	0fcd      	lsrs	r5, r1, #31
 8001348:	2800      	cmp	r0, #0
 800134a:	d100      	bne.n	800134e <__aeabi_ddiv+0x26>
 800134c:	e09d      	b.n	800148a <__aeabi_ddiv+0x162>
 800134e:	4b95      	ldr	r3, [pc, #596]	; (80015a4 <__aeabi_ddiv+0x27c>)
 8001350:	4298      	cmp	r0, r3
 8001352:	d039      	beq.n	80013c8 <__aeabi_ddiv+0xa0>
 8001354:	2380      	movs	r3, #128	; 0x80
 8001356:	00f6      	lsls	r6, r6, #3
 8001358:	041b      	lsls	r3, r3, #16
 800135a:	431e      	orrs	r6, r3
 800135c:	4a92      	ldr	r2, [pc, #584]	; (80015a8 <__aeabi_ddiv+0x280>)
 800135e:	0f7b      	lsrs	r3, r7, #29
 8001360:	4333      	orrs	r3, r6
 8001362:	4699      	mov	r9, r3
 8001364:	4694      	mov	ip, r2
 8001366:	0003      	movs	r3, r0
 8001368:	4463      	add	r3, ip
 800136a:	9300      	str	r3, [sp, #0]
 800136c:	2300      	movs	r3, #0
 800136e:	2600      	movs	r6, #0
 8001370:	00ff      	lsls	r7, r7, #3
 8001372:	9302      	str	r3, [sp, #8]
 8001374:	0323      	lsls	r3, r4, #12
 8001376:	0b1b      	lsrs	r3, r3, #12
 8001378:	4698      	mov	r8, r3
 800137a:	0063      	lsls	r3, r4, #1
 800137c:	0fe4      	lsrs	r4, r4, #31
 800137e:	4652      	mov	r2, sl
 8001380:	0d5b      	lsrs	r3, r3, #21
 8001382:	9401      	str	r4, [sp, #4]
 8001384:	d100      	bne.n	8001388 <__aeabi_ddiv+0x60>
 8001386:	e0b3      	b.n	80014f0 <__aeabi_ddiv+0x1c8>
 8001388:	4986      	ldr	r1, [pc, #536]	; (80015a4 <__aeabi_ddiv+0x27c>)
 800138a:	428b      	cmp	r3, r1
 800138c:	d100      	bne.n	8001390 <__aeabi_ddiv+0x68>
 800138e:	e09e      	b.n	80014ce <__aeabi_ddiv+0x1a6>
 8001390:	4642      	mov	r2, r8
 8001392:	00d1      	lsls	r1, r2, #3
 8001394:	2280      	movs	r2, #128	; 0x80
 8001396:	0412      	lsls	r2, r2, #16
 8001398:	430a      	orrs	r2, r1
 800139a:	4651      	mov	r1, sl
 800139c:	0f49      	lsrs	r1, r1, #29
 800139e:	4311      	orrs	r1, r2
 80013a0:	468b      	mov	fp, r1
 80013a2:	4981      	ldr	r1, [pc, #516]	; (80015a8 <__aeabi_ddiv+0x280>)
 80013a4:	4652      	mov	r2, sl
 80013a6:	468c      	mov	ip, r1
 80013a8:	9900      	ldr	r1, [sp, #0]
 80013aa:	4463      	add	r3, ip
 80013ac:	1acb      	subs	r3, r1, r3
 80013ae:	2100      	movs	r1, #0
 80013b0:	00d2      	lsls	r2, r2, #3
 80013b2:	9300      	str	r3, [sp, #0]
 80013b4:	002b      	movs	r3, r5
 80013b6:	4063      	eors	r3, r4
 80013b8:	469a      	mov	sl, r3
 80013ba:	2e0f      	cmp	r6, #15
 80013bc:	d900      	bls.n	80013c0 <__aeabi_ddiv+0x98>
 80013be:	e105      	b.n	80015cc <__aeabi_ddiv+0x2a4>
 80013c0:	4b7a      	ldr	r3, [pc, #488]	; (80015ac <__aeabi_ddiv+0x284>)
 80013c2:	00b6      	lsls	r6, r6, #2
 80013c4:	599b      	ldr	r3, [r3, r6]
 80013c6:	469f      	mov	pc, r3
 80013c8:	465b      	mov	r3, fp
 80013ca:	4333      	orrs	r3, r6
 80013cc:	4699      	mov	r9, r3
 80013ce:	d000      	beq.n	80013d2 <__aeabi_ddiv+0xaa>
 80013d0:	e0b8      	b.n	8001544 <__aeabi_ddiv+0x21c>
 80013d2:	2302      	movs	r3, #2
 80013d4:	2608      	movs	r6, #8
 80013d6:	2700      	movs	r7, #0
 80013d8:	9000      	str	r0, [sp, #0]
 80013da:	9302      	str	r3, [sp, #8]
 80013dc:	e7ca      	b.n	8001374 <__aeabi_ddiv+0x4c>
 80013de:	46cb      	mov	fp, r9
 80013e0:	003a      	movs	r2, r7
 80013e2:	9902      	ldr	r1, [sp, #8]
 80013e4:	9501      	str	r5, [sp, #4]
 80013e6:	9b01      	ldr	r3, [sp, #4]
 80013e8:	469a      	mov	sl, r3
 80013ea:	2902      	cmp	r1, #2
 80013ec:	d027      	beq.n	800143e <__aeabi_ddiv+0x116>
 80013ee:	2903      	cmp	r1, #3
 80013f0:	d100      	bne.n	80013f4 <__aeabi_ddiv+0xcc>
 80013f2:	e280      	b.n	80018f6 <__aeabi_ddiv+0x5ce>
 80013f4:	2901      	cmp	r1, #1
 80013f6:	d044      	beq.n	8001482 <__aeabi_ddiv+0x15a>
 80013f8:	496d      	ldr	r1, [pc, #436]	; (80015b0 <__aeabi_ddiv+0x288>)
 80013fa:	9b00      	ldr	r3, [sp, #0]
 80013fc:	468c      	mov	ip, r1
 80013fe:	4463      	add	r3, ip
 8001400:	001c      	movs	r4, r3
 8001402:	2c00      	cmp	r4, #0
 8001404:	dd38      	ble.n	8001478 <__aeabi_ddiv+0x150>
 8001406:	0753      	lsls	r3, r2, #29
 8001408:	d000      	beq.n	800140c <__aeabi_ddiv+0xe4>
 800140a:	e213      	b.n	8001834 <__aeabi_ddiv+0x50c>
 800140c:	08d2      	lsrs	r2, r2, #3
 800140e:	465b      	mov	r3, fp
 8001410:	01db      	lsls	r3, r3, #7
 8001412:	d509      	bpl.n	8001428 <__aeabi_ddiv+0x100>
 8001414:	4659      	mov	r1, fp
 8001416:	4b67      	ldr	r3, [pc, #412]	; (80015b4 <__aeabi_ddiv+0x28c>)
 8001418:	4019      	ands	r1, r3
 800141a:	468b      	mov	fp, r1
 800141c:	2180      	movs	r1, #128	; 0x80
 800141e:	00c9      	lsls	r1, r1, #3
 8001420:	468c      	mov	ip, r1
 8001422:	9b00      	ldr	r3, [sp, #0]
 8001424:	4463      	add	r3, ip
 8001426:	001c      	movs	r4, r3
 8001428:	4b63      	ldr	r3, [pc, #396]	; (80015b8 <__aeabi_ddiv+0x290>)
 800142a:	429c      	cmp	r4, r3
 800142c:	dc07      	bgt.n	800143e <__aeabi_ddiv+0x116>
 800142e:	465b      	mov	r3, fp
 8001430:	0564      	lsls	r4, r4, #21
 8001432:	075f      	lsls	r7, r3, #29
 8001434:	025b      	lsls	r3, r3, #9
 8001436:	4317      	orrs	r7, r2
 8001438:	0b1b      	lsrs	r3, r3, #12
 800143a:	0d62      	lsrs	r2, r4, #21
 800143c:	e002      	b.n	8001444 <__aeabi_ddiv+0x11c>
 800143e:	2300      	movs	r3, #0
 8001440:	2700      	movs	r7, #0
 8001442:	4a58      	ldr	r2, [pc, #352]	; (80015a4 <__aeabi_ddiv+0x27c>)
 8001444:	2100      	movs	r1, #0
 8001446:	031b      	lsls	r3, r3, #12
 8001448:	0b1c      	lsrs	r4, r3, #12
 800144a:	0d0b      	lsrs	r3, r1, #20
 800144c:	051b      	lsls	r3, r3, #20
 800144e:	4323      	orrs	r3, r4
 8001450:	0514      	lsls	r4, r2, #20
 8001452:	4a5a      	ldr	r2, [pc, #360]	; (80015bc <__aeabi_ddiv+0x294>)
 8001454:	0038      	movs	r0, r7
 8001456:	4013      	ands	r3, r2
 8001458:	431c      	orrs	r4, r3
 800145a:	4653      	mov	r3, sl
 800145c:	0064      	lsls	r4, r4, #1
 800145e:	07db      	lsls	r3, r3, #31
 8001460:	0864      	lsrs	r4, r4, #1
 8001462:	431c      	orrs	r4, r3
 8001464:	0021      	movs	r1, r4
 8001466:	b005      	add	sp, #20
 8001468:	bc3c      	pop	{r2, r3, r4, r5}
 800146a:	4690      	mov	r8, r2
 800146c:	4699      	mov	r9, r3
 800146e:	46a2      	mov	sl, r4
 8001470:	46ab      	mov	fp, r5
 8001472:	bdf0      	pop	{r4, r5, r6, r7, pc}
 8001474:	2201      	movs	r2, #1
 8001476:	4252      	negs	r2, r2
 8001478:	2301      	movs	r3, #1
 800147a:	1b1b      	subs	r3, r3, r4
 800147c:	2b38      	cmp	r3, #56	; 0x38
 800147e:	dc00      	bgt.n	8001482 <__aeabi_ddiv+0x15a>
 8001480:	e1ad      	b.n	80017de <__aeabi_ddiv+0x4b6>
 8001482:	2200      	movs	r2, #0
 8001484:	2300      	movs	r3, #0
 8001486:	2700      	movs	r7, #0
 8001488:	e7dc      	b.n	8001444 <__aeabi_ddiv+0x11c>
 800148a:	465b      	mov	r3, fp
 800148c:	4333      	orrs	r3, r6
 800148e:	4699      	mov	r9, r3
 8001490:	d05e      	beq.n	8001550 <__aeabi_ddiv+0x228>
 8001492:	2e00      	cmp	r6, #0
 8001494:	d100      	bne.n	8001498 <__aeabi_ddiv+0x170>
 8001496:	e18a      	b.n	80017ae <__aeabi_ddiv+0x486>
 8001498:	0030      	movs	r0, r6
 800149a:	f000 fd7b 	bl	8001f94 <__clzsi2>
 800149e:	0003      	movs	r3, r0
 80014a0:	3b0b      	subs	r3, #11
 80014a2:	2b1c      	cmp	r3, #28
 80014a4:	dd00      	ble.n	80014a8 <__aeabi_ddiv+0x180>
 80014a6:	e17b      	b.n	80017a0 <__aeabi_ddiv+0x478>
 80014a8:	221d      	movs	r2, #29
 80014aa:	1ad3      	subs	r3, r2, r3
 80014ac:	465a      	mov	r2, fp
 80014ae:	0001      	movs	r1, r0
 80014b0:	40da      	lsrs	r2, r3
 80014b2:	3908      	subs	r1, #8
 80014b4:	408e      	lsls	r6, r1
 80014b6:	0013      	movs	r3, r2
 80014b8:	465f      	mov	r7, fp
 80014ba:	4333      	orrs	r3, r6
 80014bc:	4699      	mov	r9, r3
 80014be:	408f      	lsls	r7, r1
 80014c0:	4b3f      	ldr	r3, [pc, #252]	; (80015c0 <__aeabi_ddiv+0x298>)
 80014c2:	2600      	movs	r6, #0
 80014c4:	1a1b      	subs	r3, r3, r0
 80014c6:	9300      	str	r3, [sp, #0]
 80014c8:	2300      	movs	r3, #0
 80014ca:	9302      	str	r3, [sp, #8]
 80014cc:	e752      	b.n	8001374 <__aeabi_ddiv+0x4c>
 80014ce:	4641      	mov	r1, r8
 80014d0:	4653      	mov	r3, sl
 80014d2:	430b      	orrs	r3, r1
 80014d4:	493b      	ldr	r1, [pc, #236]	; (80015c4 <__aeabi_ddiv+0x29c>)
 80014d6:	469b      	mov	fp, r3
 80014d8:	468c      	mov	ip, r1
 80014da:	9b00      	ldr	r3, [sp, #0]
 80014dc:	4463      	add	r3, ip
 80014de:	9300      	str	r3, [sp, #0]
 80014e0:	465b      	mov	r3, fp
 80014e2:	2b00      	cmp	r3, #0
 80014e4:	d13b      	bne.n	800155e <__aeabi_ddiv+0x236>
 80014e6:	2302      	movs	r3, #2
 80014e8:	2200      	movs	r2, #0
 80014ea:	431e      	orrs	r6, r3
 80014ec:	2102      	movs	r1, #2
 80014ee:	e761      	b.n	80013b4 <__aeabi_ddiv+0x8c>
 80014f0:	4643      	mov	r3, r8
 80014f2:	4313      	orrs	r3, r2
 80014f4:	469b      	mov	fp, r3
 80014f6:	d037      	beq.n	8001568 <__aeabi_ddiv+0x240>
 80014f8:	4643      	mov	r3, r8
 80014fa:	2b00      	cmp	r3, #0
 80014fc:	d100      	bne.n	8001500 <__aeabi_ddiv+0x1d8>
 80014fe:	e162      	b.n	80017c6 <__aeabi_ddiv+0x49e>
 8001500:	4640      	mov	r0, r8
 8001502:	f000 fd47 	bl	8001f94 <__clzsi2>
 8001506:	0003      	movs	r3, r0
 8001508:	3b0b      	subs	r3, #11
 800150a:	2b1c      	cmp	r3, #28
 800150c:	dd00      	ble.n	8001510 <__aeabi_ddiv+0x1e8>
 800150e:	e153      	b.n	80017b8 <__aeabi_ddiv+0x490>
 8001510:	0002      	movs	r2, r0
 8001512:	4641      	mov	r1, r8
 8001514:	3a08      	subs	r2, #8
 8001516:	4091      	lsls	r1, r2
 8001518:	4688      	mov	r8, r1
 800151a:	211d      	movs	r1, #29
 800151c:	1acb      	subs	r3, r1, r3
 800151e:	4651      	mov	r1, sl
 8001520:	40d9      	lsrs	r1, r3
 8001522:	000b      	movs	r3, r1
 8001524:	4641      	mov	r1, r8
 8001526:	430b      	orrs	r3, r1
 8001528:	469b      	mov	fp, r3
 800152a:	4653      	mov	r3, sl
 800152c:	4093      	lsls	r3, r2
 800152e:	001a      	movs	r2, r3
 8001530:	9b00      	ldr	r3, [sp, #0]
 8001532:	4925      	ldr	r1, [pc, #148]	; (80015c8 <__aeabi_ddiv+0x2a0>)
 8001534:	469c      	mov	ip, r3
 8001536:	4460      	add	r0, ip
 8001538:	0003      	movs	r3, r0
 800153a:	468c      	mov	ip, r1
 800153c:	4463      	add	r3, ip
 800153e:	9300      	str	r3, [sp, #0]
 8001540:	2100      	movs	r1, #0
 8001542:	e737      	b.n	80013b4 <__aeabi_ddiv+0x8c>
 8001544:	2303      	movs	r3, #3
 8001546:	46b1      	mov	r9, r6
 8001548:	9000      	str	r0, [sp, #0]
 800154a:	260c      	movs	r6, #12
 800154c:	9302      	str	r3, [sp, #8]
 800154e:	e711      	b.n	8001374 <__aeabi_ddiv+0x4c>
 8001550:	2300      	movs	r3, #0
 8001552:	9300      	str	r3, [sp, #0]
 8001554:	3301      	adds	r3, #1
 8001556:	2604      	movs	r6, #4
 8001558:	2700      	movs	r7, #0
 800155a:	9302      	str	r3, [sp, #8]
 800155c:	e70a      	b.n	8001374 <__aeabi_ddiv+0x4c>
 800155e:	2303      	movs	r3, #3
 8001560:	46c3      	mov	fp, r8
 8001562:	431e      	orrs	r6, r3
 8001564:	2103      	movs	r1, #3
 8001566:	e725      	b.n	80013b4 <__aeabi_ddiv+0x8c>
 8001568:	3301      	adds	r3, #1
 800156a:	431e      	orrs	r6, r3
 800156c:	2200      	movs	r2, #0
 800156e:	2101      	movs	r1, #1
 8001570:	e720      	b.n	80013b4 <__aeabi_ddiv+0x8c>
 8001572:	2300      	movs	r3, #0
 8001574:	469a      	mov	sl, r3
 8001576:	2380      	movs	r3, #128	; 0x80
 8001578:	2700      	movs	r7, #0
 800157a:	031b      	lsls	r3, r3, #12
 800157c:	4a09      	ldr	r2, [pc, #36]	; (80015a4 <__aeabi_ddiv+0x27c>)
 800157e:	e761      	b.n	8001444 <__aeabi_ddiv+0x11c>
 8001580:	2380      	movs	r3, #128	; 0x80
 8001582:	4649      	mov	r1, r9
 8001584:	031b      	lsls	r3, r3, #12
 8001586:	4219      	tst	r1, r3
 8001588:	d100      	bne.n	800158c <__aeabi_ddiv+0x264>
 800158a:	e0e2      	b.n	8001752 <__aeabi_ddiv+0x42a>
 800158c:	4659      	mov	r1, fp
 800158e:	4219      	tst	r1, r3
 8001590:	d000      	beq.n	8001594 <__aeabi_ddiv+0x26c>
 8001592:	e0de      	b.n	8001752 <__aeabi_ddiv+0x42a>
 8001594:	430b      	orrs	r3, r1
 8001596:	031b      	lsls	r3, r3, #12
 8001598:	0017      	movs	r7, r2
 800159a:	0b1b      	lsrs	r3, r3, #12
 800159c:	46a2      	mov	sl, r4
 800159e:	4a01      	ldr	r2, [pc, #4]	; (80015a4 <__aeabi_ddiv+0x27c>)
 80015a0:	e750      	b.n	8001444 <__aeabi_ddiv+0x11c>
 80015a2:	46c0      	nop			; (mov r8, r8)
 80015a4:	000007ff 	.word	0x000007ff
 80015a8:	fffffc01 	.word	0xfffffc01
 80015ac:	080050bc 	.word	0x080050bc
 80015b0:	000003ff 	.word	0x000003ff
 80015b4:	feffffff 	.word	0xfeffffff
 80015b8:	000007fe 	.word	0x000007fe
 80015bc:	800fffff 	.word	0x800fffff
 80015c0:	fffffc0d 	.word	0xfffffc0d
 80015c4:	fffff801 	.word	0xfffff801
 80015c8:	000003f3 	.word	0x000003f3
 80015cc:	45d9      	cmp	r9, fp
 80015ce:	d900      	bls.n	80015d2 <__aeabi_ddiv+0x2aa>
 80015d0:	e0cb      	b.n	800176a <__aeabi_ddiv+0x442>
 80015d2:	d100      	bne.n	80015d6 <__aeabi_ddiv+0x2ae>
 80015d4:	e0c6      	b.n	8001764 <__aeabi_ddiv+0x43c>
 80015d6:	003c      	movs	r4, r7
 80015d8:	4648      	mov	r0, r9
 80015da:	2700      	movs	r7, #0
 80015dc:	9b00      	ldr	r3, [sp, #0]
 80015de:	3b01      	subs	r3, #1
 80015e0:	9300      	str	r3, [sp, #0]
 80015e2:	465b      	mov	r3, fp
 80015e4:	0e16      	lsrs	r6, r2, #24
 80015e6:	021b      	lsls	r3, r3, #8
 80015e8:	431e      	orrs	r6, r3
 80015ea:	0213      	lsls	r3, r2, #8
 80015ec:	4698      	mov	r8, r3
 80015ee:	0433      	lsls	r3, r6, #16
 80015f0:	0c1b      	lsrs	r3, r3, #16
 80015f2:	4699      	mov	r9, r3
 80015f4:	0c31      	lsrs	r1, r6, #16
 80015f6:	9101      	str	r1, [sp, #4]
 80015f8:	f7fe fe20 	bl	800023c <__aeabi_uidivmod>
 80015fc:	464a      	mov	r2, r9
 80015fe:	4342      	muls	r2, r0
 8001600:	040b      	lsls	r3, r1, #16
 8001602:	0c21      	lsrs	r1, r4, #16
 8001604:	0005      	movs	r5, r0
 8001606:	4319      	orrs	r1, r3
 8001608:	428a      	cmp	r2, r1
 800160a:	d907      	bls.n	800161c <__aeabi_ddiv+0x2f4>
 800160c:	1989      	adds	r1, r1, r6
 800160e:	3d01      	subs	r5, #1
 8001610:	428e      	cmp	r6, r1
 8001612:	d803      	bhi.n	800161c <__aeabi_ddiv+0x2f4>
 8001614:	428a      	cmp	r2, r1
 8001616:	d901      	bls.n	800161c <__aeabi_ddiv+0x2f4>
 8001618:	1e85      	subs	r5, r0, #2
 800161a:	1989      	adds	r1, r1, r6
 800161c:	1a88      	subs	r0, r1, r2
 800161e:	9901      	ldr	r1, [sp, #4]
 8001620:	f7fe fe0c 	bl	800023c <__aeabi_uidivmod>
 8001624:	0409      	lsls	r1, r1, #16
 8001626:	468c      	mov	ip, r1
 8001628:	464a      	mov	r2, r9
 800162a:	0421      	lsls	r1, r4, #16
 800162c:	4664      	mov	r4, ip
 800162e:	4342      	muls	r2, r0
 8001630:	0c09      	lsrs	r1, r1, #16
 8001632:	0003      	movs	r3, r0
 8001634:	4321      	orrs	r1, r4
 8001636:	428a      	cmp	r2, r1
 8001638:	d904      	bls.n	8001644 <__aeabi_ddiv+0x31c>
 800163a:	1989      	adds	r1, r1, r6
 800163c:	3b01      	subs	r3, #1
 800163e:	428e      	cmp	r6, r1
 8001640:	d800      	bhi.n	8001644 <__aeabi_ddiv+0x31c>
 8001642:	e0f1      	b.n	8001828 <__aeabi_ddiv+0x500>
 8001644:	042d      	lsls	r5, r5, #16
 8001646:	431d      	orrs	r5, r3
 8001648:	46ab      	mov	fp, r5
 800164a:	4643      	mov	r3, r8
 800164c:	1a89      	subs	r1, r1, r2
 800164e:	4642      	mov	r2, r8
 8001650:	0c28      	lsrs	r0, r5, #16
 8001652:	0412      	lsls	r2, r2, #16
 8001654:	0c1d      	lsrs	r5, r3, #16
 8001656:	465b      	mov	r3, fp
 8001658:	0c14      	lsrs	r4, r2, #16
 800165a:	0022      	movs	r2, r4
 800165c:	041b      	lsls	r3, r3, #16
 800165e:	0c1b      	lsrs	r3, r3, #16
 8001660:	435a      	muls	r2, r3
 8001662:	9403      	str	r4, [sp, #12]
 8001664:	436b      	muls	r3, r5
 8001666:	4344      	muls	r4, r0
 8001668:	9502      	str	r5, [sp, #8]
 800166a:	4368      	muls	r0, r5
 800166c:	191b      	adds	r3, r3, r4
 800166e:	0c15      	lsrs	r5, r2, #16
 8001670:	18eb      	adds	r3, r5, r3
 8001672:	429c      	cmp	r4, r3
 8001674:	d903      	bls.n	800167e <__aeabi_ddiv+0x356>
 8001676:	2480      	movs	r4, #128	; 0x80
 8001678:	0264      	lsls	r4, r4, #9
 800167a:	46a4      	mov	ip, r4
 800167c:	4460      	add	r0, ip
 800167e:	0c1c      	lsrs	r4, r3, #16
 8001680:	0415      	lsls	r5, r2, #16
 8001682:	041b      	lsls	r3, r3, #16
 8001684:	0c2d      	lsrs	r5, r5, #16
 8001686:	1820      	adds	r0, r4, r0
 8001688:	195d      	adds	r5, r3, r5
 800168a:	4281      	cmp	r1, r0
 800168c:	d377      	bcc.n	800177e <__aeabi_ddiv+0x456>
 800168e:	d073      	beq.n	8001778 <__aeabi_ddiv+0x450>
 8001690:	1a0c      	subs	r4, r1, r0
 8001692:	4aa2      	ldr	r2, [pc, #648]	; (800191c <__aeabi_ddiv+0x5f4>)
 8001694:	1b7d      	subs	r5, r7, r5
 8001696:	42af      	cmp	r7, r5
 8001698:	41bf      	sbcs	r7, r7
 800169a:	4694      	mov	ip, r2
 800169c:	9b00      	ldr	r3, [sp, #0]
 800169e:	427f      	negs	r7, r7
 80016a0:	4463      	add	r3, ip
 80016a2:	1be0      	subs	r0, r4, r7
 80016a4:	001c      	movs	r4, r3
 80016a6:	4286      	cmp	r6, r0
 80016a8:	d100      	bne.n	80016ac <__aeabi_ddiv+0x384>
 80016aa:	e0db      	b.n	8001864 <__aeabi_ddiv+0x53c>
 80016ac:	9901      	ldr	r1, [sp, #4]
 80016ae:	f7fe fdc5 	bl	800023c <__aeabi_uidivmod>
 80016b2:	464a      	mov	r2, r9
 80016b4:	4342      	muls	r2, r0
 80016b6:	040b      	lsls	r3, r1, #16
 80016b8:	0c29      	lsrs	r1, r5, #16
 80016ba:	0007      	movs	r7, r0
 80016bc:	4319      	orrs	r1, r3
 80016be:	428a      	cmp	r2, r1
 80016c0:	d907      	bls.n	80016d2 <__aeabi_ddiv+0x3aa>
 80016c2:	1989      	adds	r1, r1, r6
 80016c4:	3f01      	subs	r7, #1
 80016c6:	428e      	cmp	r6, r1
 80016c8:	d803      	bhi.n	80016d2 <__aeabi_ddiv+0x3aa>
 80016ca:	428a      	cmp	r2, r1
 80016cc:	d901      	bls.n	80016d2 <__aeabi_ddiv+0x3aa>
 80016ce:	1e87      	subs	r7, r0, #2
 80016d0:	1989      	adds	r1, r1, r6
 80016d2:	1a88      	subs	r0, r1, r2
 80016d4:	9901      	ldr	r1, [sp, #4]
 80016d6:	f7fe fdb1 	bl	800023c <__aeabi_uidivmod>
 80016da:	0409      	lsls	r1, r1, #16
 80016dc:	464a      	mov	r2, r9
 80016de:	4689      	mov	r9, r1
 80016e0:	0429      	lsls	r1, r5, #16
 80016e2:	464d      	mov	r5, r9
 80016e4:	4342      	muls	r2, r0
 80016e6:	0c09      	lsrs	r1, r1, #16
 80016e8:	0003      	movs	r3, r0
 80016ea:	4329      	orrs	r1, r5
 80016ec:	428a      	cmp	r2, r1
 80016ee:	d907      	bls.n	8001700 <__aeabi_ddiv+0x3d8>
 80016f0:	1989      	adds	r1, r1, r6
 80016f2:	3b01      	subs	r3, #1
 80016f4:	428e      	cmp	r6, r1
 80016f6:	d803      	bhi.n	8001700 <__aeabi_ddiv+0x3d8>
 80016f8:	428a      	cmp	r2, r1
 80016fa:	d901      	bls.n	8001700 <__aeabi_ddiv+0x3d8>
 80016fc:	1e83      	subs	r3, r0, #2
 80016fe:	1989      	adds	r1, r1, r6
 8001700:	043f      	lsls	r7, r7, #16
 8001702:	1a89      	subs	r1, r1, r2
 8001704:	003a      	movs	r2, r7
 8001706:	9f03      	ldr	r7, [sp, #12]
 8001708:	431a      	orrs	r2, r3
 800170a:	0038      	movs	r0, r7
 800170c:	0413      	lsls	r3, r2, #16
 800170e:	0c1b      	lsrs	r3, r3, #16
 8001710:	4358      	muls	r0, r3
 8001712:	4681      	mov	r9, r0
 8001714:	9802      	ldr	r0, [sp, #8]
 8001716:	0c15      	lsrs	r5, r2, #16
 8001718:	436f      	muls	r7, r5
 800171a:	4343      	muls	r3, r0
 800171c:	4345      	muls	r5, r0
 800171e:	4648      	mov	r0, r9
 8001720:	0c00      	lsrs	r0, r0, #16
 8001722:	4684      	mov	ip, r0
 8001724:	19db      	adds	r3, r3, r7
 8001726:	4463      	add	r3, ip
 8001728:	429f      	cmp	r7, r3
 800172a:	d903      	bls.n	8001734 <__aeabi_ddiv+0x40c>
 800172c:	2080      	movs	r0, #128	; 0x80
 800172e:	0240      	lsls	r0, r0, #9
 8001730:	4684      	mov	ip, r0
 8001732:	4465      	add	r5, ip
 8001734:	4648      	mov	r0, r9
 8001736:	0c1f      	lsrs	r7, r3, #16
 8001738:	0400      	lsls	r0, r0, #16
 800173a:	041b      	lsls	r3, r3, #16
 800173c:	0c00      	lsrs	r0, r0, #16
 800173e:	197d      	adds	r5, r7, r5
 8001740:	1818      	adds	r0, r3, r0
 8001742:	42a9      	cmp	r1, r5
 8001744:	d200      	bcs.n	8001748 <__aeabi_ddiv+0x420>
 8001746:	e084      	b.n	8001852 <__aeabi_ddiv+0x52a>
 8001748:	d100      	bne.n	800174c <__aeabi_ddiv+0x424>
 800174a:	e07f      	b.n	800184c <__aeabi_ddiv+0x524>
 800174c:	2301      	movs	r3, #1
 800174e:	431a      	orrs	r2, r3
 8001750:	e657      	b.n	8001402 <__aeabi_ddiv+0xda>
 8001752:	2380      	movs	r3, #128	; 0x80
 8001754:	464a      	mov	r2, r9
 8001756:	031b      	lsls	r3, r3, #12
 8001758:	4313      	orrs	r3, r2
 800175a:	031b      	lsls	r3, r3, #12
 800175c:	0b1b      	lsrs	r3, r3, #12
 800175e:	46aa      	mov	sl, r5
 8001760:	4a6f      	ldr	r2, [pc, #444]	; (8001920 <__aeabi_ddiv+0x5f8>)
 8001762:	e66f      	b.n	8001444 <__aeabi_ddiv+0x11c>
 8001764:	42ba      	cmp	r2, r7
 8001766:	d900      	bls.n	800176a <__aeabi_ddiv+0x442>
 8001768:	e735      	b.n	80015d6 <__aeabi_ddiv+0x2ae>
 800176a:	464b      	mov	r3, r9
 800176c:	07dc      	lsls	r4, r3, #31
 800176e:	0858      	lsrs	r0, r3, #1
 8001770:	087b      	lsrs	r3, r7, #1
 8001772:	431c      	orrs	r4, r3
 8001774:	07ff      	lsls	r7, r7, #31
 8001776:	e734      	b.n	80015e2 <__aeabi_ddiv+0x2ba>
 8001778:	2400      	movs	r4, #0
 800177a:	42af      	cmp	r7, r5
 800177c:	d289      	bcs.n	8001692 <__aeabi_ddiv+0x36a>
 800177e:	4447      	add	r7, r8
 8001780:	4547      	cmp	r7, r8
 8001782:	41a4      	sbcs	r4, r4
 8001784:	465b      	mov	r3, fp
 8001786:	4264      	negs	r4, r4
 8001788:	19a4      	adds	r4, r4, r6
 800178a:	1864      	adds	r4, r4, r1
 800178c:	3b01      	subs	r3, #1
 800178e:	42a6      	cmp	r6, r4
 8001790:	d21e      	bcs.n	80017d0 <__aeabi_ddiv+0x4a8>
 8001792:	42a0      	cmp	r0, r4
 8001794:	d86d      	bhi.n	8001872 <__aeabi_ddiv+0x54a>
 8001796:	d100      	bne.n	800179a <__aeabi_ddiv+0x472>
 8001798:	e0b6      	b.n	8001908 <__aeabi_ddiv+0x5e0>
 800179a:	1a24      	subs	r4, r4, r0
 800179c:	469b      	mov	fp, r3
 800179e:	e778      	b.n	8001692 <__aeabi_ddiv+0x36a>
 80017a0:	0003      	movs	r3, r0
 80017a2:	465a      	mov	r2, fp
 80017a4:	3b28      	subs	r3, #40	; 0x28
 80017a6:	409a      	lsls	r2, r3
 80017a8:	2700      	movs	r7, #0
 80017aa:	4691      	mov	r9, r2
 80017ac:	e688      	b.n	80014c0 <__aeabi_ddiv+0x198>
 80017ae:	4658      	mov	r0, fp
 80017b0:	f000 fbf0 	bl	8001f94 <__clzsi2>
 80017b4:	3020      	adds	r0, #32
 80017b6:	e672      	b.n	800149e <__aeabi_ddiv+0x176>
 80017b8:	0003      	movs	r3, r0
 80017ba:	4652      	mov	r2, sl
 80017bc:	3b28      	subs	r3, #40	; 0x28
 80017be:	409a      	lsls	r2, r3
 80017c0:	4693      	mov	fp, r2
 80017c2:	2200      	movs	r2, #0
 80017c4:	e6b4      	b.n	8001530 <__aeabi_ddiv+0x208>
 80017c6:	4650      	mov	r0, sl
 80017c8:	f000 fbe4 	bl	8001f94 <__clzsi2>
 80017cc:	3020      	adds	r0, #32
 80017ce:	e69a      	b.n	8001506 <__aeabi_ddiv+0x1de>
 80017d0:	42a6      	cmp	r6, r4
 80017d2:	d1e2      	bne.n	800179a <__aeabi_ddiv+0x472>
 80017d4:	45b8      	cmp	r8, r7
 80017d6:	d9dc      	bls.n	8001792 <__aeabi_ddiv+0x46a>
 80017d8:	1a34      	subs	r4, r6, r0
 80017da:	469b      	mov	fp, r3
 80017dc:	e759      	b.n	8001692 <__aeabi_ddiv+0x36a>
 80017de:	2b1f      	cmp	r3, #31
 80017e0:	dc65      	bgt.n	80018ae <__aeabi_ddiv+0x586>
 80017e2:	4c50      	ldr	r4, [pc, #320]	; (8001924 <__aeabi_ddiv+0x5fc>)
 80017e4:	9900      	ldr	r1, [sp, #0]
 80017e6:	46a4      	mov	ip, r4
 80017e8:	465c      	mov	r4, fp
 80017ea:	4461      	add	r1, ip
 80017ec:	0008      	movs	r0, r1
 80017ee:	408c      	lsls	r4, r1
 80017f0:	0011      	movs	r1, r2
 80017f2:	4082      	lsls	r2, r0
 80017f4:	40d9      	lsrs	r1, r3
 80017f6:	1e50      	subs	r0, r2, #1
 80017f8:	4182      	sbcs	r2, r0
 80017fa:	430c      	orrs	r4, r1
 80017fc:	4314      	orrs	r4, r2
 80017fe:	465a      	mov	r2, fp
 8001800:	40da      	lsrs	r2, r3
 8001802:	0013      	movs	r3, r2
 8001804:	0762      	lsls	r2, r4, #29
 8001806:	d009      	beq.n	800181c <__aeabi_ddiv+0x4f4>
 8001808:	220f      	movs	r2, #15
 800180a:	4022      	ands	r2, r4
 800180c:	2a04      	cmp	r2, #4
 800180e:	d005      	beq.n	800181c <__aeabi_ddiv+0x4f4>
 8001810:	0022      	movs	r2, r4
 8001812:	1d14      	adds	r4, r2, #4
 8001814:	4294      	cmp	r4, r2
 8001816:	4189      	sbcs	r1, r1
 8001818:	4249      	negs	r1, r1
 800181a:	185b      	adds	r3, r3, r1
 800181c:	021a      	lsls	r2, r3, #8
 800181e:	d562      	bpl.n	80018e6 <__aeabi_ddiv+0x5be>
 8001820:	2201      	movs	r2, #1
 8001822:	2300      	movs	r3, #0
 8001824:	2700      	movs	r7, #0
 8001826:	e60d      	b.n	8001444 <__aeabi_ddiv+0x11c>
 8001828:	428a      	cmp	r2, r1
 800182a:	d800      	bhi.n	800182e <__aeabi_ddiv+0x506>
 800182c:	e70a      	b.n	8001644 <__aeabi_ddiv+0x31c>
 800182e:	1e83      	subs	r3, r0, #2
 8001830:	1989      	adds	r1, r1, r6
 8001832:	e707      	b.n	8001644 <__aeabi_ddiv+0x31c>
 8001834:	230f      	movs	r3, #15
 8001836:	4013      	ands	r3, r2
 8001838:	2b04      	cmp	r3, #4
 800183a:	d100      	bne.n	800183e <__aeabi_ddiv+0x516>
 800183c:	e5e6      	b.n	800140c <__aeabi_ddiv+0xe4>
 800183e:	1d17      	adds	r7, r2, #4
 8001840:	4297      	cmp	r7, r2
 8001842:	4192      	sbcs	r2, r2
 8001844:	4253      	negs	r3, r2
 8001846:	449b      	add	fp, r3
 8001848:	08fa      	lsrs	r2, r7, #3
 800184a:	e5e0      	b.n	800140e <__aeabi_ddiv+0xe6>
 800184c:	2800      	cmp	r0, #0
 800184e:	d100      	bne.n	8001852 <__aeabi_ddiv+0x52a>
 8001850:	e5d7      	b.n	8001402 <__aeabi_ddiv+0xda>
 8001852:	1871      	adds	r1, r6, r1
 8001854:	1e53      	subs	r3, r2, #1
 8001856:	42b1      	cmp	r1, r6
 8001858:	d327      	bcc.n	80018aa <__aeabi_ddiv+0x582>
 800185a:	42a9      	cmp	r1, r5
 800185c:	d315      	bcc.n	800188a <__aeabi_ddiv+0x562>
 800185e:	d058      	beq.n	8001912 <__aeabi_ddiv+0x5ea>
 8001860:	001a      	movs	r2, r3
 8001862:	e773      	b.n	800174c <__aeabi_ddiv+0x424>
 8001864:	2b00      	cmp	r3, #0
 8001866:	dc00      	bgt.n	800186a <__aeabi_ddiv+0x542>
 8001868:	e604      	b.n	8001474 <__aeabi_ddiv+0x14c>
 800186a:	2301      	movs	r3, #1
 800186c:	2200      	movs	r2, #0
 800186e:	449b      	add	fp, r3
 8001870:	e5cd      	b.n	800140e <__aeabi_ddiv+0xe6>
 8001872:	2302      	movs	r3, #2
 8001874:	4447      	add	r7, r8
 8001876:	4547      	cmp	r7, r8
 8001878:	4189      	sbcs	r1, r1
 800187a:	425b      	negs	r3, r3
 800187c:	469c      	mov	ip, r3
 800187e:	4249      	negs	r1, r1
 8001880:	1989      	adds	r1, r1, r6
 8001882:	190c      	adds	r4, r1, r4
 8001884:	44e3      	add	fp, ip
 8001886:	1a24      	subs	r4, r4, r0
 8001888:	e703      	b.n	8001692 <__aeabi_ddiv+0x36a>
 800188a:	4643      	mov	r3, r8
 800188c:	005f      	lsls	r7, r3, #1
 800188e:	4547      	cmp	r7, r8
 8001890:	419b      	sbcs	r3, r3
 8001892:	46b8      	mov	r8, r7
 8001894:	425b      	negs	r3, r3
 8001896:	199e      	adds	r6, r3, r6
 8001898:	3a02      	subs	r2, #2
 800189a:	1989      	adds	r1, r1, r6
 800189c:	42a9      	cmp	r1, r5
 800189e:	d000      	beq.n	80018a2 <__aeabi_ddiv+0x57a>
 80018a0:	e754      	b.n	800174c <__aeabi_ddiv+0x424>
 80018a2:	4540      	cmp	r0, r8
 80018a4:	d000      	beq.n	80018a8 <__aeabi_ddiv+0x580>
 80018a6:	e751      	b.n	800174c <__aeabi_ddiv+0x424>
 80018a8:	e5ab      	b.n	8001402 <__aeabi_ddiv+0xda>
 80018aa:	001a      	movs	r2, r3
 80018ac:	e7f6      	b.n	800189c <__aeabi_ddiv+0x574>
 80018ae:	211f      	movs	r1, #31
 80018b0:	465f      	mov	r7, fp
 80018b2:	4249      	negs	r1, r1
 80018b4:	1b0c      	subs	r4, r1, r4
 80018b6:	40e7      	lsrs	r7, r4
 80018b8:	2b20      	cmp	r3, #32
 80018ba:	d007      	beq.n	80018cc <__aeabi_ddiv+0x5a4>
 80018bc:	491a      	ldr	r1, [pc, #104]	; (8001928 <__aeabi_ddiv+0x600>)
 80018be:	9b00      	ldr	r3, [sp, #0]
 80018c0:	468c      	mov	ip, r1
 80018c2:	4463      	add	r3, ip
 80018c4:	0018      	movs	r0, r3
 80018c6:	465b      	mov	r3, fp
 80018c8:	4083      	lsls	r3, r0
 80018ca:	431a      	orrs	r2, r3
 80018cc:	1e50      	subs	r0, r2, #1
 80018ce:	4182      	sbcs	r2, r0
 80018d0:	433a      	orrs	r2, r7
 80018d2:	2707      	movs	r7, #7
 80018d4:	2300      	movs	r3, #0
 80018d6:	4017      	ands	r7, r2
 80018d8:	d009      	beq.n	80018ee <__aeabi_ddiv+0x5c6>
 80018da:	210f      	movs	r1, #15
 80018dc:	2300      	movs	r3, #0
 80018de:	4011      	ands	r1, r2
 80018e0:	0014      	movs	r4, r2
 80018e2:	2904      	cmp	r1, #4
 80018e4:	d195      	bne.n	8001812 <__aeabi_ddiv+0x4ea>
 80018e6:	0022      	movs	r2, r4
 80018e8:	075f      	lsls	r7, r3, #29
 80018ea:	025b      	lsls	r3, r3, #9
 80018ec:	0b1b      	lsrs	r3, r3, #12
 80018ee:	08d2      	lsrs	r2, r2, #3
 80018f0:	4317      	orrs	r7, r2
 80018f2:	2200      	movs	r2, #0
 80018f4:	e5a6      	b.n	8001444 <__aeabi_ddiv+0x11c>
 80018f6:	2380      	movs	r3, #128	; 0x80
 80018f8:	4659      	mov	r1, fp
 80018fa:	031b      	lsls	r3, r3, #12
 80018fc:	430b      	orrs	r3, r1
 80018fe:	031b      	lsls	r3, r3, #12
 8001900:	0017      	movs	r7, r2
 8001902:	0b1b      	lsrs	r3, r3, #12
 8001904:	4a06      	ldr	r2, [pc, #24]	; (8001920 <__aeabi_ddiv+0x5f8>)
 8001906:	e59d      	b.n	8001444 <__aeabi_ddiv+0x11c>
 8001908:	42bd      	cmp	r5, r7
 800190a:	d8b2      	bhi.n	8001872 <__aeabi_ddiv+0x54a>
 800190c:	469b      	mov	fp, r3
 800190e:	2400      	movs	r4, #0
 8001910:	e6bf      	b.n	8001692 <__aeabi_ddiv+0x36a>
 8001912:	4580      	cmp	r8, r0
 8001914:	d3b9      	bcc.n	800188a <__aeabi_ddiv+0x562>
 8001916:	001a      	movs	r2, r3
 8001918:	e7c3      	b.n	80018a2 <__aeabi_ddiv+0x57a>
 800191a:	46c0      	nop			; (mov r8, r8)
 800191c:	000003ff 	.word	0x000003ff
 8001920:	000007ff 	.word	0x000007ff
 8001924:	0000041e 	.word	0x0000041e
 8001928:	0000043e 	.word	0x0000043e

0800192c <__aeabi_dmul>:
 800192c:	b5f0      	push	{r4, r5, r6, r7, lr}
 800192e:	4657      	mov	r7, sl
 8001930:	46de      	mov	lr, fp
 8001932:	464e      	mov	r6, r9
 8001934:	4645      	mov	r5, r8
 8001936:	b5e0      	push	{r5, r6, r7, lr}
 8001938:	4683      	mov	fp, r0
 800193a:	0006      	movs	r6, r0
 800193c:	030f      	lsls	r7, r1, #12
 800193e:	0048      	lsls	r0, r1, #1
 8001940:	b087      	sub	sp, #28
 8001942:	4692      	mov	sl, r2
 8001944:	001d      	movs	r5, r3
 8001946:	0b3f      	lsrs	r7, r7, #12
 8001948:	0d40      	lsrs	r0, r0, #21
 800194a:	0fcc      	lsrs	r4, r1, #31
 800194c:	2800      	cmp	r0, #0
 800194e:	d100      	bne.n	8001952 <__aeabi_dmul+0x26>
 8001950:	e06f      	b.n	8001a32 <__aeabi_dmul+0x106>
 8001952:	4bde      	ldr	r3, [pc, #888]	; (8001ccc <__aeabi_dmul+0x3a0>)
 8001954:	4298      	cmp	r0, r3
 8001956:	d038      	beq.n	80019ca <__aeabi_dmul+0x9e>
 8001958:	2380      	movs	r3, #128	; 0x80
 800195a:	00ff      	lsls	r7, r7, #3
 800195c:	041b      	lsls	r3, r3, #16
 800195e:	431f      	orrs	r7, r3
 8001960:	0f73      	lsrs	r3, r6, #29
 8001962:	433b      	orrs	r3, r7
 8001964:	9301      	str	r3, [sp, #4]
 8001966:	4bda      	ldr	r3, [pc, #872]	; (8001cd0 <__aeabi_dmul+0x3a4>)
 8001968:	2700      	movs	r7, #0
 800196a:	4699      	mov	r9, r3
 800196c:	2300      	movs	r3, #0
 800196e:	469b      	mov	fp, r3
 8001970:	00f6      	lsls	r6, r6, #3
 8001972:	4481      	add	r9, r0
 8001974:	032b      	lsls	r3, r5, #12
 8001976:	0069      	lsls	r1, r5, #1
 8001978:	0b1b      	lsrs	r3, r3, #12
 800197a:	4652      	mov	r2, sl
 800197c:	4698      	mov	r8, r3
 800197e:	0d49      	lsrs	r1, r1, #21
 8001980:	0fed      	lsrs	r5, r5, #31
 8001982:	2900      	cmp	r1, #0
 8001984:	d100      	bne.n	8001988 <__aeabi_dmul+0x5c>
 8001986:	e085      	b.n	8001a94 <__aeabi_dmul+0x168>
 8001988:	4bd0      	ldr	r3, [pc, #832]	; (8001ccc <__aeabi_dmul+0x3a0>)
 800198a:	4299      	cmp	r1, r3
 800198c:	d100      	bne.n	8001990 <__aeabi_dmul+0x64>
 800198e:	e073      	b.n	8001a78 <__aeabi_dmul+0x14c>
 8001990:	4643      	mov	r3, r8
 8001992:	00da      	lsls	r2, r3, #3
 8001994:	2380      	movs	r3, #128	; 0x80
 8001996:	041b      	lsls	r3, r3, #16
 8001998:	4313      	orrs	r3, r2
 800199a:	4652      	mov	r2, sl
 800199c:	48cc      	ldr	r0, [pc, #816]	; (8001cd0 <__aeabi_dmul+0x3a4>)
 800199e:	0f52      	lsrs	r2, r2, #29
 80019a0:	4684      	mov	ip, r0
 80019a2:	4313      	orrs	r3, r2
 80019a4:	4652      	mov	r2, sl
 80019a6:	2000      	movs	r0, #0
 80019a8:	4461      	add	r1, ip
 80019aa:	00d2      	lsls	r2, r2, #3
 80019ac:	4489      	add	r9, r1
 80019ae:	0021      	movs	r1, r4
 80019b0:	4069      	eors	r1, r5
 80019b2:	9100      	str	r1, [sp, #0]
 80019b4:	468c      	mov	ip, r1
 80019b6:	2101      	movs	r1, #1
 80019b8:	4449      	add	r1, r9
 80019ba:	468a      	mov	sl, r1
 80019bc:	2f0f      	cmp	r7, #15
 80019be:	d900      	bls.n	80019c2 <__aeabi_dmul+0x96>
 80019c0:	e090      	b.n	8001ae4 <__aeabi_dmul+0x1b8>
 80019c2:	49c4      	ldr	r1, [pc, #784]	; (8001cd4 <__aeabi_dmul+0x3a8>)
 80019c4:	00bf      	lsls	r7, r7, #2
 80019c6:	59cf      	ldr	r7, [r1, r7]
 80019c8:	46bf      	mov	pc, r7
 80019ca:	465b      	mov	r3, fp
 80019cc:	433b      	orrs	r3, r7
 80019ce:	9301      	str	r3, [sp, #4]
 80019d0:	d000      	beq.n	80019d4 <__aeabi_dmul+0xa8>
 80019d2:	e16a      	b.n	8001caa <__aeabi_dmul+0x37e>
 80019d4:	2302      	movs	r3, #2
 80019d6:	2708      	movs	r7, #8
 80019d8:	2600      	movs	r6, #0
 80019da:	4681      	mov	r9, r0
 80019dc:	469b      	mov	fp, r3
 80019de:	e7c9      	b.n	8001974 <__aeabi_dmul+0x48>
 80019e0:	0032      	movs	r2, r6
 80019e2:	4658      	mov	r0, fp
 80019e4:	9b01      	ldr	r3, [sp, #4]
 80019e6:	4661      	mov	r1, ip
 80019e8:	9100      	str	r1, [sp, #0]
 80019ea:	2802      	cmp	r0, #2
 80019ec:	d100      	bne.n	80019f0 <__aeabi_dmul+0xc4>
 80019ee:	e075      	b.n	8001adc <__aeabi_dmul+0x1b0>
 80019f0:	2803      	cmp	r0, #3
 80019f2:	d100      	bne.n	80019f6 <__aeabi_dmul+0xca>
 80019f4:	e1fe      	b.n	8001df4 <__aeabi_dmul+0x4c8>
 80019f6:	2801      	cmp	r0, #1
 80019f8:	d000      	beq.n	80019fc <__aeabi_dmul+0xd0>
 80019fa:	e12c      	b.n	8001c56 <__aeabi_dmul+0x32a>
 80019fc:	2300      	movs	r3, #0
 80019fe:	2700      	movs	r7, #0
 8001a00:	2600      	movs	r6, #0
 8001a02:	2500      	movs	r5, #0
 8001a04:	033f      	lsls	r7, r7, #12
 8001a06:	0d2a      	lsrs	r2, r5, #20
 8001a08:	0b3f      	lsrs	r7, r7, #12
 8001a0a:	48b3      	ldr	r0, [pc, #716]	; (8001cd8 <__aeabi_dmul+0x3ac>)
 8001a0c:	0512      	lsls	r2, r2, #20
 8001a0e:	433a      	orrs	r2, r7
 8001a10:	4002      	ands	r2, r0
 8001a12:	051b      	lsls	r3, r3, #20
 8001a14:	4313      	orrs	r3, r2
 8001a16:	9a00      	ldr	r2, [sp, #0]
 8001a18:	005b      	lsls	r3, r3, #1
 8001a1a:	07d1      	lsls	r1, r2, #31
 8001a1c:	085b      	lsrs	r3, r3, #1
 8001a1e:	430b      	orrs	r3, r1
 8001a20:	0030      	movs	r0, r6
 8001a22:	0019      	movs	r1, r3
 8001a24:	b007      	add	sp, #28
 8001a26:	bc3c      	pop	{r2, r3, r4, r5}
 8001a28:	4690      	mov	r8, r2
 8001a2a:	4699      	mov	r9, r3
 8001a2c:	46a2      	mov	sl, r4
 8001a2e:	46ab      	mov	fp, r5
 8001a30:	bdf0      	pop	{r4, r5, r6, r7, pc}
 8001a32:	465b      	mov	r3, fp
 8001a34:	433b      	orrs	r3, r7
 8001a36:	9301      	str	r3, [sp, #4]
 8001a38:	d100      	bne.n	8001a3c <__aeabi_dmul+0x110>
 8001a3a:	e12f      	b.n	8001c9c <__aeabi_dmul+0x370>
 8001a3c:	2f00      	cmp	r7, #0
 8001a3e:	d100      	bne.n	8001a42 <__aeabi_dmul+0x116>
 8001a40:	e1a5      	b.n	8001d8e <__aeabi_dmul+0x462>
 8001a42:	0038      	movs	r0, r7
 8001a44:	f000 faa6 	bl	8001f94 <__clzsi2>
 8001a48:	0003      	movs	r3, r0
 8001a4a:	3b0b      	subs	r3, #11
 8001a4c:	2b1c      	cmp	r3, #28
 8001a4e:	dd00      	ble.n	8001a52 <__aeabi_dmul+0x126>
 8001a50:	e196      	b.n	8001d80 <__aeabi_dmul+0x454>
 8001a52:	221d      	movs	r2, #29
 8001a54:	1ad3      	subs	r3, r2, r3
 8001a56:	465a      	mov	r2, fp
 8001a58:	0001      	movs	r1, r0
 8001a5a:	40da      	lsrs	r2, r3
 8001a5c:	465e      	mov	r6, fp
 8001a5e:	3908      	subs	r1, #8
 8001a60:	408f      	lsls	r7, r1
 8001a62:	0013      	movs	r3, r2
 8001a64:	408e      	lsls	r6, r1
 8001a66:	433b      	orrs	r3, r7
 8001a68:	9301      	str	r3, [sp, #4]
 8001a6a:	4b9c      	ldr	r3, [pc, #624]	; (8001cdc <__aeabi_dmul+0x3b0>)
 8001a6c:	2700      	movs	r7, #0
 8001a6e:	1a1b      	subs	r3, r3, r0
 8001a70:	4699      	mov	r9, r3
 8001a72:	2300      	movs	r3, #0
 8001a74:	469b      	mov	fp, r3
 8001a76:	e77d      	b.n	8001974 <__aeabi_dmul+0x48>
 8001a78:	4641      	mov	r1, r8
 8001a7a:	4653      	mov	r3, sl
 8001a7c:	430b      	orrs	r3, r1
 8001a7e:	4993      	ldr	r1, [pc, #588]	; (8001ccc <__aeabi_dmul+0x3a0>)
 8001a80:	468c      	mov	ip, r1
 8001a82:	44e1      	add	r9, ip
 8001a84:	2b00      	cmp	r3, #0
 8001a86:	d000      	beq.n	8001a8a <__aeabi_dmul+0x15e>
 8001a88:	e11a      	b.n	8001cc0 <__aeabi_dmul+0x394>
 8001a8a:	2202      	movs	r2, #2
 8001a8c:	2002      	movs	r0, #2
 8001a8e:	4317      	orrs	r7, r2
 8001a90:	2200      	movs	r2, #0
 8001a92:	e78c      	b.n	80019ae <__aeabi_dmul+0x82>
 8001a94:	4313      	orrs	r3, r2
 8001a96:	d100      	bne.n	8001a9a <__aeabi_dmul+0x16e>
 8001a98:	e10d      	b.n	8001cb6 <__aeabi_dmul+0x38a>
 8001a9a:	4643      	mov	r3, r8
 8001a9c:	2b00      	cmp	r3, #0
 8001a9e:	d100      	bne.n	8001aa2 <__aeabi_dmul+0x176>
 8001aa0:	e181      	b.n	8001da6 <__aeabi_dmul+0x47a>
 8001aa2:	4640      	mov	r0, r8
 8001aa4:	f000 fa76 	bl	8001f94 <__clzsi2>
 8001aa8:	0002      	movs	r2, r0
 8001aaa:	3a0b      	subs	r2, #11
 8001aac:	2a1c      	cmp	r2, #28
 8001aae:	dd00      	ble.n	8001ab2 <__aeabi_dmul+0x186>
 8001ab0:	e172      	b.n	8001d98 <__aeabi_dmul+0x46c>
 8001ab2:	0001      	movs	r1, r0
 8001ab4:	4643      	mov	r3, r8
 8001ab6:	3908      	subs	r1, #8
 8001ab8:	408b      	lsls	r3, r1
 8001aba:	4698      	mov	r8, r3
 8001abc:	231d      	movs	r3, #29
 8001abe:	1a9a      	subs	r2, r3, r2
 8001ac0:	4653      	mov	r3, sl
 8001ac2:	40d3      	lsrs	r3, r2
 8001ac4:	001a      	movs	r2, r3
 8001ac6:	4643      	mov	r3, r8
 8001ac8:	4313      	orrs	r3, r2
 8001aca:	4652      	mov	r2, sl
 8001acc:	408a      	lsls	r2, r1
 8001ace:	4649      	mov	r1, r9
 8001ad0:	1a08      	subs	r0, r1, r0
 8001ad2:	4982      	ldr	r1, [pc, #520]	; (8001cdc <__aeabi_dmul+0x3b0>)
 8001ad4:	4689      	mov	r9, r1
 8001ad6:	4481      	add	r9, r0
 8001ad8:	2000      	movs	r0, #0
 8001ada:	e768      	b.n	80019ae <__aeabi_dmul+0x82>
 8001adc:	4b7b      	ldr	r3, [pc, #492]	; (8001ccc <__aeabi_dmul+0x3a0>)
 8001ade:	2700      	movs	r7, #0
 8001ae0:	2600      	movs	r6, #0
 8001ae2:	e78e      	b.n	8001a02 <__aeabi_dmul+0xd6>
 8001ae4:	0c14      	lsrs	r4, r2, #16
 8001ae6:	0412      	lsls	r2, r2, #16
 8001ae8:	0c12      	lsrs	r2, r2, #16
 8001aea:	0011      	movs	r1, r2
 8001aec:	0c37      	lsrs	r7, r6, #16
 8001aee:	0436      	lsls	r6, r6, #16
 8001af0:	0c35      	lsrs	r5, r6, #16
 8001af2:	4379      	muls	r1, r7
 8001af4:	0028      	movs	r0, r5
 8001af6:	468c      	mov	ip, r1
 8001af8:	002e      	movs	r6, r5
 8001afa:	4360      	muls	r0, r4
 8001afc:	4460      	add	r0, ip
 8001afe:	4683      	mov	fp, r0
 8001b00:	4356      	muls	r6, r2
 8001b02:	0021      	movs	r1, r4
 8001b04:	0c30      	lsrs	r0, r6, #16
 8001b06:	4680      	mov	r8, r0
 8001b08:	4658      	mov	r0, fp
 8001b0a:	4379      	muls	r1, r7
 8001b0c:	4440      	add	r0, r8
 8001b0e:	9102      	str	r1, [sp, #8]
 8001b10:	4584      	cmp	ip, r0
 8001b12:	d906      	bls.n	8001b22 <__aeabi_dmul+0x1f6>
 8001b14:	4688      	mov	r8, r1
 8001b16:	2180      	movs	r1, #128	; 0x80
 8001b18:	0249      	lsls	r1, r1, #9
 8001b1a:	468c      	mov	ip, r1
 8001b1c:	44e0      	add	r8, ip
 8001b1e:	4641      	mov	r1, r8
 8001b20:	9102      	str	r1, [sp, #8]
 8001b22:	0436      	lsls	r6, r6, #16
 8001b24:	0c01      	lsrs	r1, r0, #16
 8001b26:	0c36      	lsrs	r6, r6, #16
 8001b28:	0400      	lsls	r0, r0, #16
 8001b2a:	468b      	mov	fp, r1
 8001b2c:	1981      	adds	r1, r0, r6
 8001b2e:	0c1e      	lsrs	r6, r3, #16
 8001b30:	041b      	lsls	r3, r3, #16
 8001b32:	0c1b      	lsrs	r3, r3, #16
 8001b34:	9103      	str	r1, [sp, #12]
 8001b36:	0019      	movs	r1, r3
 8001b38:	4379      	muls	r1, r7
 8001b3a:	468c      	mov	ip, r1
 8001b3c:	0028      	movs	r0, r5
 8001b3e:	4375      	muls	r5, r6
 8001b40:	4465      	add	r5, ip
 8001b42:	46a8      	mov	r8, r5
 8001b44:	4358      	muls	r0, r3
 8001b46:	0c05      	lsrs	r5, r0, #16
 8001b48:	4445      	add	r5, r8
 8001b4a:	4377      	muls	r7, r6
 8001b4c:	42a9      	cmp	r1, r5
 8001b4e:	d903      	bls.n	8001b58 <__aeabi_dmul+0x22c>
 8001b50:	2180      	movs	r1, #128	; 0x80
 8001b52:	0249      	lsls	r1, r1, #9
 8001b54:	468c      	mov	ip, r1
 8001b56:	4467      	add	r7, ip
 8001b58:	0c29      	lsrs	r1, r5, #16
 8001b5a:	468c      	mov	ip, r1
 8001b5c:	0039      	movs	r1, r7
 8001b5e:	0400      	lsls	r0, r0, #16
 8001b60:	0c00      	lsrs	r0, r0, #16
 8001b62:	042d      	lsls	r5, r5, #16
 8001b64:	182d      	adds	r5, r5, r0
 8001b66:	4461      	add	r1, ip
 8001b68:	44ab      	add	fp, r5
 8001b6a:	9105      	str	r1, [sp, #20]
 8001b6c:	4659      	mov	r1, fp
 8001b6e:	9104      	str	r1, [sp, #16]
 8001b70:	9901      	ldr	r1, [sp, #4]
 8001b72:	040f      	lsls	r7, r1, #16
 8001b74:	0c3f      	lsrs	r7, r7, #16
 8001b76:	0c08      	lsrs	r0, r1, #16
 8001b78:	0039      	movs	r1, r7
 8001b7a:	4351      	muls	r1, r2
 8001b7c:	4342      	muls	r2, r0
 8001b7e:	4690      	mov	r8, r2
 8001b80:	0002      	movs	r2, r0
 8001b82:	468c      	mov	ip, r1
 8001b84:	0c09      	lsrs	r1, r1, #16
 8001b86:	468b      	mov	fp, r1
 8001b88:	4362      	muls	r2, r4
 8001b8a:	437c      	muls	r4, r7
 8001b8c:	4444      	add	r4, r8
 8001b8e:	445c      	add	r4, fp
 8001b90:	45a0      	cmp	r8, r4
 8001b92:	d903      	bls.n	8001b9c <__aeabi_dmul+0x270>
 8001b94:	2180      	movs	r1, #128	; 0x80
 8001b96:	0249      	lsls	r1, r1, #9
 8001b98:	4688      	mov	r8, r1
 8001b9a:	4442      	add	r2, r8
 8001b9c:	0c21      	lsrs	r1, r4, #16
 8001b9e:	4688      	mov	r8, r1
 8001ba0:	4661      	mov	r1, ip
 8001ba2:	0409      	lsls	r1, r1, #16
 8001ba4:	0c09      	lsrs	r1, r1, #16
 8001ba6:	468c      	mov	ip, r1
 8001ba8:	0039      	movs	r1, r7
 8001baa:	4359      	muls	r1, r3
 8001bac:	4343      	muls	r3, r0
 8001bae:	4370      	muls	r0, r6
 8001bb0:	437e      	muls	r6, r7
 8001bb2:	0c0f      	lsrs	r7, r1, #16
 8001bb4:	18f6      	adds	r6, r6, r3
 8001bb6:	0424      	lsls	r4, r4, #16
 8001bb8:	19be      	adds	r6, r7, r6
 8001bba:	4464      	add	r4, ip
 8001bbc:	4442      	add	r2, r8
 8001bbe:	468c      	mov	ip, r1
 8001bc0:	42b3      	cmp	r3, r6
 8001bc2:	d903      	bls.n	8001bcc <__aeabi_dmul+0x2a0>
 8001bc4:	2380      	movs	r3, #128	; 0x80
 8001bc6:	025b      	lsls	r3, r3, #9
 8001bc8:	4698      	mov	r8, r3
 8001bca:	4440      	add	r0, r8
 8001bcc:	9b02      	ldr	r3, [sp, #8]
 8001bce:	4661      	mov	r1, ip
 8001bd0:	4698      	mov	r8, r3
 8001bd2:	9b04      	ldr	r3, [sp, #16]
 8001bd4:	0437      	lsls	r7, r6, #16
 8001bd6:	4443      	add	r3, r8
 8001bd8:	469b      	mov	fp, r3
 8001bda:	45ab      	cmp	fp, r5
 8001bdc:	41ad      	sbcs	r5, r5
 8001bde:	426b      	negs	r3, r5
 8001be0:	040d      	lsls	r5, r1, #16
 8001be2:	9905      	ldr	r1, [sp, #20]
 8001be4:	0c2d      	lsrs	r5, r5, #16
 8001be6:	468c      	mov	ip, r1
 8001be8:	197f      	adds	r7, r7, r5
 8001bea:	4467      	add	r7, ip
 8001bec:	18fd      	adds	r5, r7, r3
 8001bee:	46a8      	mov	r8, r5
 8001bf0:	465d      	mov	r5, fp
 8001bf2:	192d      	adds	r5, r5, r4
 8001bf4:	42a5      	cmp	r5, r4
 8001bf6:	41a4      	sbcs	r4, r4
 8001bf8:	4693      	mov	fp, r2
 8001bfa:	4264      	negs	r4, r4
 8001bfc:	46a4      	mov	ip, r4
 8001bfe:	44c3      	add	fp, r8
 8001c00:	44dc      	add	ip, fp
 8001c02:	428f      	cmp	r7, r1
 8001c04:	41bf      	sbcs	r7, r7
 8001c06:	4598      	cmp	r8, r3
 8001c08:	419b      	sbcs	r3, r3
 8001c0a:	4593      	cmp	fp, r2
 8001c0c:	4192      	sbcs	r2, r2
 8001c0e:	45a4      	cmp	ip, r4
 8001c10:	41a4      	sbcs	r4, r4
 8001c12:	425b      	negs	r3, r3
 8001c14:	427f      	negs	r7, r7
 8001c16:	431f      	orrs	r7, r3
 8001c18:	0c36      	lsrs	r6, r6, #16
 8001c1a:	4252      	negs	r2, r2
 8001c1c:	4264      	negs	r4, r4
 8001c1e:	19bf      	adds	r7, r7, r6
 8001c20:	4322      	orrs	r2, r4
 8001c22:	18bf      	adds	r7, r7, r2
 8001c24:	4662      	mov	r2, ip
 8001c26:	1838      	adds	r0, r7, r0
 8001c28:	0243      	lsls	r3, r0, #9
 8001c2a:	0dd2      	lsrs	r2, r2, #23
 8001c2c:	9903      	ldr	r1, [sp, #12]
 8001c2e:	4313      	orrs	r3, r2
 8001c30:	026a      	lsls	r2, r5, #9
 8001c32:	430a      	orrs	r2, r1
 8001c34:	1e50      	subs	r0, r2, #1
 8001c36:	4182      	sbcs	r2, r0
 8001c38:	4661      	mov	r1, ip
 8001c3a:	0ded      	lsrs	r5, r5, #23
 8001c3c:	432a      	orrs	r2, r5
 8001c3e:	024e      	lsls	r6, r1, #9
 8001c40:	4332      	orrs	r2, r6
 8001c42:	01d9      	lsls	r1, r3, #7
 8001c44:	d400      	bmi.n	8001c48 <__aeabi_dmul+0x31c>
 8001c46:	e0b3      	b.n	8001db0 <__aeabi_dmul+0x484>
 8001c48:	2601      	movs	r6, #1
 8001c4a:	0850      	lsrs	r0, r2, #1
 8001c4c:	4032      	ands	r2, r6
 8001c4e:	4302      	orrs	r2, r0
 8001c50:	07de      	lsls	r6, r3, #31
 8001c52:	4332      	orrs	r2, r6
 8001c54:	085b      	lsrs	r3, r3, #1
 8001c56:	4c22      	ldr	r4, [pc, #136]	; (8001ce0 <__aeabi_dmul+0x3b4>)
 8001c58:	4454      	add	r4, sl
 8001c5a:	2c00      	cmp	r4, #0
 8001c5c:	dd62      	ble.n	8001d24 <__aeabi_dmul+0x3f8>
 8001c5e:	0751      	lsls	r1, r2, #29
 8001c60:	d009      	beq.n	8001c76 <__aeabi_dmul+0x34a>
 8001c62:	200f      	movs	r0, #15
 8001c64:	4010      	ands	r0, r2
 8001c66:	2804      	cmp	r0, #4
 8001c68:	d005      	beq.n	8001c76 <__aeabi_dmul+0x34a>
 8001c6a:	1d10      	adds	r0, r2, #4
 8001c6c:	4290      	cmp	r0, r2
 8001c6e:	4192      	sbcs	r2, r2
 8001c70:	4252      	negs	r2, r2
 8001c72:	189b      	adds	r3, r3, r2
 8001c74:	0002      	movs	r2, r0
 8001c76:	01d9      	lsls	r1, r3, #7
 8001c78:	d504      	bpl.n	8001c84 <__aeabi_dmul+0x358>
 8001c7a:	2480      	movs	r4, #128	; 0x80
 8001c7c:	4819      	ldr	r0, [pc, #100]	; (8001ce4 <__aeabi_dmul+0x3b8>)
 8001c7e:	00e4      	lsls	r4, r4, #3
 8001c80:	4003      	ands	r3, r0
 8001c82:	4454      	add	r4, sl
 8001c84:	4818      	ldr	r0, [pc, #96]	; (8001ce8 <__aeabi_dmul+0x3bc>)
 8001c86:	4284      	cmp	r4, r0
 8001c88:	dd00      	ble.n	8001c8c <__aeabi_dmul+0x360>
 8001c8a:	e727      	b.n	8001adc <__aeabi_dmul+0x1b0>
 8001c8c:	075e      	lsls	r6, r3, #29
 8001c8e:	025b      	lsls	r3, r3, #9
 8001c90:	08d2      	lsrs	r2, r2, #3
 8001c92:	0b1f      	lsrs	r7, r3, #12
 8001c94:	0563      	lsls	r3, r4, #21
 8001c96:	4316      	orrs	r6, r2
 8001c98:	0d5b      	lsrs	r3, r3, #21
 8001c9a:	e6b2      	b.n	8001a02 <__aeabi_dmul+0xd6>
 8001c9c:	2300      	movs	r3, #0
 8001c9e:	4699      	mov	r9, r3
 8001ca0:	3301      	adds	r3, #1
 8001ca2:	2704      	movs	r7, #4
 8001ca4:	2600      	movs	r6, #0
 8001ca6:	469b      	mov	fp, r3
 8001ca8:	e664      	b.n	8001974 <__aeabi_dmul+0x48>
 8001caa:	2303      	movs	r3, #3
 8001cac:	9701      	str	r7, [sp, #4]
 8001cae:	4681      	mov	r9, r0
 8001cb0:	270c      	movs	r7, #12
 8001cb2:	469b      	mov	fp, r3
 8001cb4:	e65e      	b.n	8001974 <__aeabi_dmul+0x48>
 8001cb6:	2201      	movs	r2, #1
 8001cb8:	2001      	movs	r0, #1
 8001cba:	4317      	orrs	r7, r2
 8001cbc:	2200      	movs	r2, #0
 8001cbe:	e676      	b.n	80019ae <__aeabi_dmul+0x82>
 8001cc0:	2303      	movs	r3, #3
 8001cc2:	2003      	movs	r0, #3
 8001cc4:	431f      	orrs	r7, r3
 8001cc6:	4643      	mov	r3, r8
 8001cc8:	e671      	b.n	80019ae <__aeabi_dmul+0x82>
 8001cca:	46c0      	nop			; (mov r8, r8)
 8001ccc:	000007ff 	.word	0x000007ff
 8001cd0:	fffffc01 	.word	0xfffffc01
 8001cd4:	080050fc 	.word	0x080050fc
 8001cd8:	800fffff 	.word	0x800fffff
 8001cdc:	fffffc0d 	.word	0xfffffc0d
 8001ce0:	000003ff 	.word	0x000003ff
 8001ce4:	feffffff 	.word	0xfeffffff
 8001ce8:	000007fe 	.word	0x000007fe
 8001cec:	2300      	movs	r3, #0
 8001cee:	2780      	movs	r7, #128	; 0x80
 8001cf0:	9300      	str	r3, [sp, #0]
 8001cf2:	033f      	lsls	r7, r7, #12
 8001cf4:	2600      	movs	r6, #0
 8001cf6:	4b43      	ldr	r3, [pc, #268]	; (8001e04 <__aeabi_dmul+0x4d8>)
 8001cf8:	e683      	b.n	8001a02 <__aeabi_dmul+0xd6>
 8001cfa:	9b01      	ldr	r3, [sp, #4]
 8001cfc:	0032      	movs	r2, r6
 8001cfe:	46a4      	mov	ip, r4
 8001d00:	4658      	mov	r0, fp
 8001d02:	e670      	b.n	80019e6 <__aeabi_dmul+0xba>
 8001d04:	46ac      	mov	ip, r5
 8001d06:	e66e      	b.n	80019e6 <__aeabi_dmul+0xba>
 8001d08:	2780      	movs	r7, #128	; 0x80
 8001d0a:	9901      	ldr	r1, [sp, #4]
 8001d0c:	033f      	lsls	r7, r7, #12
 8001d0e:	4239      	tst	r1, r7
 8001d10:	d02d      	beq.n	8001d6e <__aeabi_dmul+0x442>
 8001d12:	423b      	tst	r3, r7
 8001d14:	d12b      	bne.n	8001d6e <__aeabi_dmul+0x442>
 8001d16:	431f      	orrs	r7, r3
 8001d18:	033f      	lsls	r7, r7, #12
 8001d1a:	0b3f      	lsrs	r7, r7, #12
 8001d1c:	9500      	str	r5, [sp, #0]
 8001d1e:	0016      	movs	r6, r2
 8001d20:	4b38      	ldr	r3, [pc, #224]	; (8001e04 <__aeabi_dmul+0x4d8>)
 8001d22:	e66e      	b.n	8001a02 <__aeabi_dmul+0xd6>
 8001d24:	2501      	movs	r5, #1
 8001d26:	1b2d      	subs	r5, r5, r4
 8001d28:	2d38      	cmp	r5, #56	; 0x38
 8001d2a:	dd00      	ble.n	8001d2e <__aeabi_dmul+0x402>
 8001d2c:	e666      	b.n	80019fc <__aeabi_dmul+0xd0>
 8001d2e:	2d1f      	cmp	r5, #31
 8001d30:	dc40      	bgt.n	8001db4 <__aeabi_dmul+0x488>
 8001d32:	4835      	ldr	r0, [pc, #212]	; (8001e08 <__aeabi_dmul+0x4dc>)
 8001d34:	001c      	movs	r4, r3
 8001d36:	4450      	add	r0, sl
 8001d38:	0016      	movs	r6, r2
 8001d3a:	4082      	lsls	r2, r0
 8001d3c:	4084      	lsls	r4, r0
 8001d3e:	40ee      	lsrs	r6, r5
 8001d40:	1e50      	subs	r0, r2, #1
 8001d42:	4182      	sbcs	r2, r0
 8001d44:	4334      	orrs	r4, r6
 8001d46:	4314      	orrs	r4, r2
 8001d48:	40eb      	lsrs	r3, r5
 8001d4a:	0762      	lsls	r2, r4, #29
 8001d4c:	d009      	beq.n	8001d62 <__aeabi_dmul+0x436>
 8001d4e:	220f      	movs	r2, #15
 8001d50:	4022      	ands	r2, r4
 8001d52:	2a04      	cmp	r2, #4
 8001d54:	d005      	beq.n	8001d62 <__aeabi_dmul+0x436>
 8001d56:	0022      	movs	r2, r4
 8001d58:	1d14      	adds	r4, r2, #4
 8001d5a:	4294      	cmp	r4, r2
 8001d5c:	4180      	sbcs	r0, r0
 8001d5e:	4240      	negs	r0, r0
 8001d60:	181b      	adds	r3, r3, r0
 8001d62:	021a      	lsls	r2, r3, #8
 8001d64:	d53e      	bpl.n	8001de4 <__aeabi_dmul+0x4b8>
 8001d66:	2301      	movs	r3, #1
 8001d68:	2700      	movs	r7, #0
 8001d6a:	2600      	movs	r6, #0
 8001d6c:	e649      	b.n	8001a02 <__aeabi_dmul+0xd6>
 8001d6e:	2780      	movs	r7, #128	; 0x80
 8001d70:	9b01      	ldr	r3, [sp, #4]
 8001d72:	033f      	lsls	r7, r7, #12
 8001d74:	431f      	orrs	r7, r3
 8001d76:	033f      	lsls	r7, r7, #12
 8001d78:	0b3f      	lsrs	r7, r7, #12
 8001d7a:	9400      	str	r4, [sp, #0]
 8001d7c:	4b21      	ldr	r3, [pc, #132]	; (8001e04 <__aeabi_dmul+0x4d8>)
 8001d7e:	e640      	b.n	8001a02 <__aeabi_dmul+0xd6>
 8001d80:	0003      	movs	r3, r0
 8001d82:	465a      	mov	r2, fp
 8001d84:	3b28      	subs	r3, #40	; 0x28
 8001d86:	409a      	lsls	r2, r3
 8001d88:	2600      	movs	r6, #0
 8001d8a:	9201      	str	r2, [sp, #4]
 8001d8c:	e66d      	b.n	8001a6a <__aeabi_dmul+0x13e>
 8001d8e:	4658      	mov	r0, fp
 8001d90:	f000 f900 	bl	8001f94 <__clzsi2>
 8001d94:	3020      	adds	r0, #32
 8001d96:	e657      	b.n	8001a48 <__aeabi_dmul+0x11c>
 8001d98:	0003      	movs	r3, r0
 8001d9a:	4652      	mov	r2, sl
 8001d9c:	3b28      	subs	r3, #40	; 0x28
 8001d9e:	409a      	lsls	r2, r3
 8001da0:	0013      	movs	r3, r2
 8001da2:	2200      	movs	r2, #0
 8001da4:	e693      	b.n	8001ace <__aeabi_dmul+0x1a2>
 8001da6:	4650      	mov	r0, sl
 8001da8:	f000 f8f4 	bl	8001f94 <__clzsi2>
 8001dac:	3020      	adds	r0, #32
 8001dae:	e67b      	b.n	8001aa8 <__aeabi_dmul+0x17c>
 8001db0:	46ca      	mov	sl, r9
 8001db2:	e750      	b.n	8001c56 <__aeabi_dmul+0x32a>
 8001db4:	201f      	movs	r0, #31
 8001db6:	001e      	movs	r6, r3
 8001db8:	4240      	negs	r0, r0
 8001dba:	1b04      	subs	r4, r0, r4
 8001dbc:	40e6      	lsrs	r6, r4
 8001dbe:	2d20      	cmp	r5, #32
 8001dc0:	d003      	beq.n	8001dca <__aeabi_dmul+0x49e>
 8001dc2:	4c12      	ldr	r4, [pc, #72]	; (8001e0c <__aeabi_dmul+0x4e0>)
 8001dc4:	4454      	add	r4, sl
 8001dc6:	40a3      	lsls	r3, r4
 8001dc8:	431a      	orrs	r2, r3
 8001dca:	1e50      	subs	r0, r2, #1
 8001dcc:	4182      	sbcs	r2, r0
 8001dce:	4332      	orrs	r2, r6
 8001dd0:	2607      	movs	r6, #7
 8001dd2:	2700      	movs	r7, #0
 8001dd4:	4016      	ands	r6, r2
 8001dd6:	d009      	beq.n	8001dec <__aeabi_dmul+0x4c0>
 8001dd8:	200f      	movs	r0, #15
 8001dda:	2300      	movs	r3, #0
 8001ddc:	4010      	ands	r0, r2
 8001dde:	0014      	movs	r4, r2
 8001de0:	2804      	cmp	r0, #4
 8001de2:	d1b9      	bne.n	8001d58 <__aeabi_dmul+0x42c>
 8001de4:	0022      	movs	r2, r4
 8001de6:	075e      	lsls	r6, r3, #29
 8001de8:	025b      	lsls	r3, r3, #9
 8001dea:	0b1f      	lsrs	r7, r3, #12
 8001dec:	08d2      	lsrs	r2, r2, #3
 8001dee:	4316      	orrs	r6, r2
 8001df0:	2300      	movs	r3, #0
 8001df2:	e606      	b.n	8001a02 <__aeabi_dmul+0xd6>
 8001df4:	2780      	movs	r7, #128	; 0x80
 8001df6:	033f      	lsls	r7, r7, #12
 8001df8:	431f      	orrs	r7, r3
 8001dfa:	033f      	lsls	r7, r7, #12
 8001dfc:	0b3f      	lsrs	r7, r7, #12
 8001dfe:	0016      	movs	r6, r2
 8001e00:	4b00      	ldr	r3, [pc, #0]	; (8001e04 <__aeabi_dmul+0x4d8>)
 8001e02:	e5fe      	b.n	8001a02 <__aeabi_dmul+0xd6>
 8001e04:	000007ff 	.word	0x000007ff
 8001e08:	0000041e 	.word	0x0000041e
 8001e0c:	0000043e 	.word	0x0000043e

08001e10 <__aeabi_d2iz>:
 8001e10:	b530      	push	{r4, r5, lr}
 8001e12:	4d14      	ldr	r5, [pc, #80]	; (8001e64 <__aeabi_d2iz+0x54>)
 8001e14:	030a      	lsls	r2, r1, #12
 8001e16:	004b      	lsls	r3, r1, #1
 8001e18:	0b12      	lsrs	r2, r2, #12
 8001e1a:	0d5b      	lsrs	r3, r3, #21
 8001e1c:	0fc9      	lsrs	r1, r1, #31
 8001e1e:	2400      	movs	r4, #0
 8001e20:	42ab      	cmp	r3, r5
 8001e22:	dd11      	ble.n	8001e48 <__aeabi_d2iz+0x38>
 8001e24:	4c10      	ldr	r4, [pc, #64]	; (8001e68 <__aeabi_d2iz+0x58>)
 8001e26:	42a3      	cmp	r3, r4
 8001e28:	dc10      	bgt.n	8001e4c <__aeabi_d2iz+0x3c>
 8001e2a:	2480      	movs	r4, #128	; 0x80
 8001e2c:	0364      	lsls	r4, r4, #13
 8001e2e:	4322      	orrs	r2, r4
 8001e30:	4c0e      	ldr	r4, [pc, #56]	; (8001e6c <__aeabi_d2iz+0x5c>)
 8001e32:	1ae4      	subs	r4, r4, r3
 8001e34:	2c1f      	cmp	r4, #31
 8001e36:	dd0c      	ble.n	8001e52 <__aeabi_d2iz+0x42>
 8001e38:	480d      	ldr	r0, [pc, #52]	; (8001e70 <__aeabi_d2iz+0x60>)
 8001e3a:	1ac3      	subs	r3, r0, r3
 8001e3c:	40da      	lsrs	r2, r3
 8001e3e:	0013      	movs	r3, r2
 8001e40:	425c      	negs	r4, r3
 8001e42:	2900      	cmp	r1, #0
 8001e44:	d100      	bne.n	8001e48 <__aeabi_d2iz+0x38>
 8001e46:	001c      	movs	r4, r3
 8001e48:	0020      	movs	r0, r4
 8001e4a:	bd30      	pop	{r4, r5, pc}
 8001e4c:	4b09      	ldr	r3, [pc, #36]	; (8001e74 <__aeabi_d2iz+0x64>)
 8001e4e:	18cc      	adds	r4, r1, r3
 8001e50:	e7fa      	b.n	8001e48 <__aeabi_d2iz+0x38>
 8001e52:	4d09      	ldr	r5, [pc, #36]	; (8001e78 <__aeabi_d2iz+0x68>)
 8001e54:	40e0      	lsrs	r0, r4
 8001e56:	46ac      	mov	ip, r5
 8001e58:	4463      	add	r3, ip
 8001e5a:	409a      	lsls	r2, r3
 8001e5c:	0013      	movs	r3, r2
 8001e5e:	4303      	orrs	r3, r0
 8001e60:	e7ee      	b.n	8001e40 <__aeabi_d2iz+0x30>
 8001e62:	46c0      	nop			; (mov r8, r8)
 8001e64:	000003fe 	.word	0x000003fe
 8001e68:	0000041d 	.word	0x0000041d
 8001e6c:	00000433 	.word	0x00000433
 8001e70:	00000413 	.word	0x00000413
 8001e74:	7fffffff 	.word	0x7fffffff
 8001e78:	fffffbed 	.word	0xfffffbed

08001e7c <__aeabi_i2d>:
 8001e7c:	b570      	push	{r4, r5, r6, lr}
 8001e7e:	2800      	cmp	r0, #0
 8001e80:	d02d      	beq.n	8001ede <__aeabi_i2d+0x62>
 8001e82:	17c3      	asrs	r3, r0, #31
 8001e84:	18c5      	adds	r5, r0, r3
 8001e86:	405d      	eors	r5, r3
 8001e88:	0fc4      	lsrs	r4, r0, #31
 8001e8a:	0028      	movs	r0, r5
 8001e8c:	f000 f882 	bl	8001f94 <__clzsi2>
 8001e90:	4b15      	ldr	r3, [pc, #84]	; (8001ee8 <__aeabi_i2d+0x6c>)
 8001e92:	1a1b      	subs	r3, r3, r0
 8001e94:	055b      	lsls	r3, r3, #21
 8001e96:	0d5b      	lsrs	r3, r3, #21
 8001e98:	280a      	cmp	r0, #10
 8001e9a:	dd15      	ble.n	8001ec8 <__aeabi_i2d+0x4c>
 8001e9c:	380b      	subs	r0, #11
 8001e9e:	4085      	lsls	r5, r0
 8001ea0:	2200      	movs	r2, #0
 8001ea2:	032d      	lsls	r5, r5, #12
 8001ea4:	0b2d      	lsrs	r5, r5, #12
 8001ea6:	2100      	movs	r1, #0
 8001ea8:	0010      	movs	r0, r2
 8001eaa:	032d      	lsls	r5, r5, #12
 8001eac:	0d0a      	lsrs	r2, r1, #20
 8001eae:	0b2d      	lsrs	r5, r5, #12
 8001eb0:	0512      	lsls	r2, r2, #20
 8001eb2:	432a      	orrs	r2, r5
 8001eb4:	4d0d      	ldr	r5, [pc, #52]	; (8001eec <__aeabi_i2d+0x70>)
 8001eb6:	051b      	lsls	r3, r3, #20
 8001eb8:	402a      	ands	r2, r5
 8001eba:	4313      	orrs	r3, r2
 8001ebc:	005b      	lsls	r3, r3, #1
 8001ebe:	07e4      	lsls	r4, r4, #31
 8001ec0:	085b      	lsrs	r3, r3, #1
 8001ec2:	4323      	orrs	r3, r4
 8001ec4:	0019      	movs	r1, r3
 8001ec6:	bd70      	pop	{r4, r5, r6, pc}
 8001ec8:	0002      	movs	r2, r0
 8001eca:	0029      	movs	r1, r5
 8001ecc:	3215      	adds	r2, #21
 8001ece:	4091      	lsls	r1, r2
 8001ed0:	000a      	movs	r2, r1
 8001ed2:	210b      	movs	r1, #11
 8001ed4:	1a08      	subs	r0, r1, r0
 8001ed6:	40c5      	lsrs	r5, r0
 8001ed8:	032d      	lsls	r5, r5, #12
 8001eda:	0b2d      	lsrs	r5, r5, #12
 8001edc:	e7e3      	b.n	8001ea6 <__aeabi_i2d+0x2a>
 8001ede:	2400      	movs	r4, #0
 8001ee0:	2300      	movs	r3, #0
 8001ee2:	2500      	movs	r5, #0
 8001ee4:	2200      	movs	r2, #0
 8001ee6:	e7de      	b.n	8001ea6 <__aeabi_i2d+0x2a>
 8001ee8:	0000041e 	.word	0x0000041e
 8001eec:	800fffff 	.word	0x800fffff

08001ef0 <__aeabi_f2d>:
 8001ef0:	0041      	lsls	r1, r0, #1
 8001ef2:	0e09      	lsrs	r1, r1, #24
 8001ef4:	1c4b      	adds	r3, r1, #1
 8001ef6:	b570      	push	{r4, r5, r6, lr}
 8001ef8:	b2db      	uxtb	r3, r3
 8001efa:	0246      	lsls	r6, r0, #9
 8001efc:	0a75      	lsrs	r5, r6, #9
 8001efe:	0fc4      	lsrs	r4, r0, #31
 8001f00:	2b01      	cmp	r3, #1
 8001f02:	dd14      	ble.n	8001f2e <__aeabi_f2d+0x3e>
 8001f04:	23e0      	movs	r3, #224	; 0xe0
 8001f06:	009b      	lsls	r3, r3, #2
 8001f08:	076d      	lsls	r5, r5, #29
 8001f0a:	0b36      	lsrs	r6, r6, #12
 8001f0c:	18cb      	adds	r3, r1, r3
 8001f0e:	2100      	movs	r1, #0
 8001f10:	0d0a      	lsrs	r2, r1, #20
 8001f12:	0028      	movs	r0, r5
 8001f14:	0512      	lsls	r2, r2, #20
 8001f16:	4d1c      	ldr	r5, [pc, #112]	; (8001f88 <__aeabi_f2d+0x98>)
 8001f18:	4332      	orrs	r2, r6
 8001f1a:	055b      	lsls	r3, r3, #21
 8001f1c:	402a      	ands	r2, r5
 8001f1e:	085b      	lsrs	r3, r3, #1
 8001f20:	4313      	orrs	r3, r2
 8001f22:	005b      	lsls	r3, r3, #1
 8001f24:	07e4      	lsls	r4, r4, #31
 8001f26:	085b      	lsrs	r3, r3, #1
 8001f28:	4323      	orrs	r3, r4
 8001f2a:	0019      	movs	r1, r3
 8001f2c:	bd70      	pop	{r4, r5, r6, pc}
 8001f2e:	2900      	cmp	r1, #0
 8001f30:	d114      	bne.n	8001f5c <__aeabi_f2d+0x6c>
 8001f32:	2d00      	cmp	r5, #0
 8001f34:	d01e      	beq.n	8001f74 <__aeabi_f2d+0x84>
 8001f36:	0028      	movs	r0, r5
 8001f38:	f000 f82c 	bl	8001f94 <__clzsi2>
 8001f3c:	280a      	cmp	r0, #10
 8001f3e:	dc1c      	bgt.n	8001f7a <__aeabi_f2d+0x8a>
 8001f40:	230b      	movs	r3, #11
 8001f42:	002a      	movs	r2, r5
 8001f44:	1a1b      	subs	r3, r3, r0
 8001f46:	40da      	lsrs	r2, r3
 8001f48:	0003      	movs	r3, r0
 8001f4a:	3315      	adds	r3, #21
 8001f4c:	409d      	lsls	r5, r3
 8001f4e:	4b0f      	ldr	r3, [pc, #60]	; (8001f8c <__aeabi_f2d+0x9c>)
 8001f50:	0312      	lsls	r2, r2, #12
 8001f52:	1a1b      	subs	r3, r3, r0
 8001f54:	055b      	lsls	r3, r3, #21
 8001f56:	0b16      	lsrs	r6, r2, #12
 8001f58:	0d5b      	lsrs	r3, r3, #21
 8001f5a:	e7d8      	b.n	8001f0e <__aeabi_f2d+0x1e>
 8001f5c:	2d00      	cmp	r5, #0
 8001f5e:	d006      	beq.n	8001f6e <__aeabi_f2d+0x7e>
 8001f60:	0b32      	lsrs	r2, r6, #12
 8001f62:	2680      	movs	r6, #128	; 0x80
 8001f64:	0336      	lsls	r6, r6, #12
 8001f66:	076d      	lsls	r5, r5, #29
 8001f68:	4316      	orrs	r6, r2
 8001f6a:	4b09      	ldr	r3, [pc, #36]	; (8001f90 <__aeabi_f2d+0xa0>)
 8001f6c:	e7cf      	b.n	8001f0e <__aeabi_f2d+0x1e>
 8001f6e:	4b08      	ldr	r3, [pc, #32]	; (8001f90 <__aeabi_f2d+0xa0>)
 8001f70:	2600      	movs	r6, #0
 8001f72:	e7cc      	b.n	8001f0e <__aeabi_f2d+0x1e>
 8001f74:	2300      	movs	r3, #0
 8001f76:	2600      	movs	r6, #0
 8001f78:	e7c9      	b.n	8001f0e <__aeabi_f2d+0x1e>
 8001f7a:	0003      	movs	r3, r0
 8001f7c:	002a      	movs	r2, r5
 8001f7e:	3b0b      	subs	r3, #11
 8001f80:	409a      	lsls	r2, r3
 8001f82:	2500      	movs	r5, #0
 8001f84:	e7e3      	b.n	8001f4e <__aeabi_f2d+0x5e>
 8001f86:	46c0      	nop			; (mov r8, r8)
 8001f88:	800fffff 	.word	0x800fffff
 8001f8c:	00000389 	.word	0x00000389
 8001f90:	000007ff 	.word	0x000007ff

08001f94 <__clzsi2>:
 8001f94:	211c      	movs	r1, #28
 8001f96:	2301      	movs	r3, #1
 8001f98:	041b      	lsls	r3, r3, #16
 8001f9a:	4298      	cmp	r0, r3
 8001f9c:	d301      	bcc.n	8001fa2 <__clzsi2+0xe>
 8001f9e:	0c00      	lsrs	r0, r0, #16
 8001fa0:	3910      	subs	r1, #16
 8001fa2:	0a1b      	lsrs	r3, r3, #8
 8001fa4:	4298      	cmp	r0, r3
 8001fa6:	d301      	bcc.n	8001fac <__clzsi2+0x18>
 8001fa8:	0a00      	lsrs	r0, r0, #8
 8001faa:	3908      	subs	r1, #8
 8001fac:	091b      	lsrs	r3, r3, #4
 8001fae:	4298      	cmp	r0, r3
 8001fb0:	d301      	bcc.n	8001fb6 <__clzsi2+0x22>
 8001fb2:	0900      	lsrs	r0, r0, #4
 8001fb4:	3904      	subs	r1, #4
 8001fb6:	a202      	add	r2, pc, #8	; (adr r2, 8001fc0 <__clzsi2+0x2c>)
 8001fb8:	5c10      	ldrb	r0, [r2, r0]
 8001fba:	1840      	adds	r0, r0, r1
 8001fbc:	4770      	bx	lr
 8001fbe:	46c0      	nop			; (mov r8, r8)
 8001fc0:	02020304 	.word	0x02020304
 8001fc4:	01010101 	.word	0x01010101
	...

08001fd0 <__clzdi2>:
 8001fd0:	b510      	push	{r4, lr}
 8001fd2:	2900      	cmp	r1, #0
 8001fd4:	d103      	bne.n	8001fde <__clzdi2+0xe>
 8001fd6:	f7ff ffdd 	bl	8001f94 <__clzsi2>
 8001fda:	3020      	adds	r0, #32
 8001fdc:	e002      	b.n	8001fe4 <__clzdi2+0x14>
 8001fde:	1c08      	adds	r0, r1, #0
 8001fe0:	f7ff ffd8 	bl	8001f94 <__clzsi2>
 8001fe4:	bd10      	pop	{r4, pc}
 8001fe6:	46c0      	nop			; (mov r8, r8)

08001fe8 <hts221_init>:
 8001fe8:	b5f0      	push	{r4, r5, r6, r7, lr}
 8001fea:	2701      	movs	r7, #1
 8001fec:	2384      	movs	r3, #132	; 0x84
 8001fee:	2401      	movs	r4, #1
 8001ff0:	b089      	sub	sp, #36	; 0x24
 8001ff2:	4e58      	ldr	r6, [pc, #352]	; (8002154 <hts221_init+0x16c>)
 8001ff4:	ad06      	add	r5, sp, #24
 8001ff6:	427f      	negs	r7, r7
 8001ff8:	702b      	strb	r3, [r5, #0]
 8001ffa:	2220      	movs	r2, #32
 8001ffc:	9702      	str	r7, [sp, #8]
 8001ffe:	9401      	str	r4, [sp, #4]
 8002000:	9500      	str	r5, [sp, #0]
 8002002:	0023      	movs	r3, r4
 8002004:	21be      	movs	r1, #190	; 0xbe
 8002006:	0030      	movs	r0, r6
 8002008:	f000 fe42 	bl	8002c90 <HAL_I2C_Mem_Write>
 800200c:	2700      	movs	r7, #0
 800200e:	42b8      	cmp	r0, r7
 8002010:	d000      	beq.n	8002014 <hts221_init+0x2c>
 8002012:	e09b      	b.n	800214c <hts221_init+0x164>
 8002014:	3f01      	subs	r7, #1
 8002016:	0023      	movs	r3, r4
 8002018:	9702      	str	r7, [sp, #8]
 800201a:	9401      	str	r4, [sp, #4]
 800201c:	9500      	str	r5, [sp, #0]
 800201e:	2232      	movs	r2, #50	; 0x32
 8002020:	21be      	movs	r1, #190	; 0xbe
 8002022:	0030      	movs	r0, r6
 8002024:	f000 feea 	bl	8002dfc <HAL_I2C_Mem_Read>
 8002028:	2311      	movs	r3, #17
 800202a:	aa02      	add	r2, sp, #8
 800202c:	189b      	adds	r3, r3, r2
 800202e:	9702      	str	r7, [sp, #8]
 8002030:	9401      	str	r4, [sp, #4]
 8002032:	9300      	str	r3, [sp, #0]
 8002034:	2233      	movs	r2, #51	; 0x33
 8002036:	0023      	movs	r3, r4
 8002038:	21be      	movs	r1, #190	; 0xbe
 800203a:	0030      	movs	r0, r6
 800203c:	f000 fede 	bl	8002dfc <HAL_I2C_Mem_Read>
 8002040:	2312      	movs	r3, #18
 8002042:	aa02      	add	r2, sp, #8
 8002044:	189b      	adds	r3, r3, r2
 8002046:	9702      	str	r7, [sp, #8]
 8002048:	9401      	str	r4, [sp, #4]
 800204a:	9300      	str	r3, [sp, #0]
 800204c:	2235      	movs	r2, #53	; 0x35
 800204e:	0023      	movs	r3, r4
 8002050:	21be      	movs	r1, #190	; 0xbe
 8002052:	0030      	movs	r0, r6
 8002054:	f000 fed2 	bl	8002dfc <HAL_I2C_Mem_Read>
 8002058:	2313      	movs	r3, #19
 800205a:	aa02      	add	r2, sp, #8
 800205c:	189b      	adds	r3, r3, r2
 800205e:	9702      	str	r7, [sp, #8]
 8002060:	9401      	str	r4, [sp, #4]
 8002062:	9300      	str	r3, [sp, #0]
 8002064:	223c      	movs	r2, #60	; 0x3c
 8002066:	0023      	movs	r3, r4
 8002068:	21be      	movs	r1, #190	; 0xbe
 800206a:	0030      	movs	r0, r6
 800206c:	f000 fec6 	bl	8002dfc <HAL_I2C_Mem_Read>
 8002070:	ab07      	add	r3, sp, #28
 8002072:	9702      	str	r7, [sp, #8]
 8002074:	9401      	str	r4, [sp, #4]
 8002076:	9300      	str	r3, [sp, #0]
 8002078:	223d      	movs	r2, #61	; 0x3d
 800207a:	0023      	movs	r3, r4
 800207c:	21be      	movs	r1, #190	; 0xbe
 800207e:	0030      	movs	r0, r6
 8002080:	f000 febc 	bl	8002dfc <HAL_I2C_Mem_Read>
 8002084:	2315      	movs	r3, #21
 8002086:	aa02      	add	r2, sp, #8
 8002088:	189b      	adds	r3, r3, r2
 800208a:	9702      	str	r7, [sp, #8]
 800208c:	9401      	str	r4, [sp, #4]
 800208e:	9300      	str	r3, [sp, #0]
 8002090:	223e      	movs	r2, #62	; 0x3e
 8002092:	0023      	movs	r3, r4
 8002094:	21be      	movs	r1, #190	; 0xbe
 8002096:	0030      	movs	r0, r6
 8002098:	f000 feb0 	bl	8002dfc <HAL_I2C_Mem_Read>
 800209c:	2316      	movs	r3, #22
 800209e:	aa02      	add	r2, sp, #8
 80020a0:	189b      	adds	r3, r3, r2
 80020a2:	9702      	str	r7, [sp, #8]
 80020a4:	9401      	str	r4, [sp, #4]
 80020a6:	9300      	str	r3, [sp, #0]
 80020a8:	223f      	movs	r2, #63	; 0x3f
 80020aa:	0023      	movs	r3, r4
 80020ac:	21be      	movs	r1, #190	; 0xbe
 80020ae:	0030      	movs	r0, r6
 80020b0:	f000 fea4 	bl	8002dfc <HAL_I2C_Mem_Read>
 80020b4:	792b      	ldrb	r3, [r5, #4]
 80020b6:	78ec      	ldrb	r4, [r5, #3]
 80020b8:	79aa      	ldrb	r2, [r5, #6]
 80020ba:	021b      	lsls	r3, r3, #8
 80020bc:	431c      	orrs	r4, r3
 80020be:	796b      	ldrb	r3, [r5, #5]
 80020c0:	0212      	lsls	r2, r2, #8
 80020c2:	4313      	orrs	r3, r2
 80020c4:	22c0      	movs	r2, #192	; 0xc0
 80020c6:	b21b      	sxth	r3, r3
 80020c8:	9305      	str	r3, [sp, #20]
 80020ca:	78ab      	ldrb	r3, [r5, #2]
 80020cc:	0092      	lsls	r2, r2, #2
 80020ce:	7829      	ldrb	r1, [r5, #0]
 80020d0:	021e      	lsls	r6, r3, #8
 80020d2:	786d      	ldrb	r5, [r5, #1]
 80020d4:	019b      	lsls	r3, r3, #6
 80020d6:	4013      	ands	r3, r2
 80020d8:	4016      	ands	r6, r2
 80020da:	200c      	movs	r0, #12
 80020dc:	430e      	orrs	r6, r1
 80020de:	431d      	orrs	r5, r3
 80020e0:	f001 ffec 	bl	80040bc <malloc>
 80020e4:	b224      	sxth	r4, r4
 80020e6:	08eb      	lsrs	r3, r5, #3
 80020e8:	08f5      	lsrs	r5, r6, #3
 80020ea:	0007      	movs	r7, r0
 80020ec:	6004      	str	r4, [r0, #0]
 80020ee:	1b58      	subs	r0, r3, r5
 80020f0:	9304      	str	r3, [sp, #16]
 80020f2:	f7fe fdb3 	bl	8000c5c <__aeabi_i2f>
 80020f6:	9b05      	ldr	r3, [sp, #20]
 80020f8:	1c06      	adds	r6, r0, #0
 80020fa:	1b18      	subs	r0, r3, r4
 80020fc:	f7fe fdae 	bl	8000c5c <__aeabi_i2f>
 8002100:	1c01      	adds	r1, r0, #0
 8002102:	1c30      	adds	r0, r6, #0
 8002104:	f7fe fb46 	bl	8000794 <__aeabi_fdiv>
 8002108:	60bd      	str	r5, [r7, #8]
 800210a:	1c06      	adds	r6, r0, #0
 800210c:	6078      	str	r0, [r7, #4]
 800210e:	4812      	ldr	r0, [pc, #72]	; (8002158 <hts221_init+0x170>)
 8002110:	f002 f908 	bl	8004324 <puts>
 8002114:	0021      	movs	r1, r4
 8002116:	4811      	ldr	r0, [pc, #68]	; (800215c <hts221_init+0x174>)
 8002118:	f002 f88a 	bl	8004230 <iprintf>
 800211c:	9905      	ldr	r1, [sp, #20]
 800211e:	4810      	ldr	r0, [pc, #64]	; (8002160 <hts221_init+0x178>)
 8002120:	f002 f886 	bl	8004230 <iprintf>
 8002124:	0029      	movs	r1, r5
 8002126:	480f      	ldr	r0, [pc, #60]	; (8002164 <hts221_init+0x17c>)
 8002128:	f002 f882 	bl	8004230 <iprintf>
 800212c:	9904      	ldr	r1, [sp, #16]
 800212e:	480e      	ldr	r0, [pc, #56]	; (8002168 <hts221_init+0x180>)
 8002130:	f002 f87e 	bl	8004230 <iprintf>
 8002134:	1c30      	adds	r0, r6, #0
 8002136:	f7ff fedb 	bl	8001ef0 <__aeabi_f2d>
 800213a:	0002      	movs	r2, r0
 800213c:	000b      	movs	r3, r1
 800213e:	480b      	ldr	r0, [pc, #44]	; (800216c <hts221_init+0x184>)
 8002140:	f002 f876 	bl	8004230 <iprintf>
 8002144:	0029      	movs	r1, r5
 8002146:	480a      	ldr	r0, [pc, #40]	; (8002170 <hts221_init+0x188>)
 8002148:	f002 f872 	bl	8004230 <iprintf>
 800214c:	0038      	movs	r0, r7
 800214e:	b009      	add	sp, #36	; 0x24
 8002150:	bdf0      	pop	{r4, r5, r6, r7, pc}
 8002152:	46c0      	nop			; (mov r8, r8)
 8002154:	20000098 	.word	0x20000098
 8002158:	080051a2 	.word	0x080051a2
 800215c:	080051b6 	.word	0x080051b6
 8002160:	080051c3 	.word	0x080051c3
 8002164:	080051d0 	.word	0x080051d0
 8002168:	080051de 	.word	0x080051de
 800216c:	080051ec 	.word	0x080051ec
 8002170:	08005204 	.word	0x08005204

08002174 <hts221_calc_temp>:
 8002174:	b570      	push	{r4, r5, r6, lr}
 8002176:	000d      	movs	r5, r1
 8002178:	680b      	ldr	r3, [r1, #0]
 800217a:	1ac4      	subs	r4, r0, r3
 800217c:	0020      	movs	r0, r4
 800217e:	f7fe fd6d 	bl	8000c5c <__aeabi_i2f>
 8002182:	6869      	ldr	r1, [r5, #4]
 8002184:	f7fe fc18 	bl	80009b8 <__aeabi_fmul>
 8002188:	1c06      	adds	r6, r0, #0
 800218a:	68a8      	ldr	r0, [r5, #8]
 800218c:	f7fe fd66 	bl	8000c5c <__aeabi_i2f>
 8002190:	1c01      	adds	r1, r0, #0
 8002192:	1c30      	adds	r0, r6, #0
 8002194:	f7fe f964 	bl	8000460 <__aeabi_fadd>
 8002198:	f7fe fd40 	bl	8000c1c <__aeabi_f2iz>
 800219c:	0005      	movs	r5, r0
 800219e:	4806      	ldr	r0, [pc, #24]	; (80021b8 <hts221_calc_temp+0x44>)
 80021a0:	f002 f8c0 	bl	8004324 <puts>
 80021a4:	0021      	movs	r1, r4
 80021a6:	4805      	ldr	r0, [pc, #20]	; (80021bc <hts221_calc_temp+0x48>)
 80021a8:	f002 f842 	bl	8004230 <iprintf>
 80021ac:	0029      	movs	r1, r5
 80021ae:	4804      	ldr	r0, [pc, #16]	; (80021c0 <hts221_calc_temp+0x4c>)
 80021b0:	f002 f83e 	bl	8004230 <iprintf>
 80021b4:	0028      	movs	r0, r5
 80021b6:	bd70      	pop	{r4, r5, r6, pc}
 80021b8:	0800513c 	.word	0x0800513c
 80021bc:	08005158 	.word	0x08005158
 80021c0:	0800516a 	.word	0x0800516a

080021c4 <hts221_get_temp>:
 80021c4:	b5f0      	push	{r4, r5, r6, r7, lr}
 80021c6:	2701      	movs	r7, #1
 80021c8:	2401      	movs	r4, #1
 80021ca:	b089      	sub	sp, #36	; 0x24
 80021cc:	ab06      	add	r3, sp, #24
 80021ce:	427f      	negs	r7, r7
 80021d0:	701c      	strb	r4, [r3, #0]
 80021d2:	9004      	str	r0, [sp, #16]
 80021d4:	9105      	str	r1, [sp, #20]
 80021d6:	9300      	str	r3, [sp, #0]
 80021d8:	9702      	str	r7, [sp, #8]
 80021da:	9401      	str	r4, [sp, #4]
 80021dc:	0023      	movs	r3, r4
 80021de:	2221      	movs	r2, #33	; 0x21
 80021e0:	21be      	movs	r1, #190	; 0xbe
 80021e2:	482e      	ldr	r0, [pc, #184]	; (800229c <hts221_get_temp+0xd8>)
 80021e4:	f000 fd54 	bl	8002c90 <HAL_I2C_Mem_Write>
 80021e8:	2603      	movs	r6, #3
 80021ea:	4d2c      	ldr	r5, [pc, #176]	; (800229c <hts221_get_temp+0xd8>)
 80021ec:	ab06      	add	r3, sp, #24
 80021ee:	9300      	str	r3, [sp, #0]
 80021f0:	9702      	str	r7, [sp, #8]
 80021f2:	2301      	movs	r3, #1
 80021f4:	9401      	str	r4, [sp, #4]
 80021f6:	2227      	movs	r2, #39	; 0x27
 80021f8:	21be      	movs	r1, #190	; 0xbe
 80021fa:	0028      	movs	r0, r5
 80021fc:	f000 fdfe 	bl	8002dfc <HAL_I2C_Mem_Read>
 8002200:	ab02      	add	r3, sp, #8
 8002202:	7c1b      	ldrb	r3, [r3, #16]
 8002204:	4223      	tst	r3, r4
 8002206:	d102      	bne.n	800220e <hts221_get_temp+0x4a>
 8002208:	3e01      	subs	r6, #1
 800220a:	2e00      	cmp	r6, #0
 800220c:	d1ed      	bne.n	80021ea <hts221_get_temp+0x26>
 800220e:	2311      	movs	r3, #17
 8002210:	2401      	movs	r4, #1
 8002212:	aa02      	add	r2, sp, #8
 8002214:	189b      	adds	r3, r3, r2
 8002216:	9401      	str	r4, [sp, #4]
 8002218:	9300      	str	r3, [sp, #0]
 800221a:	222a      	movs	r2, #42	; 0x2a
 800221c:	0023      	movs	r3, r4
 800221e:	21be      	movs	r1, #190	; 0xbe
 8002220:	0028      	movs	r0, r5
 8002222:	9702      	str	r7, [sp, #8]
 8002224:	f000 fdea 	bl	8002dfc <HAL_I2C_Mem_Read>
 8002228:	2312      	movs	r3, #18
 800222a:	aa02      	add	r2, sp, #8
 800222c:	189b      	adds	r3, r3, r2
 800222e:	ae06      	add	r6, sp, #24
 8002230:	222b      	movs	r2, #43	; 0x2b
 8002232:	9401      	str	r4, [sp, #4]
 8002234:	9300      	str	r3, [sp, #0]
 8002236:	21be      	movs	r1, #190	; 0xbe
 8002238:	0023      	movs	r3, r4
 800223a:	0028      	movs	r0, r5
 800223c:	9702      	str	r7, [sp, #8]
 800223e:	f000 fddd 	bl	8002dfc <HAL_I2C_Mem_Read>
 8002242:	78b3      	ldrb	r3, [r6, #2]
 8002244:	7874      	ldrb	r4, [r6, #1]
 8002246:	021b      	lsls	r3, r3, #8
 8002248:	431c      	orrs	r4, r3
 800224a:	b224      	sxth	r4, r4
 800224c:	9905      	ldr	r1, [sp, #20]
 800224e:	0020      	movs	r0, r4
 8002250:	f7ff ff90 	bl	8002174 <hts221_calc_temp>
 8002254:	0005      	movs	r5, r0
 8002256:	4812      	ldr	r0, [pc, #72]	; (80022a0 <hts221_get_temp+0xdc>)
 8002258:	f002 f864 	bl	8004324 <puts>
 800225c:	0021      	movs	r1, r4
 800225e:	4811      	ldr	r0, [pc, #68]	; (80022a4 <hts221_get_temp+0xe0>)
 8002260:	f001 ffe6 	bl	8004230 <iprintf>
 8002264:	0029      	movs	r1, r5
 8002266:	4810      	ldr	r0, [pc, #64]	; (80022a8 <hts221_get_temp+0xe4>)
 8002268:	f001 ffe2 	bl	8004230 <iprintf>
 800226c:	9b04      	ldr	r3, [sp, #16]
 800226e:	2b46      	cmp	r3, #70	; 0x46
 8002270:	d111      	bne.n	8002296 <hts221_get_temp+0xd2>
 8002272:	0028      	movs	r0, r5
 8002274:	f7ff fe02 	bl	8001e7c <__aeabi_i2d>
 8002278:	2200      	movs	r2, #0
 800227a:	4b0c      	ldr	r3, [pc, #48]	; (80022ac <hts221_get_temp+0xe8>)
 800227c:	f7ff fb56 	bl	800192c <__aeabi_dmul>
 8002280:	2200      	movs	r2, #0
 8002282:	4b0b      	ldr	r3, [pc, #44]	; (80022b0 <hts221_get_temp+0xec>)
 8002284:	f7ff f850 	bl	8001328 <__aeabi_ddiv>
 8002288:	2200      	movs	r2, #0
 800228a:	4b0a      	ldr	r3, [pc, #40]	; (80022b4 <hts221_get_temp+0xf0>)
 800228c:	f7fe fd30 	bl	8000cf0 <__aeabi_dadd>
 8002290:	f7ff fdbe 	bl	8001e10 <__aeabi_d2iz>
 8002294:	0005      	movs	r5, r0
 8002296:	0028      	movs	r0, r5
 8002298:	b009      	add	sp, #36	; 0x24
 800229a:	bdf0      	pop	{r4, r5, r6, r7, pc}
 800229c:	20000098 	.word	0x20000098
 80022a0:	0800517b 	.word	0x0800517b
 80022a4:	08005196 	.word	0x08005196
 80022a8:	0800516a 	.word	0x0800516a
 80022ac:	40220000 	.word	0x40220000
 80022b0:	40140000 	.word	0x40140000
 80022b4:	40400000 	.word	0x40400000

080022b8 <__io_putchar>:
 80022b8:	b507      	push	{r0, r1, r2, lr}
 80022ba:	4b04      	ldr	r3, [pc, #16]	; (80022cc <__io_putchar+0x14>)
 80022bc:	9001      	str	r0, [sp, #4]
 80022be:	2201      	movs	r2, #1
 80022c0:	a901      	add	r1, sp, #4
 80022c2:	4803      	ldr	r0, [pc, #12]	; (80022d0 <__io_putchar+0x18>)
 80022c4:	f001 fe00 	bl	8003ec8 <HAL_UART_Transmit>
 80022c8:	9801      	ldr	r0, [sp, #4]
 80022ca:	bd0e      	pop	{r1, r2, r3, pc}
 80022cc:	0000ffff 	.word	0x0000ffff
 80022d0:	200000e8 	.word	0x200000e8

080022d4 <SystemClock_Config>:
 80022d4:	b500      	push	{lr}
 80022d6:	b09d      	sub	sp, #116	; 0x74
 80022d8:	2234      	movs	r2, #52	; 0x34
 80022da:	2100      	movs	r1, #0
 80022dc:	a80f      	add	r0, sp, #60	; 0x3c
 80022de:	f001 fef7 	bl	80040d0 <memset>
 80022e2:	2214      	movs	r2, #20
 80022e4:	2100      	movs	r1, #0
 80022e6:	4668      	mov	r0, sp
 80022e8:	f001 fef2 	bl	80040d0 <memset>
 80022ec:	2224      	movs	r2, #36	; 0x24
 80022ee:	2100      	movs	r1, #0
 80022f0:	a805      	add	r0, sp, #20
 80022f2:	f001 feed 	bl	80040d0 <memset>
 80022f6:	4919      	ldr	r1, [pc, #100]	; (800235c <SystemClock_Config+0x88>)
 80022f8:	4a19      	ldr	r2, [pc, #100]	; (8002360 <SystemClock_Config+0x8c>)
 80022fa:	680b      	ldr	r3, [r1, #0]
 80022fc:	a80e      	add	r0, sp, #56	; 0x38
 80022fe:	401a      	ands	r2, r3
 8002300:	2380      	movs	r3, #128	; 0x80
 8002302:	011b      	lsls	r3, r3, #4
 8002304:	4313      	orrs	r3, r2
 8002306:	600b      	str	r3, [r1, #0]
 8002308:	2310      	movs	r3, #16
 800230a:	22a0      	movs	r2, #160	; 0xa0
 800230c:	930e      	str	r3, [sp, #56]	; 0x38
 800230e:	3b0f      	subs	r3, #15
 8002310:	9315      	str	r3, [sp, #84]	; 0x54
 8002312:	2300      	movs	r3, #0
 8002314:	0212      	lsls	r2, r2, #8
 8002316:	9316      	str	r3, [sp, #88]	; 0x58
 8002318:	9217      	str	r2, [sp, #92]	; 0x5c
 800231a:	9318      	str	r3, [sp, #96]	; 0x60
 800231c:	f000 fec0 	bl	80030a0 <HAL_RCC_OscConfig>
 8002320:	1e01      	subs	r1, r0, #0
 8002322:	d001      	beq.n	8002328 <SystemClock_Config+0x54>
 8002324:	b672      	cpsid	i
 8002326:	e7fe      	b.n	8002326 <SystemClock_Config+0x52>
 8002328:	230f      	movs	r3, #15
 800232a:	9001      	str	r0, [sp, #4]
 800232c:	9002      	str	r0, [sp, #8]
 800232e:	9003      	str	r0, [sp, #12]
 8002330:	9004      	str	r0, [sp, #16]
 8002332:	4668      	mov	r0, sp
 8002334:	9300      	str	r3, [sp, #0]
 8002336:	f001 f93b 	bl	80035b0 <HAL_RCC_ClockConfig>
 800233a:	2800      	cmp	r0, #0
 800233c:	d001      	beq.n	8002342 <SystemClock_Config+0x6e>
 800233e:	b672      	cpsid	i
 8002340:	e7fe      	b.n	8002340 <SystemClock_Config+0x6c>
 8002342:	2309      	movs	r3, #9
 8002344:	9008      	str	r0, [sp, #32]
 8002346:	900b      	str	r0, [sp, #44]	; 0x2c
 8002348:	a805      	add	r0, sp, #20
 800234a:	9305      	str	r3, [sp, #20]
 800234c:	f001 fa1e 	bl	800378c <HAL_RCCEx_PeriphCLKConfig>
 8002350:	2800      	cmp	r0, #0
 8002352:	d001      	beq.n	8002358 <SystemClock_Config+0x84>
 8002354:	b672      	cpsid	i
 8002356:	e7fe      	b.n	8002356 <SystemClock_Config+0x82>
 8002358:	b01d      	add	sp, #116	; 0x74
 800235a:	bd00      	pop	{pc}
 800235c:	40007000 	.word	0x40007000
 8002360:	ffffe7ff 	.word	0xffffe7ff

08002364 <main>:
 8002364:	b530      	push	{r4, r5, lr}
 8002366:	b085      	sub	sp, #20
 8002368:	f000 f9ca 	bl	8002700 <HAL_Init>
 800236c:	f7ff ffb2 	bl	80022d4 <SystemClock_Config>
 8002370:	2201      	movs	r2, #1
 8002372:	2002      	movs	r0, #2
 8002374:	4b3b      	ldr	r3, [pc, #236]	; (8002464 <main+0x100>)
 8002376:	4c3c      	ldr	r4, [pc, #240]	; (8002468 <main+0x104>)
 8002378:	6ad9      	ldr	r1, [r3, #44]	; 0x2c
 800237a:	4311      	orrs	r1, r2
 800237c:	62d9      	str	r1, [r3, #44]	; 0x2c
 800237e:	6ad9      	ldr	r1, [r3, #44]	; 0x2c
 8002380:	4011      	ands	r1, r2
 8002382:	9100      	str	r1, [sp, #0]
 8002384:	9900      	ldr	r1, [sp, #0]
 8002386:	6ad9      	ldr	r1, [r3, #44]	; 0x2c
 8002388:	4301      	orrs	r1, r0
 800238a:	62d9      	str	r1, [r3, #44]	; 0x2c
 800238c:	6adb      	ldr	r3, [r3, #44]	; 0x2c
 800238e:	60e2      	str	r2, [r4, #12]
 8002390:	4003      	ands	r3, r0
 8002392:	9301      	str	r3, [sp, #4]
 8002394:	9b01      	ldr	r3, [sp, #4]
 8002396:	4b35      	ldr	r3, [pc, #212]	; (800246c <main+0x108>)
 8002398:	0020      	movs	r0, r4
 800239a:	6023      	str	r3, [r4, #0]
 800239c:	23e1      	movs	r3, #225	; 0xe1
 800239e:	00db      	lsls	r3, r3, #3
 80023a0:	6063      	str	r3, [r4, #4]
 80023a2:	2300      	movs	r3, #0
 80023a4:	60a3      	str	r3, [r4, #8]
 80023a6:	6123      	str	r3, [r4, #16]
 80023a8:	6163      	str	r3, [r4, #20]
 80023aa:	61a3      	str	r3, [r4, #24]
 80023ac:	61e3      	str	r3, [r4, #28]
 80023ae:	6223      	str	r3, [r4, #32]
 80023b0:	f000 fc18 	bl	8002be4 <HAL_I2C_Init>
 80023b4:	1e01      	subs	r1, r0, #0
 80023b6:	d001      	beq.n	80023bc <main+0x58>
 80023b8:	b672      	cpsid	i
 80023ba:	e7fe      	b.n	80023ba <main+0x56>
 80023bc:	0020      	movs	r0, r4
 80023be:	f000 fddb 	bl	8002f78 <HAL_I2CEx_ConfigAnalogFilter>
 80023c2:	1e01      	subs	r1, r0, #0
 80023c4:	d001      	beq.n	80023ca <main+0x66>
 80023c6:	b672      	cpsid	i
 80023c8:	e7fe      	b.n	80023c8 <main+0x64>
 80023ca:	0020      	movs	r0, r4
 80023cc:	f000 fdfa 	bl	8002fc4 <HAL_I2CEx_ConfigDigitalFilter>
 80023d0:	2800      	cmp	r0, #0
 80023d2:	d001      	beq.n	80023d8 <main+0x74>
 80023d4:	b672      	cpsid	i
 80023d6:	e7fe      	b.n	80023d6 <main+0x72>
 80023d8:	4b25      	ldr	r3, [pc, #148]	; (8002470 <main+0x10c>)
 80023da:	4a26      	ldr	r2, [pc, #152]	; (8002474 <main+0x110>)
 80023dc:	6098      	str	r0, [r3, #8]
 80023de:	601a      	str	r2, [r3, #0]
 80023e0:	22e1      	movs	r2, #225	; 0xe1
 80023e2:	0252      	lsls	r2, r2, #9
 80023e4:	605a      	str	r2, [r3, #4]
 80023e6:	220c      	movs	r2, #12
 80023e8:	60d8      	str	r0, [r3, #12]
 80023ea:	6118      	str	r0, [r3, #16]
 80023ec:	6198      	str	r0, [r3, #24]
 80023ee:	61d8      	str	r0, [r3, #28]
 80023f0:	6218      	str	r0, [r3, #32]
 80023f2:	6258      	str	r0, [r3, #36]	; 0x24
 80023f4:	0018      	movs	r0, r3
 80023f6:	615a      	str	r2, [r3, #20]
 80023f8:	f001 fe04 	bl	8004004 <HAL_UART_Init>
 80023fc:	1e05      	subs	r5, r0, #0
 80023fe:	d001      	beq.n	8002404 <main+0xa0>
 8002400:	b672      	cpsid	i
 8002402:	e7fe      	b.n	8002402 <main+0x9e>
 8002404:	0001      	movs	r1, r0
 8002406:	2208      	movs	r2, #8
 8002408:	a802      	add	r0, sp, #8
 800240a:	f001 fe61 	bl	80040d0 <memset>
 800240e:	4c1a      	ldr	r4, [pc, #104]	; (8002478 <main+0x114>)
 8002410:	4b1a      	ldr	r3, [pc, #104]	; (800247c <main+0x118>)
 8002412:	0020      	movs	r0, r4
 8002414:	6023      	str	r3, [r4, #0]
 8002416:	2383      	movs	r3, #131	; 0x83
 8002418:	011b      	lsls	r3, r3, #4
 800241a:	6063      	str	r3, [r4, #4]
 800241c:	4b18      	ldr	r3, [pc, #96]	; (8002480 <main+0x11c>)
 800241e:	60a5      	str	r5, [r4, #8]
 8002420:	60e3      	str	r3, [r4, #12]
 8002422:	6165      	str	r5, [r4, #20]
 8002424:	f001 fabe 	bl	80039a4 <HAL_TIM_Base_Init>
 8002428:	2800      	cmp	r0, #0
 800242a:	d001      	beq.n	8002430 <main+0xcc>
 800242c:	b672      	cpsid	i
 800242e:	e7fe      	b.n	800242e <main+0xca>
 8002430:	9002      	str	r0, [sp, #8]
 8002432:	9003      	str	r0, [sp, #12]
 8002434:	a902      	add	r1, sp, #8
 8002436:	0020      	movs	r0, r4
 8002438:	f001 fb66 	bl	8003b08 <HAL_TIMEx_MasterConfigSynchronization>
 800243c:	2800      	cmp	r0, #0
 800243e:	d001      	beq.n	8002444 <main+0xe0>
 8002440:	b672      	cpsid	i
 8002442:	e7fe      	b.n	8002442 <main+0xde>
 8002444:	480f      	ldr	r0, [pc, #60]	; (8002484 <main+0x120>)
 8002446:	f001 ff6d 	bl	8004324 <puts>
 800244a:	f7ff fdcd 	bl	8001fe8 <hts221_init>
 800244e:	4b0e      	ldr	r3, [pc, #56]	; (8002488 <main+0x124>)
 8002450:	0001      	movs	r1, r0
 8002452:	6018      	str	r0, [r3, #0]
 8002454:	2043      	movs	r0, #67	; 0x43
 8002456:	f7ff feb5 	bl	80021c4 <hts221_get_temp>
 800245a:	0001      	movs	r1, r0
 800245c:	480b      	ldr	r0, [pc, #44]	; (800248c <main+0x128>)
 800245e:	f001 fee7 	bl	8004230 <iprintf>
 8002462:	e7fe      	b.n	8002462 <main+0xfe>
 8002464:	40021000 	.word	0x40021000
 8002468:	20000098 	.word	0x20000098
 800246c:	40005400 	.word	0x40005400
 8002470:	200000e8 	.word	0x200000e8
 8002474:	40013800 	.word	0x40013800
 8002478:	2000016c 	.word	0x2000016c
 800247c:	40001000 	.word	0x40001000
 8002480:	000003e7 	.word	0x000003e7
 8002484:	08005213 	.word	0x08005213
 8002488:	200000e4 	.word	0x200000e4
 800248c:	0800521b 	.word	0x0800521b

08002490 <HAL_MspInit>:
 8002490:	2201      	movs	r2, #1
 8002492:	4b05      	ldr	r3, [pc, #20]	; (80024a8 <HAL_MspInit+0x18>)
 8002494:	6b59      	ldr	r1, [r3, #52]	; 0x34
 8002496:	430a      	orrs	r2, r1
 8002498:	635a      	str	r2, [r3, #52]	; 0x34
 800249a:	2280      	movs	r2, #128	; 0x80
 800249c:	6b99      	ldr	r1, [r3, #56]	; 0x38
 800249e:	0552      	lsls	r2, r2, #21
 80024a0:	430a      	orrs	r2, r1
 80024a2:	639a      	str	r2, [r3, #56]	; 0x38
 80024a4:	4770      	bx	lr
 80024a6:	46c0      	nop			; (mov r8, r8)
 80024a8:	40021000 	.word	0x40021000

080024ac <HAL_I2C_MspInit>:
 80024ac:	b510      	push	{r4, lr}
 80024ae:	0004      	movs	r4, r0
 80024b0:	b086      	sub	sp, #24
 80024b2:	2214      	movs	r2, #20
 80024b4:	2100      	movs	r1, #0
 80024b6:	a801      	add	r0, sp, #4
 80024b8:	f001 fe0a 	bl	80040d0 <memset>
 80024bc:	4b10      	ldr	r3, [pc, #64]	; (8002500 <HAL_I2C_MspInit+0x54>)
 80024be:	6822      	ldr	r2, [r4, #0]
 80024c0:	429a      	cmp	r2, r3
 80024c2:	d11a      	bne.n	80024fa <HAL_I2C_MspInit+0x4e>
 80024c4:	2102      	movs	r1, #2
 80024c6:	4c0f      	ldr	r4, [pc, #60]	; (8002504 <HAL_I2C_MspInit+0x58>)
 80024c8:	480f      	ldr	r0, [pc, #60]	; (8002508 <HAL_I2C_MspInit+0x5c>)
 80024ca:	6ae2      	ldr	r2, [r4, #44]	; 0x2c
 80024cc:	430a      	orrs	r2, r1
 80024ce:	62e2      	str	r2, [r4, #44]	; 0x2c
 80024d0:	6ae3      	ldr	r3, [r4, #44]	; 0x2c
 80024d2:	2203      	movs	r2, #3
 80024d4:	400b      	ands	r3, r1
 80024d6:	9300      	str	r3, [sp, #0]
 80024d8:	9b00      	ldr	r3, [sp, #0]
 80024da:	23c0      	movs	r3, #192	; 0xc0
 80024dc:	9301      	str	r3, [sp, #4]
 80024de:	3bae      	subs	r3, #174	; 0xae
 80024e0:	9302      	str	r3, [sp, #8]
 80024e2:	a901      	add	r1, sp, #4
 80024e4:	3b11      	subs	r3, #17
 80024e6:	9303      	str	r3, [sp, #12]
 80024e8:	9204      	str	r2, [sp, #16]
 80024ea:	9305      	str	r3, [sp, #20]
 80024ec:	f000 f97e 	bl	80027ec <HAL_GPIO_Init>
 80024f0:	2380      	movs	r3, #128	; 0x80
 80024f2:	6ba2      	ldr	r2, [r4, #56]	; 0x38
 80024f4:	039b      	lsls	r3, r3, #14
 80024f6:	4313      	orrs	r3, r2
 80024f8:	63a3      	str	r3, [r4, #56]	; 0x38
 80024fa:	b006      	add	sp, #24
 80024fc:	bd10      	pop	{r4, pc}
 80024fe:	46c0      	nop			; (mov r8, r8)
 8002500:	40005400 	.word	0x40005400
 8002504:	40021000 	.word	0x40021000
 8002508:	50000400 	.word	0x50000400

0800250c <HAL_TIM_Base_MspInit>:
 800250c:	4b09      	ldr	r3, [pc, #36]	; (8002534 <HAL_TIM_Base_MspInit+0x28>)
 800250e:	6802      	ldr	r2, [r0, #0]
 8002510:	b510      	push	{r4, lr}
 8002512:	429a      	cmp	r2, r3
 8002514:	d10c      	bne.n	8002530 <HAL_TIM_Base_MspInit+0x24>
 8002516:	2310      	movs	r3, #16
 8002518:	4a07      	ldr	r2, [pc, #28]	; (8002538 <HAL_TIM_Base_MspInit+0x2c>)
 800251a:	2011      	movs	r0, #17
 800251c:	6b91      	ldr	r1, [r2, #56]	; 0x38
 800251e:	430b      	orrs	r3, r1
 8002520:	6393      	str	r3, [r2, #56]	; 0x38
 8002522:	2200      	movs	r2, #0
 8002524:	0011      	movs	r1, r2
 8002526:	f000 f911 	bl	800274c <HAL_NVIC_SetPriority>
 800252a:	2011      	movs	r0, #17
 800252c:	f000 f938 	bl	80027a0 <HAL_NVIC_EnableIRQ>
 8002530:	bd10      	pop	{r4, pc}
 8002532:	46c0      	nop			; (mov r8, r8)
 8002534:	40001000 	.word	0x40001000
 8002538:	40021000 	.word	0x40021000

0800253c <HAL_UART_MspInit>:
 800253c:	b510      	push	{r4, lr}
 800253e:	0004      	movs	r4, r0
 8002540:	b086      	sub	sp, #24
 8002542:	2214      	movs	r2, #20
 8002544:	2100      	movs	r1, #0
 8002546:	a801      	add	r0, sp, #4
 8002548:	f001 fdc2 	bl	80040d0 <memset>
 800254c:	4b10      	ldr	r3, [pc, #64]	; (8002590 <HAL_UART_MspInit+0x54>)
 800254e:	6822      	ldr	r2, [r4, #0]
 8002550:	429a      	cmp	r2, r3
 8002552:	d11b      	bne.n	800258c <HAL_UART_MspInit+0x50>
 8002554:	2280      	movs	r2, #128	; 0x80
 8002556:	4b0f      	ldr	r3, [pc, #60]	; (8002594 <HAL_UART_MspInit+0x58>)
 8002558:	01d2      	lsls	r2, r2, #7
 800255a:	6b59      	ldr	r1, [r3, #52]	; 0x34
 800255c:	20a0      	movs	r0, #160	; 0xa0
 800255e:	430a      	orrs	r2, r1
 8002560:	2101      	movs	r1, #1
 8002562:	635a      	str	r2, [r3, #52]	; 0x34
 8002564:	6ada      	ldr	r2, [r3, #44]	; 0x2c
 8002566:	05c0      	lsls	r0, r0, #23
 8002568:	430a      	orrs	r2, r1
 800256a:	62da      	str	r2, [r3, #44]	; 0x2c
 800256c:	6adb      	ldr	r3, [r3, #44]	; 0x2c
 800256e:	400b      	ands	r3, r1
 8002570:	9300      	str	r3, [sp, #0]
 8002572:	9b00      	ldr	r3, [sp, #0]
 8002574:	23c0      	movs	r3, #192	; 0xc0
 8002576:	00db      	lsls	r3, r3, #3
 8002578:	9301      	str	r3, [sp, #4]
 800257a:	2302      	movs	r3, #2
 800257c:	9302      	str	r3, [sp, #8]
 800257e:	185b      	adds	r3, r3, r1
 8002580:	9304      	str	r3, [sp, #16]
 8002582:	185b      	adds	r3, r3, r1
 8002584:	a901      	add	r1, sp, #4
 8002586:	9305      	str	r3, [sp, #20]
 8002588:	f000 f930 	bl	80027ec <HAL_GPIO_Init>
 800258c:	b006      	add	sp, #24
 800258e:	bd10      	pop	{r4, pc}
 8002590:	40013800 	.word	0x40013800
 8002594:	40021000 	.word	0x40021000

08002598 <NMI_Handler>:
 8002598:	e7fe      	b.n	8002598 <NMI_Handler>

0800259a <HardFault_Handler>:
 800259a:	e7fe      	b.n	800259a <HardFault_Handler>

0800259c <SVC_Handler>:
 800259c:	4770      	bx	lr

0800259e <PendSV_Handler>:
 800259e:	4770      	bx	lr

080025a0 <SysTick_Handler>:
 80025a0:	b510      	push	{r4, lr}
 80025a2:	f000 f8c1 	bl	8002728 <HAL_IncTick>
 80025a6:	bd10      	pop	{r4, pc}

080025a8 <TIM6_DAC_IRQHandler>:
 80025a8:	b510      	push	{r4, lr}
 80025aa:	4806      	ldr	r0, [pc, #24]	; (80025c4 <TIM6_DAC_IRQHandler+0x1c>)
 80025ac:	f001 fa23 	bl	80039f6 <HAL_TIM_IRQHandler>
 80025b0:	4b05      	ldr	r3, [pc, #20]	; (80025c8 <TIM6_DAC_IRQHandler+0x20>)
 80025b2:	2043      	movs	r0, #67	; 0x43
 80025b4:	6819      	ldr	r1, [r3, #0]
 80025b6:	f7ff fe05 	bl	80021c4 <hts221_get_temp>
 80025ba:	0001      	movs	r1, r0
 80025bc:	4803      	ldr	r0, [pc, #12]	; (80025cc <TIM6_DAC_IRQHandler+0x24>)
 80025be:	f001 fe37 	bl	8004230 <iprintf>
 80025c2:	bd10      	pop	{r4, pc}
 80025c4:	2000016c 	.word	0x2000016c
 80025c8:	200000e4 	.word	0x200000e4
 80025cc:	0800523c 	.word	0x0800523c

080025d0 <_read>:
 80025d0:	b570      	push	{r4, r5, r6, lr}
 80025d2:	000e      	movs	r6, r1
 80025d4:	0015      	movs	r5, r2
 80025d6:	000c      	movs	r4, r1
 80025d8:	1ba3      	subs	r3, r4, r6
 80025da:	429d      	cmp	r5, r3
 80025dc:	dc01      	bgt.n	80025e2 <_read+0x12>
 80025de:	0028      	movs	r0, r5
 80025e0:	bd70      	pop	{r4, r5, r6, pc}
 80025e2:	e000      	b.n	80025e6 <_read+0x16>
 80025e4:	bf00      	nop
 80025e6:	7020      	strb	r0, [r4, #0]
 80025e8:	3401      	adds	r4, #1
 80025ea:	e7f5      	b.n	80025d8 <_read+0x8>

080025ec <_write>:
 80025ec:	b570      	push	{r4, r5, r6, lr}
 80025ee:	000e      	movs	r6, r1
 80025f0:	0015      	movs	r5, r2
 80025f2:	000c      	movs	r4, r1
 80025f4:	1ba3      	subs	r3, r4, r6
 80025f6:	429d      	cmp	r5, r3
 80025f8:	dc01      	bgt.n	80025fe <_write+0x12>
 80025fa:	0028      	movs	r0, r5
 80025fc:	bd70      	pop	{r4, r5, r6, pc}
 80025fe:	7820      	ldrb	r0, [r4, #0]
 8002600:	f7ff fe5a 	bl	80022b8 <__io_putchar>
 8002604:	3401      	adds	r4, #1
 8002606:	e7f5      	b.n	80025f4 <_write+0x8>

08002608 <_close>:
 8002608:	2001      	movs	r0, #1
 800260a:	4240      	negs	r0, r0
 800260c:	4770      	bx	lr

0800260e <_fstat>:
 800260e:	2380      	movs	r3, #128	; 0x80
 8002610:	019b      	lsls	r3, r3, #6
 8002612:	2000      	movs	r0, #0
 8002614:	604b      	str	r3, [r1, #4]
 8002616:	4770      	bx	lr

08002618 <_isatty>:
 8002618:	2001      	movs	r0, #1
 800261a:	4770      	bx	lr

0800261c <_lseek>:
 800261c:	2000      	movs	r0, #0
 800261e:	4770      	bx	lr

08002620 <_sbrk>:
 8002620:	4b0b      	ldr	r3, [pc, #44]	; (8002650 <_sbrk+0x30>)
 8002622:	490c      	ldr	r1, [pc, #48]	; (8002654 <_sbrk+0x34>)
 8002624:	0002      	movs	r2, r0
 8002626:	1ac9      	subs	r1, r1, r3
 8002628:	4b0b      	ldr	r3, [pc, #44]	; (8002658 <_sbrk+0x38>)
 800262a:	b510      	push	{r4, lr}
 800262c:	6818      	ldr	r0, [r3, #0]
 800262e:	2800      	cmp	r0, #0
 8002630:	d101      	bne.n	8002636 <_sbrk+0x16>
 8002632:	480a      	ldr	r0, [pc, #40]	; (800265c <_sbrk+0x3c>)
 8002634:	6018      	str	r0, [r3, #0]
 8002636:	6818      	ldr	r0, [r3, #0]
 8002638:	1882      	adds	r2, r0, r2
 800263a:	428a      	cmp	r2, r1
 800263c:	d906      	bls.n	800264c <_sbrk+0x2c>
 800263e:	f001 fd13 	bl	8004068 <__errno>
 8002642:	230c      	movs	r3, #12
 8002644:	6003      	str	r3, [r0, #0]
 8002646:	2001      	movs	r0, #1
 8002648:	4240      	negs	r0, r0
 800264a:	bd10      	pop	{r4, pc}
 800264c:	601a      	str	r2, [r3, #0]
 800264e:	e7fc      	b.n	800264a <_sbrk+0x2a>
 8002650:	00000400 	.word	0x00000400
 8002654:	20002000 	.word	0x20002000
 8002658:	2000008c 	.word	0x2000008c
 800265c:	200001b8 	.word	0x200001b8

08002660 <SystemInit>:
 8002660:	4770      	bx	lr
	...

08002664 <Reset_Handler>:
 8002664:	480d      	ldr	r0, [pc, #52]	; (800269c <LoopForever+0x2>)
 8002666:	4685      	mov	sp, r0
 8002668:	480d      	ldr	r0, [pc, #52]	; (80026a0 <LoopForever+0x6>)
 800266a:	490e      	ldr	r1, [pc, #56]	; (80026a4 <LoopForever+0xa>)
 800266c:	4a0e      	ldr	r2, [pc, #56]	; (80026a8 <LoopForever+0xe>)
 800266e:	2300      	movs	r3, #0
 8002670:	e002      	b.n	8002678 <LoopCopyDataInit>

08002672 <CopyDataInit>:
 8002672:	58d4      	ldr	r4, [r2, r3]
 8002674:	50c4      	str	r4, [r0, r3]
 8002676:	3304      	adds	r3, #4

08002678 <LoopCopyDataInit>:
 8002678:	18c4      	adds	r4, r0, r3
 800267a:	428c      	cmp	r4, r1
 800267c:	d3f9      	bcc.n	8002672 <CopyDataInit>
 800267e:	4a0b      	ldr	r2, [pc, #44]	; (80026ac <LoopForever+0x12>)
 8002680:	4c0b      	ldr	r4, [pc, #44]	; (80026b0 <LoopForever+0x16>)
 8002682:	2300      	movs	r3, #0
 8002684:	e001      	b.n	800268a <LoopFillZerobss>

08002686 <FillZerobss>:
 8002686:	6013      	str	r3, [r2, #0]
 8002688:	3204      	adds	r2, #4

0800268a <LoopFillZerobss>:
 800268a:	42a2      	cmp	r2, r4
 800268c:	d3fb      	bcc.n	8002686 <FillZerobss>
 800268e:	f7ff ffe7 	bl	8002660 <SystemInit>
 8002692:	f001 fcef 	bl	8004074 <__libc_init_array>
 8002696:	f7ff fe65 	bl	8002364 <main>

0800269a <LoopForever>:
 800269a:	e7fe      	b.n	800269a <LoopForever>
 800269c:	20002000 	.word	0x20002000
 80026a0:	20000000 	.word	0x20000000
 80026a4:	20000070 	.word	0x20000070
 80026a8:	08005334 	.word	0x08005334
 80026ac:	20000070 	.word	0x20000070
 80026b0:	200001b4 	.word	0x200001b4

080026b4 <ADC1_COMP_IRQHandler>:
 80026b4:	e7fe      	b.n	80026b4 <ADC1_COMP_IRQHandler>
	...

080026b8 <HAL_InitTick>:
 80026b8:	b570      	push	{r4, r5, r6, lr}
 80026ba:	0005      	movs	r5, r0
 80026bc:	20fa      	movs	r0, #250	; 0xfa
 80026be:	4b0d      	ldr	r3, [pc, #52]	; (80026f4 <HAL_InitTick+0x3c>)
 80026c0:	0080      	lsls	r0, r0, #2
 80026c2:	7819      	ldrb	r1, [r3, #0]
 80026c4:	f7fd fd34 	bl	8000130 <__udivsi3>
 80026c8:	4b0b      	ldr	r3, [pc, #44]	; (80026f8 <HAL_InitTick+0x40>)
 80026ca:	0001      	movs	r1, r0
 80026cc:	6818      	ldr	r0, [r3, #0]
 80026ce:	f7fd fd2f 	bl	8000130 <__udivsi3>
 80026d2:	f000 f871 	bl	80027b8 <HAL_SYSTICK_Config>
 80026d6:	0004      	movs	r4, r0
 80026d8:	2001      	movs	r0, #1
 80026da:	2c00      	cmp	r4, #0
 80026dc:	d109      	bne.n	80026f2 <HAL_InitTick+0x3a>
 80026de:	2d03      	cmp	r5, #3
 80026e0:	d807      	bhi.n	80026f2 <HAL_InitTick+0x3a>
 80026e2:	3802      	subs	r0, #2
 80026e4:	0022      	movs	r2, r4
 80026e6:	0029      	movs	r1, r5
 80026e8:	f000 f830 	bl	800274c <HAL_NVIC_SetPriority>
 80026ec:	0020      	movs	r0, r4
 80026ee:	4b03      	ldr	r3, [pc, #12]	; (80026fc <HAL_InitTick+0x44>)
 80026f0:	601d      	str	r5, [r3, #0]
 80026f2:	bd70      	pop	{r4, r5, r6, pc}
 80026f4:	20000004 	.word	0x20000004
 80026f8:	20000000 	.word	0x20000000
 80026fc:	20000008 	.word	0x20000008

08002700 <HAL_Init>:
 8002700:	2340      	movs	r3, #64	; 0x40
 8002702:	4a08      	ldr	r2, [pc, #32]	; (8002724 <HAL_Init+0x24>)
 8002704:	b510      	push	{r4, lr}
 8002706:	6811      	ldr	r1, [r2, #0]
 8002708:	2000      	movs	r0, #0
 800270a:	430b      	orrs	r3, r1
 800270c:	6013      	str	r3, [r2, #0]
 800270e:	f7ff ffd3 	bl	80026b8 <HAL_InitTick>
 8002712:	1e04      	subs	r4, r0, #0
 8002714:	d103      	bne.n	800271e <HAL_Init+0x1e>
 8002716:	f7ff febb 	bl	8002490 <HAL_MspInit>
 800271a:	0020      	movs	r0, r4
 800271c:	bd10      	pop	{r4, pc}
 800271e:	2401      	movs	r4, #1
 8002720:	e7fb      	b.n	800271a <HAL_Init+0x1a>
 8002722:	46c0      	nop			; (mov r8, r8)
 8002724:	40022000 	.word	0x40022000

08002728 <HAL_IncTick>:
 8002728:	4a03      	ldr	r2, [pc, #12]	; (8002738 <HAL_IncTick+0x10>)
 800272a:	4b04      	ldr	r3, [pc, #16]	; (800273c <HAL_IncTick+0x14>)
 800272c:	6811      	ldr	r1, [r2, #0]
 800272e:	781b      	ldrb	r3, [r3, #0]
 8002730:	185b      	adds	r3, r3, r1
 8002732:	6013      	str	r3, [r2, #0]
 8002734:	4770      	bx	lr
 8002736:	46c0      	nop			; (mov r8, r8)
 8002738:	200001ac 	.word	0x200001ac
 800273c:	20000004 	.word	0x20000004

08002740 <HAL_GetTick>:
 8002740:	4b01      	ldr	r3, [pc, #4]	; (8002748 <HAL_GetTick+0x8>)
 8002742:	6818      	ldr	r0, [r3, #0]
 8002744:	4770      	bx	lr
 8002746:	46c0      	nop			; (mov r8, r8)
 8002748:	200001ac 	.word	0x200001ac

0800274c <HAL_NVIC_SetPriority>:
 800274c:	b530      	push	{r4, r5, lr}
 800274e:	25ff      	movs	r5, #255	; 0xff
 8002750:	2403      	movs	r4, #3
 8002752:	002a      	movs	r2, r5
 8002754:	b2c3      	uxtb	r3, r0
 8002756:	401c      	ands	r4, r3
 8002758:	00e4      	lsls	r4, r4, #3
 800275a:	40a2      	lsls	r2, r4
 800275c:	0189      	lsls	r1, r1, #6
 800275e:	4029      	ands	r1, r5
 8002760:	43d2      	mvns	r2, r2
 8002762:	40a1      	lsls	r1, r4
 8002764:	2800      	cmp	r0, #0
 8002766:	db0a      	blt.n	800277e <HAL_NVIC_SetPriority+0x32>
 8002768:	24c0      	movs	r4, #192	; 0xc0
 800276a:	4b0b      	ldr	r3, [pc, #44]	; (8002798 <HAL_NVIC_SetPriority+0x4c>)
 800276c:	0880      	lsrs	r0, r0, #2
 800276e:	0080      	lsls	r0, r0, #2
 8002770:	18c0      	adds	r0, r0, r3
 8002772:	00a4      	lsls	r4, r4, #2
 8002774:	5903      	ldr	r3, [r0, r4]
 8002776:	401a      	ands	r2, r3
 8002778:	4311      	orrs	r1, r2
 800277a:	5101      	str	r1, [r0, r4]
 800277c:	bd30      	pop	{r4, r5, pc}
 800277e:	200f      	movs	r0, #15
 8002780:	4003      	ands	r3, r0
 8002782:	3b08      	subs	r3, #8
 8002784:	4805      	ldr	r0, [pc, #20]	; (800279c <HAL_NVIC_SetPriority+0x50>)
 8002786:	089b      	lsrs	r3, r3, #2
 8002788:	009b      	lsls	r3, r3, #2
 800278a:	181b      	adds	r3, r3, r0
 800278c:	69d8      	ldr	r0, [r3, #28]
 800278e:	4002      	ands	r2, r0
 8002790:	4311      	orrs	r1, r2
 8002792:	61d9      	str	r1, [r3, #28]
 8002794:	e7f2      	b.n	800277c <HAL_NVIC_SetPriority+0x30>
 8002796:	46c0      	nop			; (mov r8, r8)
 8002798:	e000e100 	.word	0xe000e100
 800279c:	e000ed00 	.word	0xe000ed00

080027a0 <HAL_NVIC_EnableIRQ>:
 80027a0:	2800      	cmp	r0, #0
 80027a2:	db05      	blt.n	80027b0 <HAL_NVIC_EnableIRQ+0x10>
 80027a4:	231f      	movs	r3, #31
 80027a6:	4018      	ands	r0, r3
 80027a8:	3b1e      	subs	r3, #30
 80027aa:	4083      	lsls	r3, r0
 80027ac:	4a01      	ldr	r2, [pc, #4]	; (80027b4 <HAL_NVIC_EnableIRQ+0x14>)
 80027ae:	6013      	str	r3, [r2, #0]
 80027b0:	4770      	bx	lr
 80027b2:	46c0      	nop			; (mov r8, r8)
 80027b4:	e000e100 	.word	0xe000e100

080027b8 <HAL_SYSTICK_Config>:
 80027b8:	4a09      	ldr	r2, [pc, #36]	; (80027e0 <HAL_SYSTICK_Config+0x28>)
 80027ba:	1e43      	subs	r3, r0, #1
 80027bc:	2001      	movs	r0, #1
 80027be:	4293      	cmp	r3, r2
 80027c0:	d80d      	bhi.n	80027de <HAL_SYSTICK_Config+0x26>
 80027c2:	21c0      	movs	r1, #192	; 0xc0
 80027c4:	4a07      	ldr	r2, [pc, #28]	; (80027e4 <HAL_SYSTICK_Config+0x2c>)
 80027c6:	4808      	ldr	r0, [pc, #32]	; (80027e8 <HAL_SYSTICK_Config+0x30>)
 80027c8:	6053      	str	r3, [r2, #4]
 80027ca:	6a03      	ldr	r3, [r0, #32]
 80027cc:	0609      	lsls	r1, r1, #24
 80027ce:	021b      	lsls	r3, r3, #8
 80027d0:	0a1b      	lsrs	r3, r3, #8
 80027d2:	430b      	orrs	r3, r1
 80027d4:	6203      	str	r3, [r0, #32]
 80027d6:	2000      	movs	r0, #0
 80027d8:	2307      	movs	r3, #7
 80027da:	6090      	str	r0, [r2, #8]
 80027dc:	6013      	str	r3, [r2, #0]
 80027de:	4770      	bx	lr
 80027e0:	00ffffff 	.word	0x00ffffff
 80027e4:	e000e010 	.word	0xe000e010
 80027e8:	e000ed00 	.word	0xe000ed00

080027ec <HAL_GPIO_Init>:
 80027ec:	b5f0      	push	{r4, r5, r6, r7, lr}
 80027ee:	4a57      	ldr	r2, [pc, #348]	; (800294c <HAL_GPIO_Init+0x160>)
 80027f0:	680b      	ldr	r3, [r1, #0]
 80027f2:	1882      	adds	r2, r0, r2
 80027f4:	1e54      	subs	r4, r2, #1
 80027f6:	41a2      	sbcs	r2, r4
 80027f8:	b087      	sub	sp, #28
 80027fa:	9304      	str	r3, [sp, #16]
 80027fc:	2300      	movs	r3, #0
 80027fe:	3205      	adds	r2, #5
 8002800:	9205      	str	r2, [sp, #20]
 8002802:	9a04      	ldr	r2, [sp, #16]
 8002804:	40da      	lsrs	r2, r3
 8002806:	d101      	bne.n	800280c <HAL_GPIO_Init+0x20>
 8002808:	b007      	add	sp, #28
 800280a:	bdf0      	pop	{r4, r5, r6, r7, pc}
 800280c:	2701      	movs	r7, #1
 800280e:	003a      	movs	r2, r7
 8002810:	409a      	lsls	r2, r3
 8002812:	9203      	str	r2, [sp, #12]
 8002814:	9c03      	ldr	r4, [sp, #12]
 8002816:	9a04      	ldr	r2, [sp, #16]
 8002818:	4022      	ands	r2, r4
 800281a:	9202      	str	r2, [sp, #8]
 800281c:	d100      	bne.n	8002820 <HAL_GPIO_Init+0x34>
 800281e:	e092      	b.n	8002946 <HAL_GPIO_Init+0x15a>
 8002820:	684a      	ldr	r2, [r1, #4]
 8002822:	005c      	lsls	r4, r3, #1
 8002824:	9201      	str	r2, [sp, #4]
 8002826:	2210      	movs	r2, #16
 8002828:	9e01      	ldr	r6, [sp, #4]
 800282a:	4396      	bics	r6, r2
 800282c:	3a0d      	subs	r2, #13
 800282e:	40a2      	lsls	r2, r4
 8002830:	43d2      	mvns	r2, r2
 8002832:	4694      	mov	ip, r2
 8002834:	1e72      	subs	r2, r6, #1
 8002836:	42ba      	cmp	r2, r7
 8002838:	d80f      	bhi.n	800285a <HAL_GPIO_Init+0x6e>
 800283a:	4662      	mov	r2, ip
 800283c:	6885      	ldr	r5, [r0, #8]
 800283e:	4015      	ands	r5, r2
 8002840:	68ca      	ldr	r2, [r1, #12]
 8002842:	40a2      	lsls	r2, r4
 8002844:	432a      	orrs	r2, r5
 8002846:	6082      	str	r2, [r0, #8]
 8002848:	6845      	ldr	r5, [r0, #4]
 800284a:	9a03      	ldr	r2, [sp, #12]
 800284c:	4395      	bics	r5, r2
 800284e:	9a01      	ldr	r2, [sp, #4]
 8002850:	0912      	lsrs	r2, r2, #4
 8002852:	403a      	ands	r2, r7
 8002854:	409a      	lsls	r2, r3
 8002856:	432a      	orrs	r2, r5
 8002858:	6042      	str	r2, [r0, #4]
 800285a:	4662      	mov	r2, ip
 800285c:	68c5      	ldr	r5, [r0, #12]
 800285e:	4015      	ands	r5, r2
 8002860:	688a      	ldr	r2, [r1, #8]
 8002862:	40a2      	lsls	r2, r4
 8002864:	432a      	orrs	r2, r5
 8002866:	60c2      	str	r2, [r0, #12]
 8002868:	2e02      	cmp	r6, #2
 800286a:	d10d      	bne.n	8002888 <HAL_GPIO_Init+0x9c>
 800286c:	2507      	movs	r5, #7
 800286e:	270f      	movs	r7, #15
 8002870:	401d      	ands	r5, r3
 8002872:	00ad      	lsls	r5, r5, #2
 8002874:	40af      	lsls	r7, r5
 8002876:	08da      	lsrs	r2, r3, #3
 8002878:	0092      	lsls	r2, r2, #2
 800287a:	1882      	adds	r2, r0, r2
 800287c:	6a16      	ldr	r6, [r2, #32]
 800287e:	43be      	bics	r6, r7
 8002880:	690f      	ldr	r7, [r1, #16]
 8002882:	40af      	lsls	r7, r5
 8002884:	433e      	orrs	r6, r7
 8002886:	6216      	str	r6, [r2, #32]
 8002888:	4662      	mov	r2, ip
 800288a:	2603      	movs	r6, #3
 800288c:	6805      	ldr	r5, [r0, #0]
 800288e:	402a      	ands	r2, r5
 8002890:	0015      	movs	r5, r2
 8002892:	9a01      	ldr	r2, [sp, #4]
 8002894:	4032      	ands	r2, r6
 8002896:	40a2      	lsls	r2, r4
 8002898:	432a      	orrs	r2, r5
 800289a:	6002      	str	r2, [r0, #0]
 800289c:	9a01      	ldr	r2, [sp, #4]
 800289e:	00d2      	lsls	r2, r2, #3
 80028a0:	d551      	bpl.n	8002946 <HAL_GPIO_Init+0x15a>
 80028a2:	2501      	movs	r5, #1
 80028a4:	4c2a      	ldr	r4, [pc, #168]	; (8002950 <HAL_GPIO_Init+0x164>)
 80028a6:	6b62      	ldr	r2, [r4, #52]	; 0x34
 80028a8:	432a      	orrs	r2, r5
 80028aa:	6362      	str	r2, [r4, #52]	; 0x34
 80028ac:	4a29      	ldr	r2, [pc, #164]	; (8002954 <HAL_GPIO_Init+0x168>)
 80028ae:	089c      	lsrs	r4, r3, #2
 80028b0:	00a4      	lsls	r4, r4, #2
 80028b2:	18a4      	adds	r4, r4, r2
 80028b4:	68a2      	ldr	r2, [r4, #8]
 80028b6:	001d      	movs	r5, r3
 80028b8:	4694      	mov	ip, r2
 80028ba:	220f      	movs	r2, #15
 80028bc:	4035      	ands	r5, r6
 80028be:	00ad      	lsls	r5, r5, #2
 80028c0:	40aa      	lsls	r2, r5
 80028c2:	4667      	mov	r7, ip
 80028c4:	4397      	bics	r7, r2
 80028c6:	22a0      	movs	r2, #160	; 0xa0
 80028c8:	05d2      	lsls	r2, r2, #23
 80028ca:	4694      	mov	ip, r2
 80028cc:	9703      	str	r7, [sp, #12]
 80028ce:	2200      	movs	r2, #0
 80028d0:	4560      	cmp	r0, ip
 80028d2:	d00d      	beq.n	80028f0 <HAL_GPIO_Init+0x104>
 80028d4:	4a20      	ldr	r2, [pc, #128]	; (8002958 <HAL_GPIO_Init+0x16c>)
 80028d6:	4694      	mov	ip, r2
 80028d8:	2201      	movs	r2, #1
 80028da:	4560      	cmp	r0, ip
 80028dc:	d008      	beq.n	80028f0 <HAL_GPIO_Init+0x104>
 80028de:	4f1f      	ldr	r7, [pc, #124]	; (800295c <HAL_GPIO_Init+0x170>)
 80028e0:	1892      	adds	r2, r2, r2
 80028e2:	42b8      	cmp	r0, r7
 80028e4:	d004      	beq.n	80028f0 <HAL_GPIO_Init+0x104>
 80028e6:	4f1e      	ldr	r7, [pc, #120]	; (8002960 <HAL_GPIO_Init+0x174>)
 80028e8:	0032      	movs	r2, r6
 80028ea:	42b8      	cmp	r0, r7
 80028ec:	d000      	beq.n	80028f0 <HAL_GPIO_Init+0x104>
 80028ee:	9a05      	ldr	r2, [sp, #20]
 80028f0:	40aa      	lsls	r2, r5
 80028f2:	9d03      	ldr	r5, [sp, #12]
 80028f4:	9f01      	ldr	r7, [sp, #4]
 80028f6:	432a      	orrs	r2, r5
 80028f8:	60a2      	str	r2, [r4, #8]
 80028fa:	4a1a      	ldr	r2, [pc, #104]	; (8002964 <HAL_GPIO_Init+0x178>)
 80028fc:	9c02      	ldr	r4, [sp, #8]
 80028fe:	6816      	ldr	r6, [r2, #0]
 8002900:	9d02      	ldr	r5, [sp, #8]
 8002902:	43e4      	mvns	r4, r4
 8002904:	4335      	orrs	r5, r6
 8002906:	03ff      	lsls	r7, r7, #15
 8002908:	d401      	bmi.n	800290e <HAL_GPIO_Init+0x122>
 800290a:	0035      	movs	r5, r6
 800290c:	4025      	ands	r5, r4
 800290e:	6015      	str	r5, [r2, #0]
 8002910:	6856      	ldr	r6, [r2, #4]
 8002912:	9d02      	ldr	r5, [sp, #8]
 8002914:	9f01      	ldr	r7, [sp, #4]
 8002916:	4335      	orrs	r5, r6
 8002918:	03bf      	lsls	r7, r7, #14
 800291a:	d401      	bmi.n	8002920 <HAL_GPIO_Init+0x134>
 800291c:	0035      	movs	r5, r6
 800291e:	4025      	ands	r5, r4
 8002920:	6055      	str	r5, [r2, #4]
 8002922:	6896      	ldr	r6, [r2, #8]
 8002924:	9d02      	ldr	r5, [sp, #8]
 8002926:	9f01      	ldr	r7, [sp, #4]
 8002928:	4335      	orrs	r5, r6
 800292a:	02ff      	lsls	r7, r7, #11
 800292c:	d401      	bmi.n	8002932 <HAL_GPIO_Init+0x146>
 800292e:	0035      	movs	r5, r6
 8002930:	4025      	ands	r5, r4
 8002932:	6095      	str	r5, [r2, #8]
 8002934:	68d5      	ldr	r5, [r2, #12]
 8002936:	9e02      	ldr	r6, [sp, #8]
 8002938:	9f01      	ldr	r7, [sp, #4]
 800293a:	432e      	orrs	r6, r5
 800293c:	02bf      	lsls	r7, r7, #10
 800293e:	d401      	bmi.n	8002944 <HAL_GPIO_Init+0x158>
 8002940:	4025      	ands	r5, r4
 8002942:	002e      	movs	r6, r5
 8002944:	60d6      	str	r6, [r2, #12]
 8002946:	3301      	adds	r3, #1
 8002948:	e75b      	b.n	8002802 <HAL_GPIO_Init+0x16>
 800294a:	46c0      	nop			; (mov r8, r8)
 800294c:	afffe400 	.word	0xafffe400
 8002950:	40021000 	.word	0x40021000
 8002954:	40010000 	.word	0x40010000
 8002958:	50000400 	.word	0x50000400
 800295c:	50000800 	.word	0x50000800
 8002960:	50000c00 	.word	0x50000c00
 8002964:	40010400 	.word	0x40010400

08002968 <I2C_Flush_TXDR>:
 8002968:	6803      	ldr	r3, [r0, #0]
 800296a:	699a      	ldr	r2, [r3, #24]
 800296c:	0792      	lsls	r2, r2, #30
 800296e:	d501      	bpl.n	8002974 <I2C_Flush_TXDR+0xc>
 8002970:	2200      	movs	r2, #0
 8002972:	629a      	str	r2, [r3, #40]	; 0x28
 8002974:	2201      	movs	r2, #1
 8002976:	6999      	ldr	r1, [r3, #24]
 8002978:	4211      	tst	r1, r2
 800297a:	d102      	bne.n	8002982 <I2C_Flush_TXDR+0x1a>
 800297c:	6999      	ldr	r1, [r3, #24]
 800297e:	430a      	orrs	r2, r1
 8002980:	619a      	str	r2, [r3, #24]
 8002982:	4770      	bx	lr

08002984 <I2C_TransferConfig>:
 8002984:	b530      	push	{r4, r5, lr}
 8002986:	9c03      	ldr	r4, [sp, #12]
 8002988:	0412      	lsls	r2, r2, #16
 800298a:	6800      	ldr	r0, [r0, #0]
 800298c:	4322      	orrs	r2, r4
 800298e:	4313      	orrs	r3, r2
 8002990:	4a05      	ldr	r2, [pc, #20]	; (80029a8 <I2C_TransferConfig+0x24>)
 8002992:	6845      	ldr	r5, [r0, #4]
 8002994:	0589      	lsls	r1, r1, #22
 8002996:	0d64      	lsrs	r4, r4, #21
 8002998:	0d89      	lsrs	r1, r1, #22
 800299a:	4314      	orrs	r4, r2
 800299c:	43a5      	bics	r5, r4
 800299e:	430b      	orrs	r3, r1
 80029a0:	432b      	orrs	r3, r5
 80029a2:	6043      	str	r3, [r0, #4]
 80029a4:	bd30      	pop	{r4, r5, pc}
 80029a6:	46c0      	nop			; (mov r8, r8)
 80029a8:	03ff63ff 	.word	0x03ff63ff

080029ac <I2C_IsAcknowledgeFailed>:
 80029ac:	b5f8      	push	{r3, r4, r5, r6, r7, lr}
 80029ae:	6803      	ldr	r3, [r0, #0]
 80029b0:	0004      	movs	r4, r0
 80029b2:	6998      	ldr	r0, [r3, #24]
 80029b4:	2310      	movs	r3, #16
 80029b6:	000e      	movs	r6, r1
 80029b8:	0017      	movs	r7, r2
 80029ba:	4018      	ands	r0, r3
 80029bc:	2520      	movs	r5, #32
 80029be:	2800      	cmp	r0, #0
 80029c0:	d118      	bne.n	80029f4 <I2C_IsAcknowledgeFailed+0x48>
 80029c2:	bdf8      	pop	{r3, r4, r5, r6, r7, pc}
 80029c4:	1c72      	adds	r2, r6, #1
 80029c6:	d016      	beq.n	80029f6 <I2C_IsAcknowledgeFailed+0x4a>
 80029c8:	f7ff feba 	bl	8002740 <HAL_GetTick>
 80029cc:	1bc0      	subs	r0, r0, r7
 80029ce:	42b0      	cmp	r0, r6
 80029d0:	d801      	bhi.n	80029d6 <I2C_IsAcknowledgeFailed+0x2a>
 80029d2:	2e00      	cmp	r6, #0
 80029d4:	d10e      	bne.n	80029f4 <I2C_IsAcknowledgeFailed+0x48>
 80029d6:	2220      	movs	r2, #32
 80029d8:	6c63      	ldr	r3, [r4, #68]	; 0x44
 80029da:	4313      	orrs	r3, r2
 80029dc:	6463      	str	r3, [r4, #68]	; 0x44
 80029de:	0023      	movs	r3, r4
 80029e0:	3341      	adds	r3, #65	; 0x41
 80029e2:	701a      	strb	r2, [r3, #0]
 80029e4:	0022      	movs	r2, r4
 80029e6:	2300      	movs	r3, #0
 80029e8:	3242      	adds	r2, #66	; 0x42
 80029ea:	3440      	adds	r4, #64	; 0x40
 80029ec:	7013      	strb	r3, [r2, #0]
 80029ee:	2001      	movs	r0, #1
 80029f0:	7023      	strb	r3, [r4, #0]
 80029f2:	e7e6      	b.n	80029c2 <I2C_IsAcknowledgeFailed+0x16>
 80029f4:	6823      	ldr	r3, [r4, #0]
 80029f6:	699a      	ldr	r2, [r3, #24]
 80029f8:	422a      	tst	r2, r5
 80029fa:	d0e3      	beq.n	80029c4 <I2C_IsAcknowledgeFailed+0x18>
 80029fc:	2210      	movs	r2, #16
 80029fe:	0020      	movs	r0, r4
 8002a00:	61da      	str	r2, [r3, #28]
 8002a02:	61dd      	str	r5, [r3, #28]
 8002a04:	f7ff ffb0 	bl	8002968 <I2C_Flush_TXDR>
 8002a08:	6822      	ldr	r2, [r4, #0]
 8002a0a:	4906      	ldr	r1, [pc, #24]	; (8002a24 <I2C_IsAcknowledgeFailed+0x78>)
 8002a0c:	6853      	ldr	r3, [r2, #4]
 8002a0e:	400b      	ands	r3, r1
 8002a10:	6053      	str	r3, [r2, #4]
 8002a12:	2304      	movs	r3, #4
 8002a14:	6c62      	ldr	r2, [r4, #68]	; 0x44
 8002a16:	4313      	orrs	r3, r2
 8002a18:	6463      	str	r3, [r4, #68]	; 0x44
 8002a1a:	0023      	movs	r3, r4
 8002a1c:	3341      	adds	r3, #65	; 0x41
 8002a1e:	701d      	strb	r5, [r3, #0]
 8002a20:	e7e0      	b.n	80029e4 <I2C_IsAcknowledgeFailed+0x38>
 8002a22:	46c0      	nop			; (mov r8, r8)
 8002a24:	fe00e800 	.word	0xfe00e800

08002a28 <I2C_WaitOnSTOPFlagUntilTimeout>:
 8002a28:	b5f8      	push	{r3, r4, r5, r6, r7, lr}
 8002a2a:	0004      	movs	r4, r0
 8002a2c:	000d      	movs	r5, r1
 8002a2e:	0016      	movs	r6, r2
 8002a30:	2720      	movs	r7, #32
 8002a32:	6823      	ldr	r3, [r4, #0]
 8002a34:	699b      	ldr	r3, [r3, #24]
 8002a36:	423b      	tst	r3, r7
 8002a38:	d001      	beq.n	8002a3e <I2C_WaitOnSTOPFlagUntilTimeout+0x16>
 8002a3a:	2000      	movs	r0, #0
 8002a3c:	bdf8      	pop	{r3, r4, r5, r6, r7, pc}
 8002a3e:	0032      	movs	r2, r6
 8002a40:	0029      	movs	r1, r5
 8002a42:	0020      	movs	r0, r4
 8002a44:	f7ff ffb2 	bl	80029ac <I2C_IsAcknowledgeFailed>
 8002a48:	2800      	cmp	r0, #0
 8002a4a:	d113      	bne.n	8002a74 <I2C_WaitOnSTOPFlagUntilTimeout+0x4c>
 8002a4c:	f7ff fe78 	bl	8002740 <HAL_GetTick>
 8002a50:	1b80      	subs	r0, r0, r6
 8002a52:	42a8      	cmp	r0, r5
 8002a54:	d801      	bhi.n	8002a5a <I2C_WaitOnSTOPFlagUntilTimeout+0x32>
 8002a56:	2d00      	cmp	r5, #0
 8002a58:	d1eb      	bne.n	8002a32 <I2C_WaitOnSTOPFlagUntilTimeout+0xa>
 8002a5a:	2220      	movs	r2, #32
 8002a5c:	6c63      	ldr	r3, [r4, #68]	; 0x44
 8002a5e:	4313      	orrs	r3, r2
 8002a60:	6463      	str	r3, [r4, #68]	; 0x44
 8002a62:	0023      	movs	r3, r4
 8002a64:	3341      	adds	r3, #65	; 0x41
 8002a66:	701a      	strb	r2, [r3, #0]
 8002a68:	0022      	movs	r2, r4
 8002a6a:	2300      	movs	r3, #0
 8002a6c:	3242      	adds	r2, #66	; 0x42
 8002a6e:	3440      	adds	r4, #64	; 0x40
 8002a70:	7013      	strb	r3, [r2, #0]
 8002a72:	7023      	strb	r3, [r4, #0]
 8002a74:	2001      	movs	r0, #1
 8002a76:	e7e1      	b.n	8002a3c <I2C_WaitOnSTOPFlagUntilTimeout+0x14>

08002a78 <I2C_WaitOnFlagUntilTimeout>:
 8002a78:	b5f8      	push	{r3, r4, r5, r6, r7, lr}
 8002a7a:	0004      	movs	r4, r0
 8002a7c:	000e      	movs	r6, r1
 8002a7e:	0017      	movs	r7, r2
 8002a80:	001d      	movs	r5, r3
 8002a82:	6822      	ldr	r2, [r4, #0]
 8002a84:	6993      	ldr	r3, [r2, #24]
 8002a86:	4033      	ands	r3, r6
 8002a88:	1b9b      	subs	r3, r3, r6
 8002a8a:	4259      	negs	r1, r3
 8002a8c:	414b      	adcs	r3, r1
 8002a8e:	42bb      	cmp	r3, r7
 8002a90:	d001      	beq.n	8002a96 <I2C_WaitOnFlagUntilTimeout+0x1e>
 8002a92:	2000      	movs	r0, #0
 8002a94:	e017      	b.n	8002ac6 <I2C_WaitOnFlagUntilTimeout+0x4e>
 8002a96:	1c6b      	adds	r3, r5, #1
 8002a98:	d0f4      	beq.n	8002a84 <I2C_WaitOnFlagUntilTimeout+0xc>
 8002a9a:	f7ff fe51 	bl	8002740 <HAL_GetTick>
 8002a9e:	9b06      	ldr	r3, [sp, #24]
 8002aa0:	1ac0      	subs	r0, r0, r3
 8002aa2:	42a8      	cmp	r0, r5
 8002aa4:	d801      	bhi.n	8002aaa <I2C_WaitOnFlagUntilTimeout+0x32>
 8002aa6:	2d00      	cmp	r5, #0
 8002aa8:	d1eb      	bne.n	8002a82 <I2C_WaitOnFlagUntilTimeout+0xa>
 8002aaa:	2220      	movs	r2, #32
 8002aac:	6c63      	ldr	r3, [r4, #68]	; 0x44
 8002aae:	2001      	movs	r0, #1
 8002ab0:	4313      	orrs	r3, r2
 8002ab2:	6463      	str	r3, [r4, #68]	; 0x44
 8002ab4:	0023      	movs	r3, r4
 8002ab6:	3341      	adds	r3, #65	; 0x41
 8002ab8:	701a      	strb	r2, [r3, #0]
 8002aba:	0022      	movs	r2, r4
 8002abc:	2300      	movs	r3, #0
 8002abe:	3242      	adds	r2, #66	; 0x42
 8002ac0:	3440      	adds	r4, #64	; 0x40
 8002ac2:	7013      	strb	r3, [r2, #0]
 8002ac4:	7023      	strb	r3, [r4, #0]
 8002ac6:	bdf8      	pop	{r3, r4, r5, r6, r7, pc}

08002ac8 <I2C_WaitOnTXISFlagUntilTimeout>:
 8002ac8:	b5f8      	push	{r3, r4, r5, r6, r7, lr}
 8002aca:	0004      	movs	r4, r0
 8002acc:	000d      	movs	r5, r1
 8002ace:	0016      	movs	r6, r2
 8002ad0:	2702      	movs	r7, #2
 8002ad2:	6823      	ldr	r3, [r4, #0]
 8002ad4:	699b      	ldr	r3, [r3, #24]
 8002ad6:	423b      	tst	r3, r7
 8002ad8:	d001      	beq.n	8002ade <I2C_WaitOnTXISFlagUntilTimeout+0x16>
 8002ada:	2000      	movs	r0, #0
 8002adc:	bdf8      	pop	{r3, r4, r5, r6, r7, pc}
 8002ade:	0032      	movs	r2, r6
 8002ae0:	0029      	movs	r1, r5
 8002ae2:	0020      	movs	r0, r4
 8002ae4:	f7ff ff62 	bl	80029ac <I2C_IsAcknowledgeFailed>
 8002ae8:	2800      	cmp	r0, #0
 8002aea:	d115      	bne.n	8002b18 <I2C_WaitOnTXISFlagUntilTimeout+0x50>
 8002aec:	1c6b      	adds	r3, r5, #1
 8002aee:	d0f0      	beq.n	8002ad2 <I2C_WaitOnTXISFlagUntilTimeout+0xa>
 8002af0:	f7ff fe26 	bl	8002740 <HAL_GetTick>
 8002af4:	1b80      	subs	r0, r0, r6
 8002af6:	42a8      	cmp	r0, r5
 8002af8:	d801      	bhi.n	8002afe <I2C_WaitOnTXISFlagUntilTimeout+0x36>
 8002afa:	2d00      	cmp	r5, #0
 8002afc:	d1e9      	bne.n	8002ad2 <I2C_WaitOnTXISFlagUntilTimeout+0xa>
 8002afe:	2220      	movs	r2, #32
 8002b00:	6c63      	ldr	r3, [r4, #68]	; 0x44
 8002b02:	4313      	orrs	r3, r2
 8002b04:	6463      	str	r3, [r4, #68]	; 0x44
 8002b06:	0023      	movs	r3, r4
 8002b08:	3341      	adds	r3, #65	; 0x41
 8002b0a:	701a      	strb	r2, [r3, #0]
 8002b0c:	0022      	movs	r2, r4
 8002b0e:	2300      	movs	r3, #0
 8002b10:	3242      	adds	r2, #66	; 0x42
 8002b12:	3440      	adds	r4, #64	; 0x40
 8002b14:	7013      	strb	r3, [r2, #0]
 8002b16:	7023      	strb	r3, [r4, #0]
 8002b18:	2001      	movs	r0, #1
 8002b1a:	e7df      	b.n	8002adc <I2C_WaitOnTXISFlagUntilTimeout+0x14>

08002b1c <I2C_RequestMemoryWrite>:
 8002b1c:	b573      	push	{r0, r1, r4, r5, r6, lr}
 8002b1e:	0014      	movs	r4, r2
 8002b20:	001e      	movs	r6, r3
 8002b22:	b2da      	uxtb	r2, r3
 8002b24:	4b15      	ldr	r3, [pc, #84]	; (8002b7c <I2C_RequestMemoryWrite+0x60>)
 8002b26:	0005      	movs	r5, r0
 8002b28:	9300      	str	r3, [sp, #0]
 8002b2a:	2380      	movs	r3, #128	; 0x80
 8002b2c:	045b      	lsls	r3, r3, #17
 8002b2e:	f7ff ff29 	bl	8002984 <I2C_TransferConfig>
 8002b32:	9a07      	ldr	r2, [sp, #28]
 8002b34:	9906      	ldr	r1, [sp, #24]
 8002b36:	0028      	movs	r0, r5
 8002b38:	f7ff ffc6 	bl	8002ac8 <I2C_WaitOnTXISFlagUntilTimeout>
 8002b3c:	2800      	cmp	r0, #0
 8002b3e:	d001      	beq.n	8002b44 <I2C_RequestMemoryWrite+0x28>
 8002b40:	2001      	movs	r0, #1
 8002b42:	bd76      	pop	{r1, r2, r4, r5, r6, pc}
 8002b44:	682b      	ldr	r3, [r5, #0]
 8002b46:	2e01      	cmp	r6, #1
 8002b48:	d10d      	bne.n	8002b66 <I2C_RequestMemoryWrite+0x4a>
 8002b4a:	b2e4      	uxtb	r4, r4
 8002b4c:	629c      	str	r4, [r3, #40]	; 0x28
 8002b4e:	9b07      	ldr	r3, [sp, #28]
 8002b50:	2200      	movs	r2, #0
 8002b52:	9300      	str	r3, [sp, #0]
 8002b54:	2180      	movs	r1, #128	; 0x80
 8002b56:	9b06      	ldr	r3, [sp, #24]
 8002b58:	0028      	movs	r0, r5
 8002b5a:	f7ff ff8d 	bl	8002a78 <I2C_WaitOnFlagUntilTimeout>
 8002b5e:	1e43      	subs	r3, r0, #1
 8002b60:	4198      	sbcs	r0, r3
 8002b62:	b2c0      	uxtb	r0, r0
 8002b64:	e7ed      	b.n	8002b42 <I2C_RequestMemoryWrite+0x26>
 8002b66:	0a22      	lsrs	r2, r4, #8
 8002b68:	629a      	str	r2, [r3, #40]	; 0x28
 8002b6a:	9906      	ldr	r1, [sp, #24]
 8002b6c:	9a07      	ldr	r2, [sp, #28]
 8002b6e:	0028      	movs	r0, r5
 8002b70:	f7ff ffaa 	bl	8002ac8 <I2C_WaitOnTXISFlagUntilTimeout>
 8002b74:	2800      	cmp	r0, #0
 8002b76:	d1e3      	bne.n	8002b40 <I2C_RequestMemoryWrite+0x24>
 8002b78:	682b      	ldr	r3, [r5, #0]
 8002b7a:	e7e6      	b.n	8002b4a <I2C_RequestMemoryWrite+0x2e>
 8002b7c:	80002000 	.word	0x80002000

08002b80 <I2C_RequestMemoryRead>:
 8002b80:	b573      	push	{r0, r1, r4, r5, r6, lr}
 8002b82:	0005      	movs	r5, r0
 8002b84:	0014      	movs	r4, r2
 8002b86:	001e      	movs	r6, r3
 8002b88:	b2da      	uxtb	r2, r3
 8002b8a:	4b15      	ldr	r3, [pc, #84]	; (8002be0 <I2C_RequestMemoryRead+0x60>)
 8002b8c:	9300      	str	r3, [sp, #0]
 8002b8e:	2300      	movs	r3, #0
 8002b90:	f7ff fef8 	bl	8002984 <I2C_TransferConfig>
 8002b94:	9a07      	ldr	r2, [sp, #28]
 8002b96:	9906      	ldr	r1, [sp, #24]
 8002b98:	0028      	movs	r0, r5
 8002b9a:	f7ff ff95 	bl	8002ac8 <I2C_WaitOnTXISFlagUntilTimeout>
 8002b9e:	2800      	cmp	r0, #0
 8002ba0:	d001      	beq.n	8002ba6 <I2C_RequestMemoryRead+0x26>
 8002ba2:	2001      	movs	r0, #1
 8002ba4:	bd76      	pop	{r1, r2, r4, r5, r6, pc}
 8002ba6:	682b      	ldr	r3, [r5, #0]
 8002ba8:	2e01      	cmp	r6, #1
 8002baa:	d10d      	bne.n	8002bc8 <I2C_RequestMemoryRead+0x48>
 8002bac:	b2e4      	uxtb	r4, r4
 8002bae:	629c      	str	r4, [r3, #40]	; 0x28
 8002bb0:	9b07      	ldr	r3, [sp, #28]
 8002bb2:	2200      	movs	r2, #0
 8002bb4:	9300      	str	r3, [sp, #0]
 8002bb6:	2140      	movs	r1, #64	; 0x40
 8002bb8:	9b06      	ldr	r3, [sp, #24]
 8002bba:	0028      	movs	r0, r5
 8002bbc:	f7ff ff5c 	bl	8002a78 <I2C_WaitOnFlagUntilTimeout>
 8002bc0:	1e43      	subs	r3, r0, #1
 8002bc2:	4198      	sbcs	r0, r3
 8002bc4:	b2c0      	uxtb	r0, r0
 8002bc6:	e7ed      	b.n	8002ba4 <I2C_RequestMemoryRead+0x24>
 8002bc8:	0a22      	lsrs	r2, r4, #8
 8002bca:	629a      	str	r2, [r3, #40]	; 0x28
 8002bcc:	9906      	ldr	r1, [sp, #24]
 8002bce:	9a07      	ldr	r2, [sp, #28]
 8002bd0:	0028      	movs	r0, r5
 8002bd2:	f7ff ff79 	bl	8002ac8 <I2C_WaitOnTXISFlagUntilTimeout>
 8002bd6:	2800      	cmp	r0, #0
 8002bd8:	d1e3      	bne.n	8002ba2 <I2C_RequestMemoryRead+0x22>
 8002bda:	682b      	ldr	r3, [r5, #0]
 8002bdc:	e7e6      	b.n	8002bac <I2C_RequestMemoryRead+0x2c>
 8002bde:	46c0      	nop			; (mov r8, r8)
 8002be0:	80002000 	.word	0x80002000

08002be4 <HAL_I2C_Init>:
 8002be4:	b570      	push	{r4, r5, r6, lr}
 8002be6:	0004      	movs	r4, r0
 8002be8:	2001      	movs	r0, #1
 8002bea:	2c00      	cmp	r4, #0
 8002bec:	d03f      	beq.n	8002c6e <HAL_I2C_Init+0x8a>
 8002bee:	0025      	movs	r5, r4
 8002bf0:	3541      	adds	r5, #65	; 0x41
 8002bf2:	782b      	ldrb	r3, [r5, #0]
 8002bf4:	b2db      	uxtb	r3, r3
 8002bf6:	2b00      	cmp	r3, #0
 8002bf8:	d105      	bne.n	8002c06 <HAL_I2C_Init+0x22>
 8002bfa:	0022      	movs	r2, r4
 8002bfc:	3240      	adds	r2, #64	; 0x40
 8002bfe:	7013      	strb	r3, [r2, #0]
 8002c00:	0020      	movs	r0, r4
 8002c02:	f7ff fc53 	bl	80024ac <HAL_I2C_MspInit>
 8002c06:	2324      	movs	r3, #36	; 0x24
 8002c08:	2101      	movs	r1, #1
 8002c0a:	702b      	strb	r3, [r5, #0]
 8002c0c:	6823      	ldr	r3, [r4, #0]
 8002c0e:	68e0      	ldr	r0, [r4, #12]
 8002c10:	681a      	ldr	r2, [r3, #0]
 8002c12:	68a6      	ldr	r6, [r4, #8]
 8002c14:	438a      	bics	r2, r1
 8002c16:	601a      	str	r2, [r3, #0]
 8002c18:	6861      	ldr	r1, [r4, #4]
 8002c1a:	4a1a      	ldr	r2, [pc, #104]	; (8002c84 <HAL_I2C_Init+0xa0>)
 8002c1c:	400a      	ands	r2, r1
 8002c1e:	611a      	str	r2, [r3, #16]
 8002c20:	6899      	ldr	r1, [r3, #8]
 8002c22:	4a19      	ldr	r2, [pc, #100]	; (8002c88 <HAL_I2C_Init+0xa4>)
 8002c24:	4011      	ands	r1, r2
 8002c26:	6099      	str	r1, [r3, #8]
 8002c28:	2801      	cmp	r0, #1
 8002c2a:	d121      	bne.n	8002c70 <HAL_I2C_Init+0x8c>
 8002c2c:	2180      	movs	r1, #128	; 0x80
 8002c2e:	0209      	lsls	r1, r1, #8
 8002c30:	4331      	orrs	r1, r6
 8002c32:	6099      	str	r1, [r3, #8]
 8002c34:	6858      	ldr	r0, [r3, #4]
 8002c36:	4915      	ldr	r1, [pc, #84]	; (8002c8c <HAL_I2C_Init+0xa8>)
 8002c38:	4301      	orrs	r1, r0
 8002c3a:	6059      	str	r1, [r3, #4]
 8002c3c:	68d9      	ldr	r1, [r3, #12]
 8002c3e:	2000      	movs	r0, #0
 8002c40:	400a      	ands	r2, r1
 8002c42:	60da      	str	r2, [r3, #12]
 8002c44:	6961      	ldr	r1, [r4, #20]
 8002c46:	6922      	ldr	r2, [r4, #16]
 8002c48:	430a      	orrs	r2, r1
 8002c4a:	69a1      	ldr	r1, [r4, #24]
 8002c4c:	0209      	lsls	r1, r1, #8
 8002c4e:	430a      	orrs	r2, r1
 8002c50:	60da      	str	r2, [r3, #12]
 8002c52:	6a21      	ldr	r1, [r4, #32]
 8002c54:	69e2      	ldr	r2, [r4, #28]
 8002c56:	430a      	orrs	r2, r1
 8002c58:	601a      	str	r2, [r3, #0]
 8002c5a:	2201      	movs	r2, #1
 8002c5c:	6819      	ldr	r1, [r3, #0]
 8002c5e:	430a      	orrs	r2, r1
 8002c60:	601a      	str	r2, [r3, #0]
 8002c62:	2320      	movs	r3, #32
 8002c64:	6460      	str	r0, [r4, #68]	; 0x44
 8002c66:	702b      	strb	r3, [r5, #0]
 8002c68:	6320      	str	r0, [r4, #48]	; 0x30
 8002c6a:	3442      	adds	r4, #66	; 0x42
 8002c6c:	7020      	strb	r0, [r4, #0]
 8002c6e:	bd70      	pop	{r4, r5, r6, pc}
 8002c70:	2184      	movs	r1, #132	; 0x84
 8002c72:	0209      	lsls	r1, r1, #8
 8002c74:	4331      	orrs	r1, r6
 8002c76:	6099      	str	r1, [r3, #8]
 8002c78:	2802      	cmp	r0, #2
 8002c7a:	d1db      	bne.n	8002c34 <HAL_I2C_Init+0x50>
 8002c7c:	2180      	movs	r1, #128	; 0x80
 8002c7e:	0109      	lsls	r1, r1, #4
 8002c80:	6059      	str	r1, [r3, #4]
 8002c82:	e7d7      	b.n	8002c34 <HAL_I2C_Init+0x50>
 8002c84:	f0ffffff 	.word	0xf0ffffff
 8002c88:	ffff7fff 	.word	0xffff7fff
 8002c8c:	02008000 	.word	0x02008000

08002c90 <HAL_I2C_Mem_Write>:
 8002c90:	b5f0      	push	{r4, r5, r6, r7, lr}
 8002c92:	0007      	movs	r7, r0
 8002c94:	b089      	sub	sp, #36	; 0x24
 8002c96:	9307      	str	r3, [sp, #28]
 8002c98:	ab0e      	add	r3, sp, #56	; 0x38
 8002c9a:	9206      	str	r2, [sp, #24]
 8002c9c:	cb04      	ldmia	r3!, {r2}
 8002c9e:	3741      	adds	r7, #65	; 0x41
 8002ca0:	881b      	ldrh	r3, [r3, #0]
 8002ca2:	9204      	str	r2, [sp, #16]
 8002ca4:	9305      	str	r3, [sp, #20]
 8002ca6:	783b      	ldrb	r3, [r7, #0]
 8002ca8:	0004      	movs	r4, r0
 8002caa:	000d      	movs	r5, r1
 8002cac:	2002      	movs	r0, #2
 8002cae:	2b20      	cmp	r3, #32
 8002cb0:	d108      	bne.n	8002cc4 <HAL_I2C_Mem_Write+0x34>
 8002cb2:	2a00      	cmp	r2, #0
 8002cb4:	d002      	beq.n	8002cbc <HAL_I2C_Mem_Write+0x2c>
 8002cb6:	9b05      	ldr	r3, [sp, #20]
 8002cb8:	2b00      	cmp	r3, #0
 8002cba:	d105      	bne.n	8002cc8 <HAL_I2C_Mem_Write+0x38>
 8002cbc:	2380      	movs	r3, #128	; 0x80
 8002cbe:	009b      	lsls	r3, r3, #2
 8002cc0:	6463      	str	r3, [r4, #68]	; 0x44
 8002cc2:	2001      	movs	r0, #1
 8002cc4:	b009      	add	sp, #36	; 0x24
 8002cc6:	bdf0      	pop	{r4, r5, r6, r7, pc}
 8002cc8:	0023      	movs	r3, r4
 8002cca:	3340      	adds	r3, #64	; 0x40
 8002ccc:	9303      	str	r3, [sp, #12]
 8002cce:	781b      	ldrb	r3, [r3, #0]
 8002cd0:	2b01      	cmp	r3, #1
 8002cd2:	d0f7      	beq.n	8002cc4 <HAL_I2C_Mem_Write+0x34>
 8002cd4:	2201      	movs	r2, #1
 8002cd6:	9b03      	ldr	r3, [sp, #12]
 8002cd8:	701a      	strb	r2, [r3, #0]
 8002cda:	f7ff fd31 	bl	8002740 <HAL_GetTick>
 8002cde:	2180      	movs	r1, #128	; 0x80
 8002ce0:	9002      	str	r0, [sp, #8]
 8002ce2:	9000      	str	r0, [sp, #0]
 8002ce4:	2319      	movs	r3, #25
 8002ce6:	2201      	movs	r2, #1
 8002ce8:	0209      	lsls	r1, r1, #8
 8002cea:	0020      	movs	r0, r4
 8002cec:	f7ff fec4 	bl	8002a78 <I2C_WaitOnFlagUntilTimeout>
 8002cf0:	1e06      	subs	r6, r0, #0
 8002cf2:	d1e6      	bne.n	8002cc2 <HAL_I2C_Mem_Write+0x32>
 8002cf4:	2321      	movs	r3, #33	; 0x21
 8002cf6:	703b      	strb	r3, [r7, #0]
 8002cf8:	0027      	movs	r7, r4
 8002cfa:	331f      	adds	r3, #31
 8002cfc:	3742      	adds	r7, #66	; 0x42
 8002cfe:	703b      	strb	r3, [r7, #0]
 8002d00:	9b04      	ldr	r3, [sp, #16]
 8002d02:	6460      	str	r0, [r4, #68]	; 0x44
 8002d04:	6263      	str	r3, [r4, #36]	; 0x24
 8002d06:	9b05      	ldr	r3, [sp, #20]
 8002d08:	6360      	str	r0, [r4, #52]	; 0x34
 8002d0a:	8563      	strh	r3, [r4, #42]	; 0x2a
 8002d0c:	9b02      	ldr	r3, [sp, #8]
 8002d0e:	9a06      	ldr	r2, [sp, #24]
 8002d10:	9301      	str	r3, [sp, #4]
 8002d12:	9b10      	ldr	r3, [sp, #64]	; 0x40
 8002d14:	0029      	movs	r1, r5
 8002d16:	9300      	str	r3, [sp, #0]
 8002d18:	0020      	movs	r0, r4
 8002d1a:	9b07      	ldr	r3, [sp, #28]
 8002d1c:	f7ff fefe 	bl	8002b1c <I2C_RequestMemoryWrite>
 8002d20:	2800      	cmp	r0, #0
 8002d22:	d002      	beq.n	8002d2a <HAL_I2C_Mem_Write+0x9a>
 8002d24:	9b03      	ldr	r3, [sp, #12]
 8002d26:	701e      	strb	r6, [r3, #0]
 8002d28:	e7cb      	b.n	8002cc2 <HAL_I2C_Mem_Write+0x32>
 8002d2a:	8d63      	ldrh	r3, [r4, #42]	; 0x2a
 8002d2c:	2bff      	cmp	r3, #255	; 0xff
 8002d2e:	d953      	bls.n	8002dd8 <HAL_I2C_Mem_Write+0x148>
 8002d30:	22ff      	movs	r2, #255	; 0xff
 8002d32:	2380      	movs	r3, #128	; 0x80
 8002d34:	8522      	strh	r2, [r4, #40]	; 0x28
 8002d36:	045b      	lsls	r3, r3, #17
 8002d38:	9000      	str	r0, [sp, #0]
 8002d3a:	0029      	movs	r1, r5
 8002d3c:	0020      	movs	r0, r4
 8002d3e:	2680      	movs	r6, #128	; 0x80
 8002d40:	f7ff fe20 	bl	8002984 <I2C_TransferConfig>
 8002d44:	04b6      	lsls	r6, r6, #18
 8002d46:	9a02      	ldr	r2, [sp, #8]
 8002d48:	9910      	ldr	r1, [sp, #64]	; 0x40
 8002d4a:	0020      	movs	r0, r4
 8002d4c:	f7ff febc 	bl	8002ac8 <I2C_WaitOnTXISFlagUntilTimeout>
 8002d50:	2800      	cmp	r0, #0
 8002d52:	d1b6      	bne.n	8002cc2 <HAL_I2C_Mem_Write+0x32>
 8002d54:	6a63      	ldr	r3, [r4, #36]	; 0x24
 8002d56:	6822      	ldr	r2, [r4, #0]
 8002d58:	7819      	ldrb	r1, [r3, #0]
 8002d5a:	3301      	adds	r3, #1
 8002d5c:	6291      	str	r1, [r2, #40]	; 0x28
 8002d5e:	6263      	str	r3, [r4, #36]	; 0x24
 8002d60:	8d63      	ldrh	r3, [r4, #42]	; 0x2a
 8002d62:	8d22      	ldrh	r2, [r4, #40]	; 0x28
 8002d64:	3b01      	subs	r3, #1
 8002d66:	b29b      	uxth	r3, r3
 8002d68:	8563      	strh	r3, [r4, #42]	; 0x2a
 8002d6a:	3a01      	subs	r2, #1
 8002d6c:	8d63      	ldrh	r3, [r4, #42]	; 0x2a
 8002d6e:	b292      	uxth	r2, r2
 8002d70:	8522      	strh	r2, [r4, #40]	; 0x28
 8002d72:	2b00      	cmp	r3, #0
 8002d74:	d017      	beq.n	8002da6 <HAL_I2C_Mem_Write+0x116>
 8002d76:	2a00      	cmp	r2, #0
 8002d78:	d115      	bne.n	8002da6 <HAL_I2C_Mem_Write+0x116>
 8002d7a:	9b02      	ldr	r3, [sp, #8]
 8002d7c:	2180      	movs	r1, #128	; 0x80
 8002d7e:	9300      	str	r3, [sp, #0]
 8002d80:	0020      	movs	r0, r4
 8002d82:	9b10      	ldr	r3, [sp, #64]	; 0x40
 8002d84:	f7ff fe78 	bl	8002a78 <I2C_WaitOnFlagUntilTimeout>
 8002d88:	2800      	cmp	r0, #0
 8002d8a:	d19a      	bne.n	8002cc2 <HAL_I2C_Mem_Write+0x32>
 8002d8c:	8d63      	ldrh	r3, [r4, #42]	; 0x2a
 8002d8e:	2bff      	cmp	r3, #255	; 0xff
 8002d90:	d92a      	bls.n	8002de8 <HAL_I2C_Mem_Write+0x158>
 8002d92:	23ff      	movs	r3, #255	; 0xff
 8002d94:	8523      	strh	r3, [r4, #40]	; 0x28
 8002d96:	2380      	movs	r3, #128	; 0x80
 8002d98:	22ff      	movs	r2, #255	; 0xff
 8002d9a:	9000      	str	r0, [sp, #0]
 8002d9c:	045b      	lsls	r3, r3, #17
 8002d9e:	0029      	movs	r1, r5
 8002da0:	0020      	movs	r0, r4
 8002da2:	f7ff fdef 	bl	8002984 <I2C_TransferConfig>
 8002da6:	8d63      	ldrh	r3, [r4, #42]	; 0x2a
 8002da8:	2b00      	cmp	r3, #0
 8002daa:	d1cc      	bne.n	8002d46 <HAL_I2C_Mem_Write+0xb6>
 8002dac:	9a02      	ldr	r2, [sp, #8]
 8002dae:	9910      	ldr	r1, [sp, #64]	; 0x40
 8002db0:	0020      	movs	r0, r4
 8002db2:	f7ff fe39 	bl	8002a28 <I2C_WaitOnSTOPFlagUntilTimeout>
 8002db6:	2800      	cmp	r0, #0
 8002db8:	d000      	beq.n	8002dbc <HAL_I2C_Mem_Write+0x12c>
 8002dba:	e782      	b.n	8002cc2 <HAL_I2C_Mem_Write+0x32>
 8002dbc:	2120      	movs	r1, #32
 8002dbe:	6823      	ldr	r3, [r4, #0]
 8002dc0:	4d0d      	ldr	r5, [pc, #52]	; (8002df8 <HAL_I2C_Mem_Write+0x168>)
 8002dc2:	61d9      	str	r1, [r3, #28]
 8002dc4:	685a      	ldr	r2, [r3, #4]
 8002dc6:	402a      	ands	r2, r5
 8002dc8:	605a      	str	r2, [r3, #4]
 8002dca:	0023      	movs	r3, r4
 8002dcc:	3440      	adds	r4, #64	; 0x40
 8002dce:	3341      	adds	r3, #65	; 0x41
 8002dd0:	7019      	strb	r1, [r3, #0]
 8002dd2:	7038      	strb	r0, [r7, #0]
 8002dd4:	7020      	strb	r0, [r4, #0]
 8002dd6:	e775      	b.n	8002cc4 <HAL_I2C_Mem_Write+0x34>
 8002dd8:	2380      	movs	r3, #128	; 0x80
 8002dda:	8d62      	ldrh	r2, [r4, #42]	; 0x2a
 8002ddc:	049b      	lsls	r3, r3, #18
 8002dde:	b292      	uxth	r2, r2
 8002de0:	8522      	strh	r2, [r4, #40]	; 0x28
 8002de2:	b2d2      	uxtb	r2, r2
 8002de4:	9000      	str	r0, [sp, #0]
 8002de6:	e7a8      	b.n	8002d3a <HAL_I2C_Mem_Write+0xaa>
 8002de8:	8d62      	ldrh	r2, [r4, #42]	; 0x2a
 8002dea:	0033      	movs	r3, r6
 8002dec:	b292      	uxth	r2, r2
 8002dee:	8522      	strh	r2, [r4, #40]	; 0x28
 8002df0:	b2d2      	uxtb	r2, r2
 8002df2:	9000      	str	r0, [sp, #0]
 8002df4:	e7d3      	b.n	8002d9e <HAL_I2C_Mem_Write+0x10e>
 8002df6:	46c0      	nop			; (mov r8, r8)
 8002df8:	fe00e800 	.word	0xfe00e800

08002dfc <HAL_I2C_Mem_Read>:
 8002dfc:	b5f0      	push	{r4, r5, r6, r7, lr}
 8002dfe:	0007      	movs	r7, r0
 8002e00:	b089      	sub	sp, #36	; 0x24
 8002e02:	9307      	str	r3, [sp, #28]
 8002e04:	ab0e      	add	r3, sp, #56	; 0x38
 8002e06:	9206      	str	r2, [sp, #24]
 8002e08:	cb04      	ldmia	r3!, {r2}
 8002e0a:	3741      	adds	r7, #65	; 0x41
 8002e0c:	881b      	ldrh	r3, [r3, #0]
 8002e0e:	9204      	str	r2, [sp, #16]
 8002e10:	9305      	str	r3, [sp, #20]
 8002e12:	783b      	ldrb	r3, [r7, #0]
 8002e14:	0004      	movs	r4, r0
 8002e16:	000d      	movs	r5, r1
 8002e18:	2002      	movs	r0, #2
 8002e1a:	2b20      	cmp	r3, #32
 8002e1c:	d108      	bne.n	8002e30 <HAL_I2C_Mem_Read+0x34>
 8002e1e:	2a00      	cmp	r2, #0
 8002e20:	d002      	beq.n	8002e28 <HAL_I2C_Mem_Read+0x2c>
 8002e22:	9b05      	ldr	r3, [sp, #20]
 8002e24:	2b00      	cmp	r3, #0
 8002e26:	d105      	bne.n	8002e34 <HAL_I2C_Mem_Read+0x38>
 8002e28:	2380      	movs	r3, #128	; 0x80
 8002e2a:	009b      	lsls	r3, r3, #2
 8002e2c:	6463      	str	r3, [r4, #68]	; 0x44
 8002e2e:	2001      	movs	r0, #1
 8002e30:	b009      	add	sp, #36	; 0x24
 8002e32:	bdf0      	pop	{r4, r5, r6, r7, pc}
 8002e34:	0023      	movs	r3, r4
 8002e36:	3340      	adds	r3, #64	; 0x40
 8002e38:	9303      	str	r3, [sp, #12]
 8002e3a:	781b      	ldrb	r3, [r3, #0]
 8002e3c:	2b01      	cmp	r3, #1
 8002e3e:	d0f7      	beq.n	8002e30 <HAL_I2C_Mem_Read+0x34>
 8002e40:	2201      	movs	r2, #1
 8002e42:	9b03      	ldr	r3, [sp, #12]
 8002e44:	701a      	strb	r2, [r3, #0]
 8002e46:	f7ff fc7b 	bl	8002740 <HAL_GetTick>
 8002e4a:	2180      	movs	r1, #128	; 0x80
 8002e4c:	9002      	str	r0, [sp, #8]
 8002e4e:	9000      	str	r0, [sp, #0]
 8002e50:	2319      	movs	r3, #25
 8002e52:	2201      	movs	r2, #1
 8002e54:	0209      	lsls	r1, r1, #8
 8002e56:	0020      	movs	r0, r4
 8002e58:	f7ff fe0e 	bl	8002a78 <I2C_WaitOnFlagUntilTimeout>
 8002e5c:	1e06      	subs	r6, r0, #0
 8002e5e:	d1e6      	bne.n	8002e2e <HAL_I2C_Mem_Read+0x32>
 8002e60:	2322      	movs	r3, #34	; 0x22
 8002e62:	703b      	strb	r3, [r7, #0]
 8002e64:	0027      	movs	r7, r4
 8002e66:	331e      	adds	r3, #30
 8002e68:	3742      	adds	r7, #66	; 0x42
 8002e6a:	703b      	strb	r3, [r7, #0]
 8002e6c:	9b04      	ldr	r3, [sp, #16]
 8002e6e:	6460      	str	r0, [r4, #68]	; 0x44
 8002e70:	6263      	str	r3, [r4, #36]	; 0x24
 8002e72:	9b05      	ldr	r3, [sp, #20]
 8002e74:	6360      	str	r0, [r4, #52]	; 0x34
 8002e76:	8563      	strh	r3, [r4, #42]	; 0x2a
 8002e78:	9b02      	ldr	r3, [sp, #8]
 8002e7a:	9a06      	ldr	r2, [sp, #24]
 8002e7c:	9301      	str	r3, [sp, #4]
 8002e7e:	9b10      	ldr	r3, [sp, #64]	; 0x40
 8002e80:	0029      	movs	r1, r5
 8002e82:	9300      	str	r3, [sp, #0]
 8002e84:	0020      	movs	r0, r4
 8002e86:	9b07      	ldr	r3, [sp, #28]
 8002e88:	f7ff fe7a 	bl	8002b80 <I2C_RequestMemoryRead>
 8002e8c:	2800      	cmp	r0, #0
 8002e8e:	d002      	beq.n	8002e96 <HAL_I2C_Mem_Read+0x9a>
 8002e90:	9b03      	ldr	r3, [sp, #12]
 8002e92:	701e      	strb	r6, [r3, #0]
 8002e94:	e7cb      	b.n	8002e2e <HAL_I2C_Mem_Read+0x32>
 8002e96:	8d62      	ldrh	r2, [r4, #42]	; 0x2a
 8002e98:	4b35      	ldr	r3, [pc, #212]	; (8002f70 <HAL_I2C_Mem_Read+0x174>)
 8002e9a:	2aff      	cmp	r2, #255	; 0xff
 8002e9c:	d958      	bls.n	8002f50 <HAL_I2C_Mem_Read+0x154>
 8002e9e:	22ff      	movs	r2, #255	; 0xff
 8002ea0:	8522      	strh	r2, [r4, #40]	; 0x28
 8002ea2:	9300      	str	r3, [sp, #0]
 8002ea4:	2380      	movs	r3, #128	; 0x80
 8002ea6:	045b      	lsls	r3, r3, #17
 8002ea8:	0029      	movs	r1, r5
 8002eaa:	0020      	movs	r0, r4
 8002eac:	2680      	movs	r6, #128	; 0x80
 8002eae:	f7ff fd69 	bl	8002984 <I2C_TransferConfig>
 8002eb2:	04b6      	lsls	r6, r6, #18
 8002eb4:	9b02      	ldr	r3, [sp, #8]
 8002eb6:	2200      	movs	r2, #0
 8002eb8:	9300      	str	r3, [sp, #0]
 8002eba:	2104      	movs	r1, #4
 8002ebc:	9b10      	ldr	r3, [sp, #64]	; 0x40
 8002ebe:	0020      	movs	r0, r4
 8002ec0:	f7ff fdda 	bl	8002a78 <I2C_WaitOnFlagUntilTimeout>
 8002ec4:	2800      	cmp	r0, #0
 8002ec6:	d1b2      	bne.n	8002e2e <HAL_I2C_Mem_Read+0x32>
 8002ec8:	6823      	ldr	r3, [r4, #0]
 8002eca:	6a62      	ldr	r2, [r4, #36]	; 0x24
 8002ecc:	6a5b      	ldr	r3, [r3, #36]	; 0x24
 8002ece:	7013      	strb	r3, [r2, #0]
 8002ed0:	6a63      	ldr	r3, [r4, #36]	; 0x24
 8002ed2:	8d22      	ldrh	r2, [r4, #40]	; 0x28
 8002ed4:	3301      	adds	r3, #1
 8002ed6:	6263      	str	r3, [r4, #36]	; 0x24
 8002ed8:	8d63      	ldrh	r3, [r4, #42]	; 0x2a
 8002eda:	3a01      	subs	r2, #1
 8002edc:	3b01      	subs	r3, #1
 8002ede:	b29b      	uxth	r3, r3
 8002ee0:	8563      	strh	r3, [r4, #42]	; 0x2a
 8002ee2:	8d63      	ldrh	r3, [r4, #42]	; 0x2a
 8002ee4:	b292      	uxth	r2, r2
 8002ee6:	8522      	strh	r2, [r4, #40]	; 0x28
 8002ee8:	2b00      	cmp	r3, #0
 8002eea:	d018      	beq.n	8002f1e <HAL_I2C_Mem_Read+0x122>
 8002eec:	2a00      	cmp	r2, #0
 8002eee:	d116      	bne.n	8002f1e <HAL_I2C_Mem_Read+0x122>
 8002ef0:	9b02      	ldr	r3, [sp, #8]
 8002ef2:	2180      	movs	r1, #128	; 0x80
 8002ef4:	9300      	str	r3, [sp, #0]
 8002ef6:	0020      	movs	r0, r4
 8002ef8:	9b10      	ldr	r3, [sp, #64]	; 0x40
 8002efa:	f7ff fdbd 	bl	8002a78 <I2C_WaitOnFlagUntilTimeout>
 8002efe:	2800      	cmp	r0, #0
 8002f00:	d000      	beq.n	8002f04 <HAL_I2C_Mem_Read+0x108>
 8002f02:	e794      	b.n	8002e2e <HAL_I2C_Mem_Read+0x32>
 8002f04:	8d63      	ldrh	r3, [r4, #42]	; 0x2a
 8002f06:	2bff      	cmp	r3, #255	; 0xff
 8002f08:	d92a      	bls.n	8002f60 <HAL_I2C_Mem_Read+0x164>
 8002f0a:	23ff      	movs	r3, #255	; 0xff
 8002f0c:	8523      	strh	r3, [r4, #40]	; 0x28
 8002f0e:	2380      	movs	r3, #128	; 0x80
 8002f10:	22ff      	movs	r2, #255	; 0xff
 8002f12:	9000      	str	r0, [sp, #0]
 8002f14:	045b      	lsls	r3, r3, #17
 8002f16:	0029      	movs	r1, r5
 8002f18:	0020      	movs	r0, r4
 8002f1a:	f7ff fd33 	bl	8002984 <I2C_TransferConfig>
 8002f1e:	8d63      	ldrh	r3, [r4, #42]	; 0x2a
 8002f20:	2b00      	cmp	r3, #0
 8002f22:	d1c7      	bne.n	8002eb4 <HAL_I2C_Mem_Read+0xb8>
 8002f24:	9a02      	ldr	r2, [sp, #8]
 8002f26:	9910      	ldr	r1, [sp, #64]	; 0x40
 8002f28:	0020      	movs	r0, r4
 8002f2a:	f7ff fd7d 	bl	8002a28 <I2C_WaitOnSTOPFlagUntilTimeout>
 8002f2e:	2800      	cmp	r0, #0
 8002f30:	d000      	beq.n	8002f34 <HAL_I2C_Mem_Read+0x138>
 8002f32:	e77c      	b.n	8002e2e <HAL_I2C_Mem_Read+0x32>
 8002f34:	2120      	movs	r1, #32
 8002f36:	6823      	ldr	r3, [r4, #0]
 8002f38:	4d0e      	ldr	r5, [pc, #56]	; (8002f74 <HAL_I2C_Mem_Read+0x178>)
 8002f3a:	61d9      	str	r1, [r3, #28]
 8002f3c:	685a      	ldr	r2, [r3, #4]
 8002f3e:	402a      	ands	r2, r5
 8002f40:	605a      	str	r2, [r3, #4]
 8002f42:	0023      	movs	r3, r4
 8002f44:	3440      	adds	r4, #64	; 0x40
 8002f46:	3341      	adds	r3, #65	; 0x41
 8002f48:	7019      	strb	r1, [r3, #0]
 8002f4a:	7038      	strb	r0, [r7, #0]
 8002f4c:	7020      	strb	r0, [r4, #0]
 8002f4e:	e76f      	b.n	8002e30 <HAL_I2C_Mem_Read+0x34>
 8002f50:	8d62      	ldrh	r2, [r4, #42]	; 0x2a
 8002f52:	b292      	uxth	r2, r2
 8002f54:	8522      	strh	r2, [r4, #40]	; 0x28
 8002f56:	9300      	str	r3, [sp, #0]
 8002f58:	2380      	movs	r3, #128	; 0x80
 8002f5a:	b2d2      	uxtb	r2, r2
 8002f5c:	049b      	lsls	r3, r3, #18
 8002f5e:	e7a3      	b.n	8002ea8 <HAL_I2C_Mem_Read+0xac>
 8002f60:	8d62      	ldrh	r2, [r4, #42]	; 0x2a
 8002f62:	0033      	movs	r3, r6
 8002f64:	b292      	uxth	r2, r2
 8002f66:	8522      	strh	r2, [r4, #40]	; 0x28
 8002f68:	b2d2      	uxtb	r2, r2
 8002f6a:	9000      	str	r0, [sp, #0]
 8002f6c:	e7d3      	b.n	8002f16 <HAL_I2C_Mem_Read+0x11a>
 8002f6e:	46c0      	nop			; (mov r8, r8)
 8002f70:	80002400 	.word	0x80002400
 8002f74:	fe00e800 	.word	0xfe00e800

08002f78 <HAL_I2CEx_ConfigAnalogFilter>:
 8002f78:	b5f0      	push	{r4, r5, r6, r7, lr}
 8002f7a:	0004      	movs	r4, r0
 8002f7c:	3441      	adds	r4, #65	; 0x41
 8002f7e:	7822      	ldrb	r2, [r4, #0]
 8002f80:	0003      	movs	r3, r0
 8002f82:	b2d2      	uxtb	r2, r2
 8002f84:	2002      	movs	r0, #2
 8002f86:	2a20      	cmp	r2, #32
 8002f88:	d118      	bne.n	8002fbc <HAL_I2CEx_ConfigAnalogFilter+0x44>
 8002f8a:	001d      	movs	r5, r3
 8002f8c:	3540      	adds	r5, #64	; 0x40
 8002f8e:	782e      	ldrb	r6, [r5, #0]
 8002f90:	2e01      	cmp	r6, #1
 8002f92:	d013      	beq.n	8002fbc <HAL_I2CEx_ConfigAnalogFilter+0x44>
 8002f94:	681b      	ldr	r3, [r3, #0]
 8002f96:	3022      	adds	r0, #34	; 0x22
 8002f98:	7020      	strb	r0, [r4, #0]
 8002f9a:	681e      	ldr	r6, [r3, #0]
 8002f9c:	3823      	subs	r0, #35	; 0x23
 8002f9e:	4386      	bics	r6, r0
 8002fa0:	601e      	str	r6, [r3, #0]
 8002fa2:	681e      	ldr	r6, [r3, #0]
 8002fa4:	4f06      	ldr	r7, [pc, #24]	; (8002fc0 <HAL_I2CEx_ConfigAnalogFilter+0x48>)
 8002fa6:	403e      	ands	r6, r7
 8002fa8:	601e      	str	r6, [r3, #0]
 8002faa:	681e      	ldr	r6, [r3, #0]
 8002fac:	4331      	orrs	r1, r6
 8002fae:	6019      	str	r1, [r3, #0]
 8002fb0:	6819      	ldr	r1, [r3, #0]
 8002fb2:	4308      	orrs	r0, r1
 8002fb4:	6018      	str	r0, [r3, #0]
 8002fb6:	2000      	movs	r0, #0
 8002fb8:	7022      	strb	r2, [r4, #0]
 8002fba:	7028      	strb	r0, [r5, #0]
 8002fbc:	bdf0      	pop	{r4, r5, r6, r7, pc}
 8002fbe:	46c0      	nop			; (mov r8, r8)
 8002fc0:	ffffefff 	.word	0xffffefff

08002fc4 <HAL_I2CEx_ConfigDigitalFilter>:
 8002fc4:	b5f0      	push	{r4, r5, r6, r7, lr}
 8002fc6:	0005      	movs	r5, r0
 8002fc8:	3541      	adds	r5, #65	; 0x41
 8002fca:	782a      	ldrb	r2, [r5, #0]
 8002fcc:	0003      	movs	r3, r0
 8002fce:	b2d2      	uxtb	r2, r2
 8002fd0:	2002      	movs	r0, #2
 8002fd2:	2a20      	cmp	r2, #32
 8002fd4:	d117      	bne.n	8003006 <HAL_I2CEx_ConfigDigitalFilter+0x42>
 8002fd6:	001c      	movs	r4, r3
 8002fd8:	3440      	adds	r4, #64	; 0x40
 8002fda:	7826      	ldrb	r6, [r4, #0]
 8002fdc:	2e01      	cmp	r6, #1
 8002fde:	d012      	beq.n	8003006 <HAL_I2CEx_ConfigDigitalFilter+0x42>
 8002fe0:	681b      	ldr	r3, [r3, #0]
 8002fe2:	3022      	adds	r0, #34	; 0x22
 8002fe4:	7028      	strb	r0, [r5, #0]
 8002fe6:	681e      	ldr	r6, [r3, #0]
 8002fe8:	3823      	subs	r0, #35	; 0x23
 8002fea:	4386      	bics	r6, r0
 8002fec:	601e      	str	r6, [r3, #0]
 8002fee:	681e      	ldr	r6, [r3, #0]
 8002ff0:	4f05      	ldr	r7, [pc, #20]	; (8003008 <HAL_I2CEx_ConfigDigitalFilter+0x44>)
 8002ff2:	0209      	lsls	r1, r1, #8
 8002ff4:	403e      	ands	r6, r7
 8002ff6:	4331      	orrs	r1, r6
 8002ff8:	6019      	str	r1, [r3, #0]
 8002ffa:	6819      	ldr	r1, [r3, #0]
 8002ffc:	4308      	orrs	r0, r1
 8002ffe:	6018      	str	r0, [r3, #0]
 8003000:	2000      	movs	r0, #0
 8003002:	702a      	strb	r2, [r5, #0]
 8003004:	7020      	strb	r0, [r4, #0]
 8003006:	bdf0      	pop	{r4, r5, r6, r7, pc}
 8003008:	fffff0ff 	.word	0xfffff0ff

0800300c <HAL_RCC_GetSysClockFreq>:
 800300c:	230c      	movs	r3, #12
 800300e:	4a1e      	ldr	r2, [pc, #120]	; (8003088 <HAL_RCC_GetSysClockFreq+0x7c>)
 8003010:	b570      	push	{r4, r5, r6, lr}
 8003012:	68d4      	ldr	r4, [r2, #12]
 8003014:	4023      	ands	r3, r4
 8003016:	2b08      	cmp	r3, #8
 8003018:	d034      	beq.n	8003084 <HAL_RCC_GetSysClockFreq+0x78>
 800301a:	2b0c      	cmp	r3, #12
 800301c:	d00c      	beq.n	8003038 <HAL_RCC_GetSysClockFreq+0x2c>
 800301e:	2b04      	cmp	r3, #4
 8003020:	d128      	bne.n	8003074 <HAL_RCC_GetSysClockFreq+0x68>
 8003022:	6810      	ldr	r0, [r2, #0]
 8003024:	330c      	adds	r3, #12
 8003026:	4018      	ands	r0, r3
 8003028:	4243      	negs	r3, r0
 800302a:	4158      	adcs	r0, r3
 800302c:	4b17      	ldr	r3, [pc, #92]	; (800308c <HAL_RCC_GetSysClockFreq+0x80>)
 800302e:	4240      	negs	r0, r0
 8003030:	4018      	ands	r0, r3
 8003032:	4b17      	ldr	r3, [pc, #92]	; (8003090 <HAL_RCC_GetSysClockFreq+0x84>)
 8003034:	18c0      	adds	r0, r0, r3
 8003036:	bd70      	pop	{r4, r5, r6, pc}
 8003038:	02a3      	lsls	r3, r4, #10
 800303a:	4916      	ldr	r1, [pc, #88]	; (8003094 <HAL_RCC_GetSysClockFreq+0x88>)
 800303c:	0f1b      	lsrs	r3, r3, #28
 800303e:	5cc8      	ldrb	r0, [r1, r3]
 8003040:	2380      	movs	r3, #128	; 0x80
 8003042:	68d5      	ldr	r5, [r2, #12]
 8003044:	0224      	lsls	r4, r4, #8
 8003046:	0fa4      	lsrs	r4, r4, #30
 8003048:	025b      	lsls	r3, r3, #9
 800304a:	3401      	adds	r4, #1
 800304c:	401d      	ands	r5, r3
 800304e:	d009      	beq.n	8003064 <HAL_RCC_GetSysClockFreq+0x58>
 8003050:	4a11      	ldr	r2, [pc, #68]	; (8003098 <HAL_RCC_GetSysClockFreq+0x8c>)
 8003052:	2300      	movs	r3, #0
 8003054:	2100      	movs	r1, #0
 8003056:	f7fd f917 	bl	8000288 <__aeabi_lmul>
 800305a:	0022      	movs	r2, r4
 800305c:	2300      	movs	r3, #0
 800305e:	f7fd f8f3 	bl	8000248 <__aeabi_uldivmod>
 8003062:	e7e8      	b.n	8003036 <HAL_RCC_GetSysClockFreq+0x2a>
 8003064:	2310      	movs	r3, #16
 8003066:	6816      	ldr	r6, [r2, #0]
 8003068:	401e      	ands	r6, r3
 800306a:	d001      	beq.n	8003070 <HAL_RCC_GetSysClockFreq+0x64>
 800306c:	4a08      	ldr	r2, [pc, #32]	; (8003090 <HAL_RCC_GetSysClockFreq+0x84>)
 800306e:	e7f0      	b.n	8003052 <HAL_RCC_GetSysClockFreq+0x46>
 8003070:	4a0a      	ldr	r2, [pc, #40]	; (800309c <HAL_RCC_GetSysClockFreq+0x90>)
 8003072:	e7ee      	b.n	8003052 <HAL_RCC_GetSysClockFreq+0x46>
 8003074:	2080      	movs	r0, #128	; 0x80
 8003076:	6853      	ldr	r3, [r2, #4]
 8003078:	0200      	lsls	r0, r0, #8
 800307a:	041b      	lsls	r3, r3, #16
 800307c:	0f5b      	lsrs	r3, r3, #29
 800307e:	3301      	adds	r3, #1
 8003080:	4098      	lsls	r0, r3
 8003082:	e7d8      	b.n	8003036 <HAL_RCC_GetSysClockFreq+0x2a>
 8003084:	4804      	ldr	r0, [pc, #16]	; (8003098 <HAL_RCC_GetSysClockFreq+0x8c>)
 8003086:	e7d6      	b.n	8003036 <HAL_RCC_GetSysClockFreq+0x2a>
 8003088:	40021000 	.word	0x40021000
 800308c:	00b71b00 	.word	0x00b71b00
 8003090:	003d0900 	.word	0x003d0900
 8003094:	08005272 	.word	0x08005272
 8003098:	007a1200 	.word	0x007a1200
 800309c:	00f42400 	.word	0x00f42400

080030a0 <HAL_RCC_OscConfig>:
 80030a0:	b5f0      	push	{r4, r5, r6, r7, lr}
 80030a2:	0005      	movs	r5, r0
 80030a4:	b087      	sub	sp, #28
 80030a6:	2800      	cmp	r0, #0
 80030a8:	d102      	bne.n	80030b0 <HAL_RCC_OscConfig+0x10>
 80030aa:	2001      	movs	r0, #1
 80030ac:	b007      	add	sp, #28
 80030ae:	bdf0      	pop	{r4, r5, r6, r7, pc}
 80030b0:	230c      	movs	r3, #12
 80030b2:	4cbf      	ldr	r4, [pc, #764]	; (80033b0 <HAL_RCC_OscConfig+0x310>)
 80030b4:	68e6      	ldr	r6, [r4, #12]
 80030b6:	68e2      	ldr	r2, [r4, #12]
 80030b8:	401e      	ands	r6, r3
 80030ba:	2380      	movs	r3, #128	; 0x80
 80030bc:	025b      	lsls	r3, r3, #9
 80030be:	401a      	ands	r2, r3
 80030c0:	9201      	str	r2, [sp, #4]
 80030c2:	6802      	ldr	r2, [r0, #0]
 80030c4:	07d2      	lsls	r2, r2, #31
 80030c6:	d442      	bmi.n	800314e <HAL_RCC_OscConfig+0xae>
 80030c8:	682b      	ldr	r3, [r5, #0]
 80030ca:	079b      	lsls	r3, r3, #30
 80030cc:	d500      	bpl.n	80030d0 <HAL_RCC_OscConfig+0x30>
 80030ce:	e088      	b.n	80031e2 <HAL_RCC_OscConfig+0x142>
 80030d0:	682b      	ldr	r3, [r5, #0]
 80030d2:	06db      	lsls	r3, r3, #27
 80030d4:	d529      	bpl.n	800312a <HAL_RCC_OscConfig+0x8a>
 80030d6:	2e00      	cmp	r6, #0
 80030d8:	d000      	beq.n	80030dc <HAL_RCC_OscConfig+0x3c>
 80030da:	e0db      	b.n	8003294 <HAL_RCC_OscConfig+0x1f4>
 80030dc:	6823      	ldr	r3, [r4, #0]
 80030de:	059b      	lsls	r3, r3, #22
 80030e0:	d502      	bpl.n	80030e8 <HAL_RCC_OscConfig+0x48>
 80030e2:	69eb      	ldr	r3, [r5, #28]
 80030e4:	2b00      	cmp	r3, #0
 80030e6:	d0e0      	beq.n	80030aa <HAL_RCC_OscConfig+0xa>
 80030e8:	6862      	ldr	r2, [r4, #4]
 80030ea:	49b2      	ldr	r1, [pc, #712]	; (80033b4 <HAL_RCC_OscConfig+0x314>)
 80030ec:	6a6b      	ldr	r3, [r5, #36]	; 0x24
 80030ee:	400a      	ands	r2, r1
 80030f0:	431a      	orrs	r2, r3
 80030f2:	6062      	str	r2, [r4, #4]
 80030f4:	6861      	ldr	r1, [r4, #4]
 80030f6:	6a2a      	ldr	r2, [r5, #32]
 80030f8:	0209      	lsls	r1, r1, #8
 80030fa:	0a09      	lsrs	r1, r1, #8
 80030fc:	0612      	lsls	r2, r2, #24
 80030fe:	430a      	orrs	r2, r1
 8003100:	6062      	str	r2, [r4, #4]
 8003102:	2280      	movs	r2, #128	; 0x80
 8003104:	0b5b      	lsrs	r3, r3, #13
 8003106:	3301      	adds	r3, #1
 8003108:	0212      	lsls	r2, r2, #8
 800310a:	409a      	lsls	r2, r3
 800310c:	0013      	movs	r3, r2
 800310e:	68e1      	ldr	r1, [r4, #12]
 8003110:	060a      	lsls	r2, r1, #24
 8003112:	49a9      	ldr	r1, [pc, #676]	; (80033b8 <HAL_RCC_OscConfig+0x318>)
 8003114:	0f12      	lsrs	r2, r2, #28
 8003116:	5c8a      	ldrb	r2, [r1, r2]
 8003118:	40d3      	lsrs	r3, r2
 800311a:	4aa8      	ldr	r2, [pc, #672]	; (80033bc <HAL_RCC_OscConfig+0x31c>)
 800311c:	6013      	str	r3, [r2, #0]
 800311e:	4ba8      	ldr	r3, [pc, #672]	; (80033c0 <HAL_RCC_OscConfig+0x320>)
 8003120:	6818      	ldr	r0, [r3, #0]
 8003122:	f7ff fac9 	bl	80026b8 <HAL_InitTick>
 8003126:	2800      	cmp	r0, #0
 8003128:	d1c0      	bne.n	80030ac <HAL_RCC_OscConfig+0xc>
 800312a:	682b      	ldr	r3, [r5, #0]
 800312c:	071b      	lsls	r3, r3, #28
 800312e:	d500      	bpl.n	8003132 <HAL_RCC_OscConfig+0x92>
 8003130:	e0e7      	b.n	8003302 <HAL_RCC_OscConfig+0x262>
 8003132:	682b      	ldr	r3, [r5, #0]
 8003134:	075b      	lsls	r3, r3, #29
 8003136:	d500      	bpl.n	800313a <HAL_RCC_OscConfig+0x9a>
 8003138:	e109      	b.n	800334e <HAL_RCC_OscConfig+0x2ae>
 800313a:	682b      	ldr	r3, [r5, #0]
 800313c:	069b      	lsls	r3, r3, #26
 800313e:	d500      	bpl.n	8003142 <HAL_RCC_OscConfig+0xa2>
 8003140:	e190      	b.n	8003464 <HAL_RCC_OscConfig+0x3c4>
 8003142:	6aab      	ldr	r3, [r5, #40]	; 0x28
 8003144:	2b00      	cmp	r3, #0
 8003146:	d000      	beq.n	800314a <HAL_RCC_OscConfig+0xaa>
 8003148:	e1bf      	b.n	80034ca <HAL_RCC_OscConfig+0x42a>
 800314a:	2000      	movs	r0, #0
 800314c:	e7ae      	b.n	80030ac <HAL_RCC_OscConfig+0xc>
 800314e:	2e08      	cmp	r6, #8
 8003150:	d004      	beq.n	800315c <HAL_RCC_OscConfig+0xbc>
 8003152:	2e0c      	cmp	r6, #12
 8003154:	d109      	bne.n	800316a <HAL_RCC_OscConfig+0xca>
 8003156:	9a01      	ldr	r2, [sp, #4]
 8003158:	2a00      	cmp	r2, #0
 800315a:	d006      	beq.n	800316a <HAL_RCC_OscConfig+0xca>
 800315c:	6823      	ldr	r3, [r4, #0]
 800315e:	039b      	lsls	r3, r3, #14
 8003160:	d5b2      	bpl.n	80030c8 <HAL_RCC_OscConfig+0x28>
 8003162:	686b      	ldr	r3, [r5, #4]
 8003164:	2b00      	cmp	r3, #0
 8003166:	d1af      	bne.n	80030c8 <HAL_RCC_OscConfig+0x28>
 8003168:	e79f      	b.n	80030aa <HAL_RCC_OscConfig+0xa>
 800316a:	686a      	ldr	r2, [r5, #4]
 800316c:	429a      	cmp	r2, r3
 800316e:	d111      	bne.n	8003194 <HAL_RCC_OscConfig+0xf4>
 8003170:	6822      	ldr	r2, [r4, #0]
 8003172:	4313      	orrs	r3, r2
 8003174:	6023      	str	r3, [r4, #0]
 8003176:	f7ff fae3 	bl	8002740 <HAL_GetTick>
 800317a:	0007      	movs	r7, r0
 800317c:	2280      	movs	r2, #128	; 0x80
 800317e:	6823      	ldr	r3, [r4, #0]
 8003180:	0292      	lsls	r2, r2, #10
 8003182:	4213      	tst	r3, r2
 8003184:	d1a0      	bne.n	80030c8 <HAL_RCC_OscConfig+0x28>
 8003186:	f7ff fadb 	bl	8002740 <HAL_GetTick>
 800318a:	1bc0      	subs	r0, r0, r7
 800318c:	2864      	cmp	r0, #100	; 0x64
 800318e:	d9f5      	bls.n	800317c <HAL_RCC_OscConfig+0xdc>
 8003190:	2003      	movs	r0, #3
 8003192:	e78b      	b.n	80030ac <HAL_RCC_OscConfig+0xc>
 8003194:	21a0      	movs	r1, #160	; 0xa0
 8003196:	02c9      	lsls	r1, r1, #11
 8003198:	428a      	cmp	r2, r1
 800319a:	d105      	bne.n	80031a8 <HAL_RCC_OscConfig+0x108>
 800319c:	2280      	movs	r2, #128	; 0x80
 800319e:	6821      	ldr	r1, [r4, #0]
 80031a0:	02d2      	lsls	r2, r2, #11
 80031a2:	430a      	orrs	r2, r1
 80031a4:	6022      	str	r2, [r4, #0]
 80031a6:	e7e3      	b.n	8003170 <HAL_RCC_OscConfig+0xd0>
 80031a8:	6821      	ldr	r1, [r4, #0]
 80031aa:	4886      	ldr	r0, [pc, #536]	; (80033c4 <HAL_RCC_OscConfig+0x324>)
 80031ac:	4001      	ands	r1, r0
 80031ae:	6021      	str	r1, [r4, #0]
 80031b0:	6821      	ldr	r1, [r4, #0]
 80031b2:	400b      	ands	r3, r1
 80031b4:	9305      	str	r3, [sp, #20]
 80031b6:	9b05      	ldr	r3, [sp, #20]
 80031b8:	4983      	ldr	r1, [pc, #524]	; (80033c8 <HAL_RCC_OscConfig+0x328>)
 80031ba:	6823      	ldr	r3, [r4, #0]
 80031bc:	400b      	ands	r3, r1
 80031be:	6023      	str	r3, [r4, #0]
 80031c0:	2a00      	cmp	r2, #0
 80031c2:	d1d8      	bne.n	8003176 <HAL_RCC_OscConfig+0xd6>
 80031c4:	f7ff fabc 	bl	8002740 <HAL_GetTick>
 80031c8:	0007      	movs	r7, r0
 80031ca:	2280      	movs	r2, #128	; 0x80
 80031cc:	6823      	ldr	r3, [r4, #0]
 80031ce:	0292      	lsls	r2, r2, #10
 80031d0:	4213      	tst	r3, r2
 80031d2:	d100      	bne.n	80031d6 <HAL_RCC_OscConfig+0x136>
 80031d4:	e778      	b.n	80030c8 <HAL_RCC_OscConfig+0x28>
 80031d6:	f7ff fab3 	bl	8002740 <HAL_GetTick>
 80031da:	1bc0      	subs	r0, r0, r7
 80031dc:	2864      	cmp	r0, #100	; 0x64
 80031de:	d9f4      	bls.n	80031ca <HAL_RCC_OscConfig+0x12a>
 80031e0:	e7d6      	b.n	8003190 <HAL_RCC_OscConfig+0xf0>
 80031e2:	68ea      	ldr	r2, [r5, #12]
 80031e4:	2e04      	cmp	r6, #4
 80031e6:	d004      	beq.n	80031f2 <HAL_RCC_OscConfig+0x152>
 80031e8:	2e0c      	cmp	r6, #12
 80031ea:	d126      	bne.n	800323a <HAL_RCC_OscConfig+0x19a>
 80031ec:	9b01      	ldr	r3, [sp, #4]
 80031ee:	2b00      	cmp	r3, #0
 80031f0:	d123      	bne.n	800323a <HAL_RCC_OscConfig+0x19a>
 80031f2:	6823      	ldr	r3, [r4, #0]
 80031f4:	075b      	lsls	r3, r3, #29
 80031f6:	d502      	bpl.n	80031fe <HAL_RCC_OscConfig+0x15e>
 80031f8:	2a00      	cmp	r2, #0
 80031fa:	d100      	bne.n	80031fe <HAL_RCC_OscConfig+0x15e>
 80031fc:	e755      	b.n	80030aa <HAL_RCC_OscConfig+0xa>
 80031fe:	6861      	ldr	r1, [r4, #4]
 8003200:	692b      	ldr	r3, [r5, #16]
 8003202:	4872      	ldr	r0, [pc, #456]	; (80033cc <HAL_RCC_OscConfig+0x32c>)
 8003204:	021b      	lsls	r3, r3, #8
 8003206:	4001      	ands	r1, r0
 8003208:	430b      	orrs	r3, r1
 800320a:	2109      	movs	r1, #9
 800320c:	6063      	str	r3, [r4, #4]
 800320e:	6823      	ldr	r3, [r4, #0]
 8003210:	438b      	bics	r3, r1
 8003212:	4313      	orrs	r3, r2
 8003214:	6023      	str	r3, [r4, #0]
 8003216:	f7ff fef9 	bl	800300c <HAL_RCC_GetSysClockFreq>
 800321a:	68e3      	ldr	r3, [r4, #12]
 800321c:	4a66      	ldr	r2, [pc, #408]	; (80033b8 <HAL_RCC_OscConfig+0x318>)
 800321e:	061b      	lsls	r3, r3, #24
 8003220:	0f1b      	lsrs	r3, r3, #28
 8003222:	5cd3      	ldrb	r3, [r2, r3]
 8003224:	40d8      	lsrs	r0, r3
 8003226:	4b65      	ldr	r3, [pc, #404]	; (80033bc <HAL_RCC_OscConfig+0x31c>)
 8003228:	6018      	str	r0, [r3, #0]
 800322a:	4b65      	ldr	r3, [pc, #404]	; (80033c0 <HAL_RCC_OscConfig+0x320>)
 800322c:	6818      	ldr	r0, [r3, #0]
 800322e:	f7ff fa43 	bl	80026b8 <HAL_InitTick>
 8003232:	2800      	cmp	r0, #0
 8003234:	d100      	bne.n	8003238 <HAL_RCC_OscConfig+0x198>
 8003236:	e74b      	b.n	80030d0 <HAL_RCC_OscConfig+0x30>
 8003238:	e738      	b.n	80030ac <HAL_RCC_OscConfig+0xc>
 800323a:	6823      	ldr	r3, [r4, #0]
 800323c:	2a00      	cmp	r2, #0
 800323e:	d018      	beq.n	8003272 <HAL_RCC_OscConfig+0x1d2>
 8003240:	2109      	movs	r1, #9
 8003242:	438b      	bics	r3, r1
 8003244:	4313      	orrs	r3, r2
 8003246:	6023      	str	r3, [r4, #0]
 8003248:	f7ff fa7a 	bl	8002740 <HAL_GetTick>
 800324c:	0007      	movs	r7, r0
 800324e:	2204      	movs	r2, #4
 8003250:	6823      	ldr	r3, [r4, #0]
 8003252:	4213      	tst	r3, r2
 8003254:	d007      	beq.n	8003266 <HAL_RCC_OscConfig+0x1c6>
 8003256:	6862      	ldr	r2, [r4, #4]
 8003258:	692b      	ldr	r3, [r5, #16]
 800325a:	495c      	ldr	r1, [pc, #368]	; (80033cc <HAL_RCC_OscConfig+0x32c>)
 800325c:	021b      	lsls	r3, r3, #8
 800325e:	400a      	ands	r2, r1
 8003260:	4313      	orrs	r3, r2
 8003262:	6063      	str	r3, [r4, #4]
 8003264:	e734      	b.n	80030d0 <HAL_RCC_OscConfig+0x30>
 8003266:	f7ff fa6b 	bl	8002740 <HAL_GetTick>
 800326a:	1bc0      	subs	r0, r0, r7
 800326c:	2802      	cmp	r0, #2
 800326e:	d9ee      	bls.n	800324e <HAL_RCC_OscConfig+0x1ae>
 8003270:	e78e      	b.n	8003190 <HAL_RCC_OscConfig+0xf0>
 8003272:	2201      	movs	r2, #1
 8003274:	4393      	bics	r3, r2
 8003276:	6023      	str	r3, [r4, #0]
 8003278:	f7ff fa62 	bl	8002740 <HAL_GetTick>
 800327c:	0007      	movs	r7, r0
 800327e:	2204      	movs	r2, #4
 8003280:	6823      	ldr	r3, [r4, #0]
 8003282:	4213      	tst	r3, r2
 8003284:	d100      	bne.n	8003288 <HAL_RCC_OscConfig+0x1e8>
 8003286:	e723      	b.n	80030d0 <HAL_RCC_OscConfig+0x30>
 8003288:	f7ff fa5a 	bl	8002740 <HAL_GetTick>
 800328c:	1bc0      	subs	r0, r0, r7
 800328e:	2802      	cmp	r0, #2
 8003290:	d9f5      	bls.n	800327e <HAL_RCC_OscConfig+0x1de>
 8003292:	e77d      	b.n	8003190 <HAL_RCC_OscConfig+0xf0>
 8003294:	69eb      	ldr	r3, [r5, #28]
 8003296:	2b00      	cmp	r3, #0
 8003298:	d020      	beq.n	80032dc <HAL_RCC_OscConfig+0x23c>
 800329a:	2380      	movs	r3, #128	; 0x80
 800329c:	6822      	ldr	r2, [r4, #0]
 800329e:	005b      	lsls	r3, r3, #1
 80032a0:	4313      	orrs	r3, r2
 80032a2:	6023      	str	r3, [r4, #0]
 80032a4:	f7ff fa4c 	bl	8002740 <HAL_GetTick>
 80032a8:	0007      	movs	r7, r0
 80032aa:	2280      	movs	r2, #128	; 0x80
 80032ac:	6823      	ldr	r3, [r4, #0]
 80032ae:	0092      	lsls	r2, r2, #2
 80032b0:	4213      	tst	r3, r2
 80032b2:	d00d      	beq.n	80032d0 <HAL_RCC_OscConfig+0x230>
 80032b4:	6863      	ldr	r3, [r4, #4]
 80032b6:	4a3f      	ldr	r2, [pc, #252]	; (80033b4 <HAL_RCC_OscConfig+0x314>)
 80032b8:	4013      	ands	r3, r2
 80032ba:	6a6a      	ldr	r2, [r5, #36]	; 0x24
 80032bc:	4313      	orrs	r3, r2
 80032be:	6063      	str	r3, [r4, #4]
 80032c0:	6862      	ldr	r2, [r4, #4]
 80032c2:	6a2b      	ldr	r3, [r5, #32]
 80032c4:	0212      	lsls	r2, r2, #8
 80032c6:	061b      	lsls	r3, r3, #24
 80032c8:	0a12      	lsrs	r2, r2, #8
 80032ca:	4313      	orrs	r3, r2
 80032cc:	6063      	str	r3, [r4, #4]
 80032ce:	e72c      	b.n	800312a <HAL_RCC_OscConfig+0x8a>
 80032d0:	f7ff fa36 	bl	8002740 <HAL_GetTick>
 80032d4:	1bc0      	subs	r0, r0, r7
 80032d6:	2802      	cmp	r0, #2
 80032d8:	d9e7      	bls.n	80032aa <HAL_RCC_OscConfig+0x20a>
 80032da:	e759      	b.n	8003190 <HAL_RCC_OscConfig+0xf0>
 80032dc:	6823      	ldr	r3, [r4, #0]
 80032de:	4a3c      	ldr	r2, [pc, #240]	; (80033d0 <HAL_RCC_OscConfig+0x330>)
 80032e0:	4013      	ands	r3, r2
 80032e2:	6023      	str	r3, [r4, #0]
 80032e4:	f7ff fa2c 	bl	8002740 <HAL_GetTick>
 80032e8:	0007      	movs	r7, r0
 80032ea:	2280      	movs	r2, #128	; 0x80
 80032ec:	6823      	ldr	r3, [r4, #0]
 80032ee:	0092      	lsls	r2, r2, #2
 80032f0:	4213      	tst	r3, r2
 80032f2:	d100      	bne.n	80032f6 <HAL_RCC_OscConfig+0x256>
 80032f4:	e719      	b.n	800312a <HAL_RCC_OscConfig+0x8a>
 80032f6:	f7ff fa23 	bl	8002740 <HAL_GetTick>
 80032fa:	1bc0      	subs	r0, r0, r7
 80032fc:	2802      	cmp	r0, #2
 80032fe:	d9f4      	bls.n	80032ea <HAL_RCC_OscConfig+0x24a>
 8003300:	e746      	b.n	8003190 <HAL_RCC_OscConfig+0xf0>
 8003302:	696a      	ldr	r2, [r5, #20]
 8003304:	2301      	movs	r3, #1
 8003306:	2a00      	cmp	r2, #0
 8003308:	d010      	beq.n	800332c <HAL_RCC_OscConfig+0x28c>
 800330a:	6d22      	ldr	r2, [r4, #80]	; 0x50
 800330c:	4313      	orrs	r3, r2
 800330e:	6523      	str	r3, [r4, #80]	; 0x50
 8003310:	f7ff fa16 	bl	8002740 <HAL_GetTick>
 8003314:	0007      	movs	r7, r0
 8003316:	2202      	movs	r2, #2
 8003318:	6d23      	ldr	r3, [r4, #80]	; 0x50
 800331a:	4213      	tst	r3, r2
 800331c:	d000      	beq.n	8003320 <HAL_RCC_OscConfig+0x280>
 800331e:	e708      	b.n	8003132 <HAL_RCC_OscConfig+0x92>
 8003320:	f7ff fa0e 	bl	8002740 <HAL_GetTick>
 8003324:	1bc0      	subs	r0, r0, r7
 8003326:	2802      	cmp	r0, #2
 8003328:	d9f5      	bls.n	8003316 <HAL_RCC_OscConfig+0x276>
 800332a:	e731      	b.n	8003190 <HAL_RCC_OscConfig+0xf0>
 800332c:	6d22      	ldr	r2, [r4, #80]	; 0x50
 800332e:	439a      	bics	r2, r3
 8003330:	6522      	str	r2, [r4, #80]	; 0x50
 8003332:	f7ff fa05 	bl	8002740 <HAL_GetTick>
 8003336:	0007      	movs	r7, r0
 8003338:	2202      	movs	r2, #2
 800333a:	6d23      	ldr	r3, [r4, #80]	; 0x50
 800333c:	4213      	tst	r3, r2
 800333e:	d100      	bne.n	8003342 <HAL_RCC_OscConfig+0x2a2>
 8003340:	e6f7      	b.n	8003132 <HAL_RCC_OscConfig+0x92>
 8003342:	f7ff f9fd 	bl	8002740 <HAL_GetTick>
 8003346:	1bc0      	subs	r0, r0, r7
 8003348:	2802      	cmp	r0, #2
 800334a:	d9f5      	bls.n	8003338 <HAL_RCC_OscConfig+0x298>
 800334c:	e720      	b.n	8003190 <HAL_RCC_OscConfig+0xf0>
 800334e:	2380      	movs	r3, #128	; 0x80
 8003350:	2100      	movs	r1, #0
 8003352:	6ba2      	ldr	r2, [r4, #56]	; 0x38
 8003354:	055b      	lsls	r3, r3, #21
 8003356:	9101      	str	r1, [sp, #4]
 8003358:	421a      	tst	r2, r3
 800335a:	d104      	bne.n	8003366 <HAL_RCC_OscConfig+0x2c6>
 800335c:	6ba2      	ldr	r2, [r4, #56]	; 0x38
 800335e:	4313      	orrs	r3, r2
 8003360:	63a3      	str	r3, [r4, #56]	; 0x38
 8003362:	2301      	movs	r3, #1
 8003364:	9301      	str	r3, [sp, #4]
 8003366:	2280      	movs	r2, #128	; 0x80
 8003368:	4f1a      	ldr	r7, [pc, #104]	; (80033d4 <HAL_RCC_OscConfig+0x334>)
 800336a:	0052      	lsls	r2, r2, #1
 800336c:	683b      	ldr	r3, [r7, #0]
 800336e:	4213      	tst	r3, r2
 8003370:	d008      	beq.n	8003384 <HAL_RCC_OscConfig+0x2e4>
 8003372:	2280      	movs	r2, #128	; 0x80
 8003374:	68ab      	ldr	r3, [r5, #8]
 8003376:	0052      	lsls	r2, r2, #1
 8003378:	4293      	cmp	r3, r2
 800337a:	d12d      	bne.n	80033d8 <HAL_RCC_OscConfig+0x338>
 800337c:	6d22      	ldr	r2, [r4, #80]	; 0x50
 800337e:	4313      	orrs	r3, r2
 8003380:	6523      	str	r3, [r4, #80]	; 0x50
 8003382:	e04e      	b.n	8003422 <HAL_RCC_OscConfig+0x382>
 8003384:	2280      	movs	r2, #128	; 0x80
 8003386:	683b      	ldr	r3, [r7, #0]
 8003388:	0052      	lsls	r2, r2, #1
 800338a:	4313      	orrs	r3, r2
 800338c:	603b      	str	r3, [r7, #0]
 800338e:	f7ff f9d7 	bl	8002740 <HAL_GetTick>
 8003392:	2380      	movs	r3, #128	; 0x80
 8003394:	005b      	lsls	r3, r3, #1
 8003396:	9002      	str	r0, [sp, #8]
 8003398:	9303      	str	r3, [sp, #12]
 800339a:	683b      	ldr	r3, [r7, #0]
 800339c:	9a03      	ldr	r2, [sp, #12]
 800339e:	4213      	tst	r3, r2
 80033a0:	d1e7      	bne.n	8003372 <HAL_RCC_OscConfig+0x2d2>
 80033a2:	f7ff f9cd 	bl	8002740 <HAL_GetTick>
 80033a6:	9b02      	ldr	r3, [sp, #8]
 80033a8:	1ac0      	subs	r0, r0, r3
 80033aa:	2864      	cmp	r0, #100	; 0x64
 80033ac:	d9f5      	bls.n	800339a <HAL_RCC_OscConfig+0x2fa>
 80033ae:	e6ef      	b.n	8003190 <HAL_RCC_OscConfig+0xf0>
 80033b0:	40021000 	.word	0x40021000
 80033b4:	ffff1fff 	.word	0xffff1fff
 80033b8:	0800525a 	.word	0x0800525a
 80033bc:	20000000 	.word	0x20000000
 80033c0:	20000008 	.word	0x20000008
 80033c4:	fffeffff 	.word	0xfffeffff
 80033c8:	fffbffff 	.word	0xfffbffff
 80033cc:	ffffe0ff 	.word	0xffffe0ff
 80033d0:	fffffeff 	.word	0xfffffeff
 80033d4:	40007000 	.word	0x40007000
 80033d8:	2b00      	cmp	r3, #0
 80033da:	d116      	bne.n	800340a <HAL_RCC_OscConfig+0x36a>
 80033dc:	6d23      	ldr	r3, [r4, #80]	; 0x50
 80033de:	4a6c      	ldr	r2, [pc, #432]	; (8003590 <HAL_RCC_OscConfig+0x4f0>)
 80033e0:	4013      	ands	r3, r2
 80033e2:	6523      	str	r3, [r4, #80]	; 0x50
 80033e4:	6d23      	ldr	r3, [r4, #80]	; 0x50
 80033e6:	4a6b      	ldr	r2, [pc, #428]	; (8003594 <HAL_RCC_OscConfig+0x4f4>)
 80033e8:	4013      	ands	r3, r2
 80033ea:	6523      	str	r3, [r4, #80]	; 0x50
 80033ec:	f7ff f9a8 	bl	8002740 <HAL_GetTick>
 80033f0:	0007      	movs	r7, r0
 80033f2:	2280      	movs	r2, #128	; 0x80
 80033f4:	6d23      	ldr	r3, [r4, #80]	; 0x50
 80033f6:	0092      	lsls	r2, r2, #2
 80033f8:	4213      	tst	r3, r2
 80033fa:	d02a      	beq.n	8003452 <HAL_RCC_OscConfig+0x3b2>
 80033fc:	f7ff f9a0 	bl	8002740 <HAL_GetTick>
 8003400:	4b65      	ldr	r3, [pc, #404]	; (8003598 <HAL_RCC_OscConfig+0x4f8>)
 8003402:	1bc0      	subs	r0, r0, r7
 8003404:	4298      	cmp	r0, r3
 8003406:	d9f4      	bls.n	80033f2 <HAL_RCC_OscConfig+0x352>
 8003408:	e6c2      	b.n	8003190 <HAL_RCC_OscConfig+0xf0>
 800340a:	21a0      	movs	r1, #160	; 0xa0
 800340c:	00c9      	lsls	r1, r1, #3
 800340e:	428b      	cmp	r3, r1
 8003410:	d10b      	bne.n	800342a <HAL_RCC_OscConfig+0x38a>
 8003412:	2380      	movs	r3, #128	; 0x80
 8003414:	6d21      	ldr	r1, [r4, #80]	; 0x50
 8003416:	00db      	lsls	r3, r3, #3
 8003418:	430b      	orrs	r3, r1
 800341a:	6523      	str	r3, [r4, #80]	; 0x50
 800341c:	6d23      	ldr	r3, [r4, #80]	; 0x50
 800341e:	431a      	orrs	r2, r3
 8003420:	6522      	str	r2, [r4, #80]	; 0x50
 8003422:	f7ff f98d 	bl	8002740 <HAL_GetTick>
 8003426:	0007      	movs	r7, r0
 8003428:	e00e      	b.n	8003448 <HAL_RCC_OscConfig+0x3a8>
 800342a:	6d23      	ldr	r3, [r4, #80]	; 0x50
 800342c:	4a58      	ldr	r2, [pc, #352]	; (8003590 <HAL_RCC_OscConfig+0x4f0>)
 800342e:	4013      	ands	r3, r2
 8003430:	6523      	str	r3, [r4, #80]	; 0x50
 8003432:	6d23      	ldr	r3, [r4, #80]	; 0x50
 8003434:	4a57      	ldr	r2, [pc, #348]	; (8003594 <HAL_RCC_OscConfig+0x4f4>)
 8003436:	4013      	ands	r3, r2
 8003438:	e7a2      	b.n	8003380 <HAL_RCC_OscConfig+0x2e0>
 800343a:	f7ff f981 	bl	8002740 <HAL_GetTick>
 800343e:	4b56      	ldr	r3, [pc, #344]	; (8003598 <HAL_RCC_OscConfig+0x4f8>)
 8003440:	1bc0      	subs	r0, r0, r7
 8003442:	4298      	cmp	r0, r3
 8003444:	d900      	bls.n	8003448 <HAL_RCC_OscConfig+0x3a8>
 8003446:	e6a3      	b.n	8003190 <HAL_RCC_OscConfig+0xf0>
 8003448:	2280      	movs	r2, #128	; 0x80
 800344a:	6d23      	ldr	r3, [r4, #80]	; 0x50
 800344c:	0092      	lsls	r2, r2, #2
 800344e:	4213      	tst	r3, r2
 8003450:	d0f3      	beq.n	800343a <HAL_RCC_OscConfig+0x39a>
 8003452:	9b01      	ldr	r3, [sp, #4]
 8003454:	2b01      	cmp	r3, #1
 8003456:	d000      	beq.n	800345a <HAL_RCC_OscConfig+0x3ba>
 8003458:	e66f      	b.n	800313a <HAL_RCC_OscConfig+0x9a>
 800345a:	6ba3      	ldr	r3, [r4, #56]	; 0x38
 800345c:	4a4f      	ldr	r2, [pc, #316]	; (800359c <HAL_RCC_OscConfig+0x4fc>)
 800345e:	4013      	ands	r3, r2
 8003460:	63a3      	str	r3, [r4, #56]	; 0x38
 8003462:	e66a      	b.n	800313a <HAL_RCC_OscConfig+0x9a>
 8003464:	69a9      	ldr	r1, [r5, #24]
 8003466:	2301      	movs	r3, #1
 8003468:	4a4d      	ldr	r2, [pc, #308]	; (80035a0 <HAL_RCC_OscConfig+0x500>)
 800346a:	2900      	cmp	r1, #0
 800346c:	d018      	beq.n	80034a0 <HAL_RCC_OscConfig+0x400>
 800346e:	68a1      	ldr	r1, [r4, #8]
 8003470:	4319      	orrs	r1, r3
 8003472:	60a1      	str	r1, [r4, #8]
 8003474:	6b61      	ldr	r1, [r4, #52]	; 0x34
 8003476:	430b      	orrs	r3, r1
 8003478:	6363      	str	r3, [r4, #52]	; 0x34
 800347a:	2380      	movs	r3, #128	; 0x80
 800347c:	6a11      	ldr	r1, [r2, #32]
 800347e:	019b      	lsls	r3, r3, #6
 8003480:	430b      	orrs	r3, r1
 8003482:	6213      	str	r3, [r2, #32]
 8003484:	f7ff f95c 	bl	8002740 <HAL_GetTick>
 8003488:	0007      	movs	r7, r0
 800348a:	2202      	movs	r2, #2
 800348c:	68a3      	ldr	r3, [r4, #8]
 800348e:	4213      	tst	r3, r2
 8003490:	d000      	beq.n	8003494 <HAL_RCC_OscConfig+0x3f4>
 8003492:	e656      	b.n	8003142 <HAL_RCC_OscConfig+0xa2>
 8003494:	f7ff f954 	bl	8002740 <HAL_GetTick>
 8003498:	1bc0      	subs	r0, r0, r7
 800349a:	2802      	cmp	r0, #2
 800349c:	d9f5      	bls.n	800348a <HAL_RCC_OscConfig+0x3ea>
 800349e:	e677      	b.n	8003190 <HAL_RCC_OscConfig+0xf0>
 80034a0:	68a1      	ldr	r1, [r4, #8]
 80034a2:	4399      	bics	r1, r3
 80034a4:	60a1      	str	r1, [r4, #8]
 80034a6:	6a13      	ldr	r3, [r2, #32]
 80034a8:	493e      	ldr	r1, [pc, #248]	; (80035a4 <HAL_RCC_OscConfig+0x504>)
 80034aa:	400b      	ands	r3, r1
 80034ac:	6213      	str	r3, [r2, #32]
 80034ae:	f7ff f947 	bl	8002740 <HAL_GetTick>
 80034b2:	0007      	movs	r7, r0
 80034b4:	2202      	movs	r2, #2
 80034b6:	68a3      	ldr	r3, [r4, #8]
 80034b8:	4213      	tst	r3, r2
 80034ba:	d100      	bne.n	80034be <HAL_RCC_OscConfig+0x41e>
 80034bc:	e641      	b.n	8003142 <HAL_RCC_OscConfig+0xa2>
 80034be:	f7ff f93f 	bl	8002740 <HAL_GetTick>
 80034c2:	1bc0      	subs	r0, r0, r7
 80034c4:	2802      	cmp	r0, #2
 80034c6:	d9f5      	bls.n	80034b4 <HAL_RCC_OscConfig+0x414>
 80034c8:	e662      	b.n	8003190 <HAL_RCC_OscConfig+0xf0>
 80034ca:	2e0c      	cmp	r6, #12
 80034cc:	d043      	beq.n	8003556 <HAL_RCC_OscConfig+0x4b6>
 80034ce:	4a36      	ldr	r2, [pc, #216]	; (80035a8 <HAL_RCC_OscConfig+0x508>)
 80034d0:	2b02      	cmp	r3, #2
 80034d2:	d12e      	bne.n	8003532 <HAL_RCC_OscConfig+0x492>
 80034d4:	6823      	ldr	r3, [r4, #0]
 80034d6:	2680      	movs	r6, #128	; 0x80
 80034d8:	4013      	ands	r3, r2
 80034da:	6023      	str	r3, [r4, #0]
 80034dc:	f7ff f930 	bl	8002740 <HAL_GetTick>
 80034e0:	0007      	movs	r7, r0
 80034e2:	04b6      	lsls	r6, r6, #18
 80034e4:	6823      	ldr	r3, [r4, #0]
 80034e6:	4233      	tst	r3, r6
 80034e8:	d11d      	bne.n	8003526 <HAL_RCC_OscConfig+0x486>
 80034ea:	6b29      	ldr	r1, [r5, #48]	; 0x30
 80034ec:	6aeb      	ldr	r3, [r5, #44]	; 0x2c
 80034ee:	68e2      	ldr	r2, [r4, #12]
 80034f0:	430b      	orrs	r3, r1
 80034f2:	492e      	ldr	r1, [pc, #184]	; (80035ac <HAL_RCC_OscConfig+0x50c>)
 80034f4:	400a      	ands	r2, r1
 80034f6:	4313      	orrs	r3, r2
 80034f8:	6b6a      	ldr	r2, [r5, #52]	; 0x34
 80034fa:	2580      	movs	r5, #128	; 0x80
 80034fc:	4313      	orrs	r3, r2
 80034fe:	60e3      	str	r3, [r4, #12]
 8003500:	2380      	movs	r3, #128	; 0x80
 8003502:	6822      	ldr	r2, [r4, #0]
 8003504:	045b      	lsls	r3, r3, #17
 8003506:	4313      	orrs	r3, r2
 8003508:	6023      	str	r3, [r4, #0]
 800350a:	f7ff f919 	bl	8002740 <HAL_GetTick>
 800350e:	0006      	movs	r6, r0
 8003510:	04ad      	lsls	r5, r5, #18
 8003512:	6823      	ldr	r3, [r4, #0]
 8003514:	422b      	tst	r3, r5
 8003516:	d000      	beq.n	800351a <HAL_RCC_OscConfig+0x47a>
 8003518:	e617      	b.n	800314a <HAL_RCC_OscConfig+0xaa>
 800351a:	f7ff f911 	bl	8002740 <HAL_GetTick>
 800351e:	1b80      	subs	r0, r0, r6
 8003520:	2802      	cmp	r0, #2
 8003522:	d9f6      	bls.n	8003512 <HAL_RCC_OscConfig+0x472>
 8003524:	e634      	b.n	8003190 <HAL_RCC_OscConfig+0xf0>
 8003526:	f7ff f90b 	bl	8002740 <HAL_GetTick>
 800352a:	1bc0      	subs	r0, r0, r7
 800352c:	2802      	cmp	r0, #2
 800352e:	d9d9      	bls.n	80034e4 <HAL_RCC_OscConfig+0x444>
 8003530:	e62e      	b.n	8003190 <HAL_RCC_OscConfig+0xf0>
 8003532:	6823      	ldr	r3, [r4, #0]
 8003534:	2580      	movs	r5, #128	; 0x80
 8003536:	4013      	ands	r3, r2
 8003538:	6023      	str	r3, [r4, #0]
 800353a:	f7ff f901 	bl	8002740 <HAL_GetTick>
 800353e:	0006      	movs	r6, r0
 8003540:	04ad      	lsls	r5, r5, #18
 8003542:	6823      	ldr	r3, [r4, #0]
 8003544:	422b      	tst	r3, r5
 8003546:	d100      	bne.n	800354a <HAL_RCC_OscConfig+0x4aa>
 8003548:	e5ff      	b.n	800314a <HAL_RCC_OscConfig+0xaa>
 800354a:	f7ff f8f9 	bl	8002740 <HAL_GetTick>
 800354e:	1b80      	subs	r0, r0, r6
 8003550:	2802      	cmp	r0, #2
 8003552:	d9f6      	bls.n	8003542 <HAL_RCC_OscConfig+0x4a2>
 8003554:	e61c      	b.n	8003190 <HAL_RCC_OscConfig+0xf0>
 8003556:	0018      	movs	r0, r3
 8003558:	2b01      	cmp	r3, #1
 800355a:	d100      	bne.n	800355e <HAL_RCC_OscConfig+0x4be>
 800355c:	e5a6      	b.n	80030ac <HAL_RCC_OscConfig+0xc>
 800355e:	2280      	movs	r2, #128	; 0x80
 8003560:	68e3      	ldr	r3, [r4, #12]
 8003562:	6ae9      	ldr	r1, [r5, #44]	; 0x2c
 8003564:	0252      	lsls	r2, r2, #9
 8003566:	401a      	ands	r2, r3
 8003568:	2001      	movs	r0, #1
 800356a:	428a      	cmp	r2, r1
 800356c:	d000      	beq.n	8003570 <HAL_RCC_OscConfig+0x4d0>
 800356e:	e59d      	b.n	80030ac <HAL_RCC_OscConfig+0xc>
 8003570:	22f0      	movs	r2, #240	; 0xf0
 8003572:	6b29      	ldr	r1, [r5, #48]	; 0x30
 8003574:	0392      	lsls	r2, r2, #14
 8003576:	401a      	ands	r2, r3
 8003578:	428a      	cmp	r2, r1
 800357a:	d000      	beq.n	800357e <HAL_RCC_OscConfig+0x4de>
 800357c:	e596      	b.n	80030ac <HAL_RCC_OscConfig+0xc>
 800357e:	20c0      	movs	r0, #192	; 0xc0
 8003580:	0400      	lsls	r0, r0, #16
 8003582:	4003      	ands	r3, r0
 8003584:	6b68      	ldr	r0, [r5, #52]	; 0x34
 8003586:	1a18      	subs	r0, r3, r0
 8003588:	1e43      	subs	r3, r0, #1
 800358a:	4198      	sbcs	r0, r3
 800358c:	b2c0      	uxtb	r0, r0
 800358e:	e58d      	b.n	80030ac <HAL_RCC_OscConfig+0xc>
 8003590:	fffffeff 	.word	0xfffffeff
 8003594:	fffffbff 	.word	0xfffffbff
 8003598:	00001388 	.word	0x00001388
 800359c:	efffffff 	.word	0xefffffff
 80035a0:	40010000 	.word	0x40010000
 80035a4:	ffffdfff 	.word	0xffffdfff
 80035a8:	feffffff 	.word	0xfeffffff
 80035ac:	ff02ffff 	.word	0xff02ffff

080035b0 <HAL_RCC_ClockConfig>:
 80035b0:	b5f7      	push	{r0, r1, r2, r4, r5, r6, r7, lr}
 80035b2:	1e06      	subs	r6, r0, #0
 80035b4:	9101      	str	r1, [sp, #4]
 80035b6:	d101      	bne.n	80035bc <HAL_RCC_ClockConfig+0xc>
 80035b8:	2001      	movs	r0, #1
 80035ba:	bdfe      	pop	{r1, r2, r3, r4, r5, r6, r7, pc}
 80035bc:	2501      	movs	r5, #1
 80035be:	4c5b      	ldr	r4, [pc, #364]	; (800372c <HAL_RCC_ClockConfig+0x17c>)
 80035c0:	9a01      	ldr	r2, [sp, #4]
 80035c2:	6823      	ldr	r3, [r4, #0]
 80035c4:	402b      	ands	r3, r5
 80035c6:	4293      	cmp	r3, r2
 80035c8:	d331      	bcc.n	800362e <HAL_RCC_ClockConfig+0x7e>
 80035ca:	6832      	ldr	r2, [r6, #0]
 80035cc:	0793      	lsls	r3, r2, #30
 80035ce:	d443      	bmi.n	8003658 <HAL_RCC_ClockConfig+0xa8>
 80035d0:	07d3      	lsls	r3, r2, #31
 80035d2:	d449      	bmi.n	8003668 <HAL_RCC_ClockConfig+0xb8>
 80035d4:	2501      	movs	r5, #1
 80035d6:	6823      	ldr	r3, [r4, #0]
 80035d8:	9a01      	ldr	r2, [sp, #4]
 80035da:	402b      	ands	r3, r5
 80035dc:	4293      	cmp	r3, r2
 80035de:	d909      	bls.n	80035f4 <HAL_RCC_ClockConfig+0x44>
 80035e0:	6823      	ldr	r3, [r4, #0]
 80035e2:	43ab      	bics	r3, r5
 80035e4:	6023      	str	r3, [r4, #0]
 80035e6:	f7ff f8ab 	bl	8002740 <HAL_GetTick>
 80035ea:	0007      	movs	r7, r0
 80035ec:	6823      	ldr	r3, [r4, #0]
 80035ee:	422b      	tst	r3, r5
 80035f0:	d000      	beq.n	80035f4 <HAL_RCC_ClockConfig+0x44>
 80035f2:	e08c      	b.n	800370e <HAL_RCC_ClockConfig+0x15e>
 80035f4:	6832      	ldr	r2, [r6, #0]
 80035f6:	4c4e      	ldr	r4, [pc, #312]	; (8003730 <HAL_RCC_ClockConfig+0x180>)
 80035f8:	0753      	lsls	r3, r2, #29
 80035fa:	d500      	bpl.n	80035fe <HAL_RCC_ClockConfig+0x4e>
 80035fc:	e08f      	b.n	800371e <HAL_RCC_ClockConfig+0x16e>
 80035fe:	0713      	lsls	r3, r2, #28
 8003600:	d506      	bpl.n	8003610 <HAL_RCC_ClockConfig+0x60>
 8003602:	68e2      	ldr	r2, [r4, #12]
 8003604:	6933      	ldr	r3, [r6, #16]
 8003606:	494b      	ldr	r1, [pc, #300]	; (8003734 <HAL_RCC_ClockConfig+0x184>)
 8003608:	00db      	lsls	r3, r3, #3
 800360a:	400a      	ands	r2, r1
 800360c:	4313      	orrs	r3, r2
 800360e:	60e3      	str	r3, [r4, #12]
 8003610:	f7ff fcfc 	bl	800300c <HAL_RCC_GetSysClockFreq>
 8003614:	68e3      	ldr	r3, [r4, #12]
 8003616:	4a48      	ldr	r2, [pc, #288]	; (8003738 <HAL_RCC_ClockConfig+0x188>)
 8003618:	061b      	lsls	r3, r3, #24
 800361a:	0f1b      	lsrs	r3, r3, #28
 800361c:	5cd3      	ldrb	r3, [r2, r3]
 800361e:	40d8      	lsrs	r0, r3
 8003620:	4b46      	ldr	r3, [pc, #280]	; (800373c <HAL_RCC_ClockConfig+0x18c>)
 8003622:	6018      	str	r0, [r3, #0]
 8003624:	4b46      	ldr	r3, [pc, #280]	; (8003740 <HAL_RCC_ClockConfig+0x190>)
 8003626:	6818      	ldr	r0, [r3, #0]
 8003628:	f7ff f846 	bl	80026b8 <HAL_InitTick>
 800362c:	e7c5      	b.n	80035ba <HAL_RCC_ClockConfig+0xa>
 800362e:	6823      	ldr	r3, [r4, #0]
 8003630:	9a01      	ldr	r2, [sp, #4]
 8003632:	43ab      	bics	r3, r5
 8003634:	4313      	orrs	r3, r2
 8003636:	6023      	str	r3, [r4, #0]
 8003638:	f7ff f882 	bl	8002740 <HAL_GetTick>
 800363c:	0007      	movs	r7, r0
 800363e:	6823      	ldr	r3, [r4, #0]
 8003640:	9a01      	ldr	r2, [sp, #4]
 8003642:	402b      	ands	r3, r5
 8003644:	4293      	cmp	r3, r2
 8003646:	d0c0      	beq.n	80035ca <HAL_RCC_ClockConfig+0x1a>
 8003648:	f7ff f87a 	bl	8002740 <HAL_GetTick>
 800364c:	4b3d      	ldr	r3, [pc, #244]	; (8003744 <HAL_RCC_ClockConfig+0x194>)
 800364e:	1bc0      	subs	r0, r0, r7
 8003650:	4298      	cmp	r0, r3
 8003652:	d9f4      	bls.n	800363e <HAL_RCC_ClockConfig+0x8e>
 8003654:	2003      	movs	r0, #3
 8003656:	e7b0      	b.n	80035ba <HAL_RCC_ClockConfig+0xa>
 8003658:	20f0      	movs	r0, #240	; 0xf0
 800365a:	4935      	ldr	r1, [pc, #212]	; (8003730 <HAL_RCC_ClockConfig+0x180>)
 800365c:	68cb      	ldr	r3, [r1, #12]
 800365e:	4383      	bics	r3, r0
 8003660:	68b0      	ldr	r0, [r6, #8]
 8003662:	4303      	orrs	r3, r0
 8003664:	60cb      	str	r3, [r1, #12]
 8003666:	e7b3      	b.n	80035d0 <HAL_RCC_ClockConfig+0x20>
 8003668:	4d31      	ldr	r5, [pc, #196]	; (8003730 <HAL_RCC_ClockConfig+0x180>)
 800366a:	6872      	ldr	r2, [r6, #4]
 800366c:	682b      	ldr	r3, [r5, #0]
 800366e:	2a02      	cmp	r2, #2
 8003670:	d118      	bne.n	80036a4 <HAL_RCC_ClockConfig+0xf4>
 8003672:	039b      	lsls	r3, r3, #14
 8003674:	d5a0      	bpl.n	80035b8 <HAL_RCC_ClockConfig+0x8>
 8003676:	2103      	movs	r1, #3
 8003678:	68eb      	ldr	r3, [r5, #12]
 800367a:	438b      	bics	r3, r1
 800367c:	4313      	orrs	r3, r2
 800367e:	60eb      	str	r3, [r5, #12]
 8003680:	f7ff f85e 	bl	8002740 <HAL_GetTick>
 8003684:	6873      	ldr	r3, [r6, #4]
 8003686:	0007      	movs	r7, r0
 8003688:	2b02      	cmp	r3, #2
 800368a:	d118      	bne.n	80036be <HAL_RCC_ClockConfig+0x10e>
 800368c:	220c      	movs	r2, #12
 800368e:	68eb      	ldr	r3, [r5, #12]
 8003690:	4013      	ands	r3, r2
 8003692:	2b08      	cmp	r3, #8
 8003694:	d09e      	beq.n	80035d4 <HAL_RCC_ClockConfig+0x24>
 8003696:	f7ff f853 	bl	8002740 <HAL_GetTick>
 800369a:	4b2a      	ldr	r3, [pc, #168]	; (8003744 <HAL_RCC_ClockConfig+0x194>)
 800369c:	1bc0      	subs	r0, r0, r7
 800369e:	4298      	cmp	r0, r3
 80036a0:	d9f4      	bls.n	800368c <HAL_RCC_ClockConfig+0xdc>
 80036a2:	e7d7      	b.n	8003654 <HAL_RCC_ClockConfig+0xa4>
 80036a4:	2a03      	cmp	r2, #3
 80036a6:	d102      	bne.n	80036ae <HAL_RCC_ClockConfig+0xfe>
 80036a8:	019b      	lsls	r3, r3, #6
 80036aa:	d4e4      	bmi.n	8003676 <HAL_RCC_ClockConfig+0xc6>
 80036ac:	e784      	b.n	80035b8 <HAL_RCC_ClockConfig+0x8>
 80036ae:	2a01      	cmp	r2, #1
 80036b0:	d102      	bne.n	80036b8 <HAL_RCC_ClockConfig+0x108>
 80036b2:	075b      	lsls	r3, r3, #29
 80036b4:	d4df      	bmi.n	8003676 <HAL_RCC_ClockConfig+0xc6>
 80036b6:	e77f      	b.n	80035b8 <HAL_RCC_ClockConfig+0x8>
 80036b8:	059b      	lsls	r3, r3, #22
 80036ba:	d4dc      	bmi.n	8003676 <HAL_RCC_ClockConfig+0xc6>
 80036bc:	e77c      	b.n	80035b8 <HAL_RCC_ClockConfig+0x8>
 80036be:	2b03      	cmp	r3, #3
 80036c0:	d10b      	bne.n	80036da <HAL_RCC_ClockConfig+0x12a>
 80036c2:	220c      	movs	r2, #12
 80036c4:	68eb      	ldr	r3, [r5, #12]
 80036c6:	4013      	ands	r3, r2
 80036c8:	4293      	cmp	r3, r2
 80036ca:	d083      	beq.n	80035d4 <HAL_RCC_ClockConfig+0x24>
 80036cc:	f7ff f838 	bl	8002740 <HAL_GetTick>
 80036d0:	4b1c      	ldr	r3, [pc, #112]	; (8003744 <HAL_RCC_ClockConfig+0x194>)
 80036d2:	1bc0      	subs	r0, r0, r7
 80036d4:	4298      	cmp	r0, r3
 80036d6:	d9f4      	bls.n	80036c2 <HAL_RCC_ClockConfig+0x112>
 80036d8:	e7bc      	b.n	8003654 <HAL_RCC_ClockConfig+0xa4>
 80036da:	2b01      	cmp	r3, #1
 80036dc:	d011      	beq.n	8003702 <HAL_RCC_ClockConfig+0x152>
 80036de:	220c      	movs	r2, #12
 80036e0:	68eb      	ldr	r3, [r5, #12]
 80036e2:	4213      	tst	r3, r2
 80036e4:	d100      	bne.n	80036e8 <HAL_RCC_ClockConfig+0x138>
 80036e6:	e775      	b.n	80035d4 <HAL_RCC_ClockConfig+0x24>
 80036e8:	f7ff f82a 	bl	8002740 <HAL_GetTick>
 80036ec:	4b15      	ldr	r3, [pc, #84]	; (8003744 <HAL_RCC_ClockConfig+0x194>)
 80036ee:	1bc0      	subs	r0, r0, r7
 80036f0:	4298      	cmp	r0, r3
 80036f2:	d9f4      	bls.n	80036de <HAL_RCC_ClockConfig+0x12e>
 80036f4:	e7ae      	b.n	8003654 <HAL_RCC_ClockConfig+0xa4>
 80036f6:	f7ff f823 	bl	8002740 <HAL_GetTick>
 80036fa:	4b12      	ldr	r3, [pc, #72]	; (8003744 <HAL_RCC_ClockConfig+0x194>)
 80036fc:	1bc0      	subs	r0, r0, r7
 80036fe:	4298      	cmp	r0, r3
 8003700:	d8a8      	bhi.n	8003654 <HAL_RCC_ClockConfig+0xa4>
 8003702:	220c      	movs	r2, #12
 8003704:	68eb      	ldr	r3, [r5, #12]
 8003706:	4013      	ands	r3, r2
 8003708:	2b04      	cmp	r3, #4
 800370a:	d1f4      	bne.n	80036f6 <HAL_RCC_ClockConfig+0x146>
 800370c:	e762      	b.n	80035d4 <HAL_RCC_ClockConfig+0x24>
 800370e:	f7ff f817 	bl	8002740 <HAL_GetTick>
 8003712:	4b0c      	ldr	r3, [pc, #48]	; (8003744 <HAL_RCC_ClockConfig+0x194>)
 8003714:	1bc0      	subs	r0, r0, r7
 8003716:	4298      	cmp	r0, r3
 8003718:	d800      	bhi.n	800371c <HAL_RCC_ClockConfig+0x16c>
 800371a:	e767      	b.n	80035ec <HAL_RCC_ClockConfig+0x3c>
 800371c:	e79a      	b.n	8003654 <HAL_RCC_ClockConfig+0xa4>
 800371e:	68e3      	ldr	r3, [r4, #12]
 8003720:	4909      	ldr	r1, [pc, #36]	; (8003748 <HAL_RCC_ClockConfig+0x198>)
 8003722:	400b      	ands	r3, r1
 8003724:	68f1      	ldr	r1, [r6, #12]
 8003726:	430b      	orrs	r3, r1
 8003728:	60e3      	str	r3, [r4, #12]
 800372a:	e768      	b.n	80035fe <HAL_RCC_ClockConfig+0x4e>
 800372c:	40022000 	.word	0x40022000
 8003730:	40021000 	.word	0x40021000
 8003734:	ffffc7ff 	.word	0xffffc7ff
 8003738:	0800525a 	.word	0x0800525a
 800373c:	20000000 	.word	0x20000000
 8003740:	20000008 	.word	0x20000008
 8003744:	00001388 	.word	0x00001388
 8003748:	fffff8ff 	.word	0xfffff8ff

0800374c <HAL_RCC_GetPCLK1Freq>:
 800374c:	4b04      	ldr	r3, [pc, #16]	; (8003760 <HAL_RCC_GetPCLK1Freq+0x14>)
 800374e:	4a05      	ldr	r2, [pc, #20]	; (8003764 <HAL_RCC_GetPCLK1Freq+0x18>)
 8003750:	68db      	ldr	r3, [r3, #12]
 8003752:	055b      	lsls	r3, r3, #21
 8003754:	0f5b      	lsrs	r3, r3, #29
 8003756:	5cd3      	ldrb	r3, [r2, r3]
 8003758:	4a03      	ldr	r2, [pc, #12]	; (8003768 <HAL_RCC_GetPCLK1Freq+0x1c>)
 800375a:	6810      	ldr	r0, [r2, #0]
 800375c:	40d8      	lsrs	r0, r3
 800375e:	4770      	bx	lr
 8003760:	40021000 	.word	0x40021000
 8003764:	0800526a 	.word	0x0800526a
 8003768:	20000000 	.word	0x20000000

0800376c <HAL_RCC_GetPCLK2Freq>:
 800376c:	4b04      	ldr	r3, [pc, #16]	; (8003780 <HAL_RCC_GetPCLK2Freq+0x14>)
 800376e:	4a05      	ldr	r2, [pc, #20]	; (8003784 <HAL_RCC_GetPCLK2Freq+0x18>)
 8003770:	68db      	ldr	r3, [r3, #12]
 8003772:	049b      	lsls	r3, r3, #18
 8003774:	0f5b      	lsrs	r3, r3, #29
 8003776:	5cd3      	ldrb	r3, [r2, r3]
 8003778:	4a03      	ldr	r2, [pc, #12]	; (8003788 <HAL_RCC_GetPCLK2Freq+0x1c>)
 800377a:	6810      	ldr	r0, [r2, #0]
 800377c:	40d8      	lsrs	r0, r3
 800377e:	4770      	bx	lr
 8003780:	40021000 	.word	0x40021000
 8003784:	0800526a 	.word	0x0800526a
 8003788:	20000000 	.word	0x20000000

0800378c <HAL_RCCEx_PeriphCLKConfig>:
 800378c:	2382      	movs	r3, #130	; 0x82
 800378e:	b5f7      	push	{r0, r1, r2, r4, r5, r6, r7, lr}
 8003790:	6802      	ldr	r2, [r0, #0]
 8003792:	011b      	lsls	r3, r3, #4
 8003794:	0005      	movs	r5, r0
 8003796:	421a      	tst	r2, r3
 8003798:	d047      	beq.n	800382a <HAL_RCCEx_PeriphCLKConfig+0x9e>
 800379a:	2380      	movs	r3, #128	; 0x80
 800379c:	2100      	movs	r1, #0
 800379e:	4c5f      	ldr	r4, [pc, #380]	; (800391c <HAL_RCCEx_PeriphCLKConfig+0x190>)
 80037a0:	055b      	lsls	r3, r3, #21
 80037a2:	6ba2      	ldr	r2, [r4, #56]	; 0x38
 80037a4:	9100      	str	r1, [sp, #0]
 80037a6:	421a      	tst	r2, r3
 80037a8:	d104      	bne.n	80037b4 <HAL_RCCEx_PeriphCLKConfig+0x28>
 80037aa:	6ba2      	ldr	r2, [r4, #56]	; 0x38
 80037ac:	4313      	orrs	r3, r2
 80037ae:	63a3      	str	r3, [r4, #56]	; 0x38
 80037b0:	2301      	movs	r3, #1
 80037b2:	9300      	str	r3, [sp, #0]
 80037b4:	2780      	movs	r7, #128	; 0x80
 80037b6:	4e5a      	ldr	r6, [pc, #360]	; (8003920 <HAL_RCCEx_PeriphCLKConfig+0x194>)
 80037b8:	007f      	lsls	r7, r7, #1
 80037ba:	6833      	ldr	r3, [r6, #0]
 80037bc:	423b      	tst	r3, r7
 80037be:	d06d      	beq.n	800389c <HAL_RCCEx_PeriphCLKConfig+0x110>
 80037c0:	6869      	ldr	r1, [r5, #4]
 80037c2:	23c0      	movs	r3, #192	; 0xc0
 80037c4:	0008      	movs	r0, r1
 80037c6:	6822      	ldr	r2, [r4, #0]
 80037c8:	039b      	lsls	r3, r3, #14
 80037ca:	4018      	ands	r0, r3
 80037cc:	401a      	ands	r2, r3
 80037ce:	4290      	cmp	r0, r2
 80037d0:	d103      	bne.n	80037da <HAL_RCCEx_PeriphCLKConfig+0x4e>
 80037d2:	68aa      	ldr	r2, [r5, #8]
 80037d4:	4013      	ands	r3, r2
 80037d6:	4298      	cmp	r0, r3
 80037d8:	d009      	beq.n	80037ee <HAL_RCCEx_PeriphCLKConfig+0x62>
 80037da:	23c0      	movs	r3, #192	; 0xc0
 80037dc:	000a      	movs	r2, r1
 80037de:	029b      	lsls	r3, r3, #10
 80037e0:	401a      	ands	r2, r3
 80037e2:	429a      	cmp	r2, r3
 80037e4:	d103      	bne.n	80037ee <HAL_RCCEx_PeriphCLKConfig+0x62>
 80037e6:	6823      	ldr	r3, [r4, #0]
 80037e8:	2001      	movs	r0, #1
 80037ea:	039b      	lsls	r3, r3, #14
 80037ec:	d466      	bmi.n	80038bc <HAL_RCCEx_PeriphCLKConfig+0x130>
 80037ee:	22c0      	movs	r2, #192	; 0xc0
 80037f0:	6d23      	ldr	r3, [r4, #80]	; 0x50
 80037f2:	0292      	lsls	r2, r2, #10
 80037f4:	4013      	ands	r3, r2
 80037f6:	d162      	bne.n	80038be <HAL_RCCEx_PeriphCLKConfig+0x132>
 80037f8:	6869      	ldr	r1, [r5, #4]
 80037fa:	23c0      	movs	r3, #192	; 0xc0
 80037fc:	000a      	movs	r2, r1
 80037fe:	029b      	lsls	r3, r3, #10
 8003800:	401a      	ands	r2, r3
 8003802:	429a      	cmp	r2, r3
 8003804:	d107      	bne.n	8003816 <HAL_RCCEx_PeriphCLKConfig+0x8a>
 8003806:	6823      	ldr	r3, [r4, #0]
 8003808:	4846      	ldr	r0, [pc, #280]	; (8003924 <HAL_RCCEx_PeriphCLKConfig+0x198>)
 800380a:	4003      	ands	r3, r0
 800380c:	20c0      	movs	r0, #192	; 0xc0
 800380e:	0380      	lsls	r0, r0, #14
 8003810:	4001      	ands	r1, r0
 8003812:	430b      	orrs	r3, r1
 8003814:	6023      	str	r3, [r4, #0]
 8003816:	6d23      	ldr	r3, [r4, #80]	; 0x50
 8003818:	431a      	orrs	r2, r3
 800381a:	9b00      	ldr	r3, [sp, #0]
 800381c:	6522      	str	r2, [r4, #80]	; 0x50
 800381e:	2b01      	cmp	r3, #1
 8003820:	d103      	bne.n	800382a <HAL_RCCEx_PeriphCLKConfig+0x9e>
 8003822:	6ba3      	ldr	r3, [r4, #56]	; 0x38
 8003824:	4a40      	ldr	r2, [pc, #256]	; (8003928 <HAL_RCCEx_PeriphCLKConfig+0x19c>)
 8003826:	4013      	ands	r3, r2
 8003828:	63a3      	str	r3, [r4, #56]	; 0x38
 800382a:	682b      	ldr	r3, [r5, #0]
 800382c:	07da      	lsls	r2, r3, #31
 800382e:	d506      	bpl.n	800383e <HAL_RCCEx_PeriphCLKConfig+0xb2>
 8003830:	2003      	movs	r0, #3
 8003832:	493a      	ldr	r1, [pc, #232]	; (800391c <HAL_RCCEx_PeriphCLKConfig+0x190>)
 8003834:	6cca      	ldr	r2, [r1, #76]	; 0x4c
 8003836:	4382      	bics	r2, r0
 8003838:	68e8      	ldr	r0, [r5, #12]
 800383a:	4302      	orrs	r2, r0
 800383c:	64ca      	str	r2, [r1, #76]	; 0x4c
 800383e:	079a      	lsls	r2, r3, #30
 8003840:	d506      	bpl.n	8003850 <HAL_RCCEx_PeriphCLKConfig+0xc4>
 8003842:	200c      	movs	r0, #12
 8003844:	4935      	ldr	r1, [pc, #212]	; (800391c <HAL_RCCEx_PeriphCLKConfig+0x190>)
 8003846:	6cca      	ldr	r2, [r1, #76]	; 0x4c
 8003848:	4382      	bics	r2, r0
 800384a:	6928      	ldr	r0, [r5, #16]
 800384c:	4302      	orrs	r2, r0
 800384e:	64ca      	str	r2, [r1, #76]	; 0x4c
 8003850:	075a      	lsls	r2, r3, #29
 8003852:	d506      	bpl.n	8003862 <HAL_RCCEx_PeriphCLKConfig+0xd6>
 8003854:	4931      	ldr	r1, [pc, #196]	; (800391c <HAL_RCCEx_PeriphCLKConfig+0x190>)
 8003856:	4835      	ldr	r0, [pc, #212]	; (800392c <HAL_RCCEx_PeriphCLKConfig+0x1a0>)
 8003858:	6cca      	ldr	r2, [r1, #76]	; 0x4c
 800385a:	4002      	ands	r2, r0
 800385c:	6968      	ldr	r0, [r5, #20]
 800385e:	4302      	orrs	r2, r0
 8003860:	64ca      	str	r2, [r1, #76]	; 0x4c
 8003862:	071a      	lsls	r2, r3, #28
 8003864:	d506      	bpl.n	8003874 <HAL_RCCEx_PeriphCLKConfig+0xe8>
 8003866:	492d      	ldr	r1, [pc, #180]	; (800391c <HAL_RCCEx_PeriphCLKConfig+0x190>)
 8003868:	4831      	ldr	r0, [pc, #196]	; (8003930 <HAL_RCCEx_PeriphCLKConfig+0x1a4>)
 800386a:	6cca      	ldr	r2, [r1, #76]	; 0x4c
 800386c:	4002      	ands	r2, r0
 800386e:	69a8      	ldr	r0, [r5, #24]
 8003870:	4302      	orrs	r2, r0
 8003872:	64ca      	str	r2, [r1, #76]	; 0x4c
 8003874:	065a      	lsls	r2, r3, #25
 8003876:	d506      	bpl.n	8003886 <HAL_RCCEx_PeriphCLKConfig+0xfa>
 8003878:	4928      	ldr	r1, [pc, #160]	; (800391c <HAL_RCCEx_PeriphCLKConfig+0x190>)
 800387a:	482e      	ldr	r0, [pc, #184]	; (8003934 <HAL_RCCEx_PeriphCLKConfig+0x1a8>)
 800387c:	6cca      	ldr	r2, [r1, #76]	; 0x4c
 800387e:	4002      	ands	r2, r0
 8003880:	6a28      	ldr	r0, [r5, #32]
 8003882:	4302      	orrs	r2, r0
 8003884:	64ca      	str	r2, [r1, #76]	; 0x4c
 8003886:	2000      	movs	r0, #0
 8003888:	061b      	lsls	r3, r3, #24
 800388a:	d517      	bpl.n	80038bc <HAL_RCCEx_PeriphCLKConfig+0x130>
 800388c:	4a23      	ldr	r2, [pc, #140]	; (800391c <HAL_RCCEx_PeriphCLKConfig+0x190>)
 800388e:	492a      	ldr	r1, [pc, #168]	; (8003938 <HAL_RCCEx_PeriphCLKConfig+0x1ac>)
 8003890:	6cd3      	ldr	r3, [r2, #76]	; 0x4c
 8003892:	400b      	ands	r3, r1
 8003894:	69e9      	ldr	r1, [r5, #28]
 8003896:	430b      	orrs	r3, r1
 8003898:	64d3      	str	r3, [r2, #76]	; 0x4c
 800389a:	e00f      	b.n	80038bc <HAL_RCCEx_PeriphCLKConfig+0x130>
 800389c:	6833      	ldr	r3, [r6, #0]
 800389e:	433b      	orrs	r3, r7
 80038a0:	6033      	str	r3, [r6, #0]
 80038a2:	f7fe ff4d 	bl	8002740 <HAL_GetTick>
 80038a6:	9001      	str	r0, [sp, #4]
 80038a8:	6833      	ldr	r3, [r6, #0]
 80038aa:	423b      	tst	r3, r7
 80038ac:	d188      	bne.n	80037c0 <HAL_RCCEx_PeriphCLKConfig+0x34>
 80038ae:	f7fe ff47 	bl	8002740 <HAL_GetTick>
 80038b2:	9b01      	ldr	r3, [sp, #4]
 80038b4:	1ac0      	subs	r0, r0, r3
 80038b6:	2864      	cmp	r0, #100	; 0x64
 80038b8:	d9f6      	bls.n	80038a8 <HAL_RCCEx_PeriphCLKConfig+0x11c>
 80038ba:	2003      	movs	r0, #3
 80038bc:	bdfe      	pop	{r1, r2, r3, r4, r5, r6, r7, pc}
 80038be:	4011      	ands	r1, r2
 80038c0:	428b      	cmp	r3, r1
 80038c2:	d002      	beq.n	80038ca <HAL_RCCEx_PeriphCLKConfig+0x13e>
 80038c4:	6829      	ldr	r1, [r5, #0]
 80038c6:	0689      	lsls	r1, r1, #26
 80038c8:	d408      	bmi.n	80038dc <HAL_RCCEx_PeriphCLKConfig+0x150>
 80038ca:	68a9      	ldr	r1, [r5, #8]
 80038cc:	400a      	ands	r2, r1
 80038ce:	429a      	cmp	r2, r3
 80038d0:	d100      	bne.n	80038d4 <HAL_RCCEx_PeriphCLKConfig+0x148>
 80038d2:	e791      	b.n	80037f8 <HAL_RCCEx_PeriphCLKConfig+0x6c>
 80038d4:	682b      	ldr	r3, [r5, #0]
 80038d6:	051b      	lsls	r3, r3, #20
 80038d8:	d400      	bmi.n	80038dc <HAL_RCCEx_PeriphCLKConfig+0x150>
 80038da:	e78d      	b.n	80037f8 <HAL_RCCEx_PeriphCLKConfig+0x6c>
 80038dc:	2280      	movs	r2, #128	; 0x80
 80038de:	6d21      	ldr	r1, [r4, #80]	; 0x50
 80038e0:	6d20      	ldr	r0, [r4, #80]	; 0x50
 80038e2:	0312      	lsls	r2, r2, #12
 80038e4:	4302      	orrs	r2, r0
 80038e6:	6522      	str	r2, [r4, #80]	; 0x50
 80038e8:	6d22      	ldr	r2, [r4, #80]	; 0x50
 80038ea:	4b14      	ldr	r3, [pc, #80]	; (800393c <HAL_RCCEx_PeriphCLKConfig+0x1b0>)
 80038ec:	4814      	ldr	r0, [pc, #80]	; (8003940 <HAL_RCCEx_PeriphCLKConfig+0x1b4>)
 80038ee:	400b      	ands	r3, r1
 80038f0:	4002      	ands	r2, r0
 80038f2:	6522      	str	r2, [r4, #80]	; 0x50
 80038f4:	6523      	str	r3, [r4, #80]	; 0x50
 80038f6:	05cb      	lsls	r3, r1, #23
 80038f8:	d400      	bmi.n	80038fc <HAL_RCCEx_PeriphCLKConfig+0x170>
 80038fa:	e77d      	b.n	80037f8 <HAL_RCCEx_PeriphCLKConfig+0x6c>
 80038fc:	f7fe ff20 	bl	8002740 <HAL_GetTick>
 8003900:	2780      	movs	r7, #128	; 0x80
 8003902:	0006      	movs	r6, r0
 8003904:	00bf      	lsls	r7, r7, #2
 8003906:	6d23      	ldr	r3, [r4, #80]	; 0x50
 8003908:	423b      	tst	r3, r7
 800390a:	d000      	beq.n	800390e <HAL_RCCEx_PeriphCLKConfig+0x182>
 800390c:	e774      	b.n	80037f8 <HAL_RCCEx_PeriphCLKConfig+0x6c>
 800390e:	f7fe ff17 	bl	8002740 <HAL_GetTick>
 8003912:	4b0c      	ldr	r3, [pc, #48]	; (8003944 <HAL_RCCEx_PeriphCLKConfig+0x1b8>)
 8003914:	1b80      	subs	r0, r0, r6
 8003916:	4298      	cmp	r0, r3
 8003918:	d9f5      	bls.n	8003906 <HAL_RCCEx_PeriphCLKConfig+0x17a>
 800391a:	e7ce      	b.n	80038ba <HAL_RCCEx_PeriphCLKConfig+0x12e>
 800391c:	40021000 	.word	0x40021000
 8003920:	40007000 	.word	0x40007000
 8003924:	ffcfffff 	.word	0xffcfffff
 8003928:	efffffff 	.word	0xefffffff
 800392c:	fffff3ff 	.word	0xfffff3ff
 8003930:	ffffcfff 	.word	0xffffcfff
 8003934:	fbffffff 	.word	0xfbffffff
 8003938:	fff3ffff 	.word	0xfff3ffff
 800393c:	fffcffff 	.word	0xfffcffff
 8003940:	fff7ffff 	.word	0xfff7ffff
 8003944:	00001388 	.word	0x00001388

08003948 <TIM_Base_SetConfig>:
 8003948:	2280      	movs	r2, #128	; 0x80
 800394a:	b510      	push	{r4, lr}
 800394c:	6803      	ldr	r3, [r0, #0]
 800394e:	05d2      	lsls	r2, r2, #23
 8003950:	4290      	cmp	r0, r2
 8003952:	d005      	beq.n	8003960 <TIM_Base_SetConfig+0x18>
 8003954:	4c10      	ldr	r4, [pc, #64]	; (8003998 <TIM_Base_SetConfig+0x50>)
 8003956:	42a0      	cmp	r0, r4
 8003958:	d002      	beq.n	8003960 <TIM_Base_SetConfig+0x18>
 800395a:	4c10      	ldr	r4, [pc, #64]	; (800399c <TIM_Base_SetConfig+0x54>)
 800395c:	42a0      	cmp	r0, r4
 800395e:	d10f      	bne.n	8003980 <TIM_Base_SetConfig+0x38>
 8003960:	2470      	movs	r4, #112	; 0x70
 8003962:	43a3      	bics	r3, r4
 8003964:	684c      	ldr	r4, [r1, #4]
 8003966:	4323      	orrs	r3, r4
 8003968:	4290      	cmp	r0, r2
 800396a:	d005      	beq.n	8003978 <TIM_Base_SetConfig+0x30>
 800396c:	4a0a      	ldr	r2, [pc, #40]	; (8003998 <TIM_Base_SetConfig+0x50>)
 800396e:	4290      	cmp	r0, r2
 8003970:	d002      	beq.n	8003978 <TIM_Base_SetConfig+0x30>
 8003972:	4a0a      	ldr	r2, [pc, #40]	; (800399c <TIM_Base_SetConfig+0x54>)
 8003974:	4290      	cmp	r0, r2
 8003976:	d103      	bne.n	8003980 <TIM_Base_SetConfig+0x38>
 8003978:	4a09      	ldr	r2, [pc, #36]	; (80039a0 <TIM_Base_SetConfig+0x58>)
 800397a:	4013      	ands	r3, r2
 800397c:	68ca      	ldr	r2, [r1, #12]
 800397e:	4313      	orrs	r3, r2
 8003980:	2280      	movs	r2, #128	; 0x80
 8003982:	4393      	bics	r3, r2
 8003984:	690a      	ldr	r2, [r1, #16]
 8003986:	4313      	orrs	r3, r2
 8003988:	6003      	str	r3, [r0, #0]
 800398a:	688b      	ldr	r3, [r1, #8]
 800398c:	62c3      	str	r3, [r0, #44]	; 0x2c
 800398e:	680b      	ldr	r3, [r1, #0]
 8003990:	6283      	str	r3, [r0, #40]	; 0x28
 8003992:	2301      	movs	r3, #1
 8003994:	6143      	str	r3, [r0, #20]
 8003996:	bd10      	pop	{r4, pc}
 8003998:	40010800 	.word	0x40010800
 800399c:	40011400 	.word	0x40011400
 80039a0:	fffffcff 	.word	0xfffffcff

080039a4 <HAL_TIM_Base_Init>:
 80039a4:	b570      	push	{r4, r5, r6, lr}
 80039a6:	0004      	movs	r4, r0
 80039a8:	2001      	movs	r0, #1
 80039aa:	2c00      	cmp	r4, #0
 80039ac:	d01d      	beq.n	80039ea <HAL_TIM_Base_Init+0x46>
 80039ae:	0025      	movs	r5, r4
 80039b0:	3539      	adds	r5, #57	; 0x39
 80039b2:	782b      	ldrb	r3, [r5, #0]
 80039b4:	b2db      	uxtb	r3, r3
 80039b6:	2b00      	cmp	r3, #0
 80039b8:	d105      	bne.n	80039c6 <HAL_TIM_Base_Init+0x22>
 80039ba:	0022      	movs	r2, r4
 80039bc:	3238      	adds	r2, #56	; 0x38
 80039be:	7013      	strb	r3, [r2, #0]
 80039c0:	0020      	movs	r0, r4
 80039c2:	f7fe fda3 	bl	800250c <HAL_TIM_Base_MspInit>
 80039c6:	2302      	movs	r3, #2
 80039c8:	6820      	ldr	r0, [r4, #0]
 80039ca:	702b      	strb	r3, [r5, #0]
 80039cc:	1d21      	adds	r1, r4, #4
 80039ce:	f7ff ffbb 	bl	8003948 <TIM_Base_SetConfig>
 80039d2:	0022      	movs	r2, r4
 80039d4:	2301      	movs	r3, #1
 80039d6:	2000      	movs	r0, #0
 80039d8:	323e      	adds	r2, #62	; 0x3e
 80039da:	7013      	strb	r3, [r2, #0]
 80039dc:	343d      	adds	r4, #61	; 0x3d
 80039de:	3a04      	subs	r2, #4
 80039e0:	7013      	strb	r3, [r2, #0]
 80039e2:	7053      	strb	r3, [r2, #1]
 80039e4:	7093      	strb	r3, [r2, #2]
 80039e6:	7023      	strb	r3, [r4, #0]
 80039e8:	702b      	strb	r3, [r5, #0]
 80039ea:	bd70      	pop	{r4, r5, r6, pc}

080039ec <HAL_TIM_PeriodElapsedCallback>:
 80039ec:	4770      	bx	lr

080039ee <HAL_TIM_OC_DelayElapsedCallback>:
 80039ee:	4770      	bx	lr

080039f0 <HAL_TIM_IC_CaptureCallback>:
 80039f0:	4770      	bx	lr

080039f2 <HAL_TIM_PWM_PulseFinishedCallback>:
 80039f2:	4770      	bx	lr

080039f4 <HAL_TIM_TriggerCallback>:
 80039f4:	4770      	bx	lr

080039f6 <HAL_TIM_IRQHandler>:
 80039f6:	2202      	movs	r2, #2
 80039f8:	6803      	ldr	r3, [r0, #0]
 80039fa:	b510      	push	{r4, lr}
 80039fc:	6919      	ldr	r1, [r3, #16]
 80039fe:	0004      	movs	r4, r0
 8003a00:	4211      	tst	r1, r2
 8003a02:	d00d      	beq.n	8003a20 <HAL_TIM_IRQHandler+0x2a>
 8003a04:	68d9      	ldr	r1, [r3, #12]
 8003a06:	4211      	tst	r1, r2
 8003a08:	d00a      	beq.n	8003a20 <HAL_TIM_IRQHandler+0x2a>
 8003a0a:	3a05      	subs	r2, #5
 8003a0c:	611a      	str	r2, [r3, #16]
 8003a0e:	699b      	ldr	r3, [r3, #24]
 8003a10:	3204      	adds	r2, #4
 8003a12:	7602      	strb	r2, [r0, #24]
 8003a14:	079b      	lsls	r3, r3, #30
 8003a16:	d05e      	beq.n	8003ad6 <HAL_TIM_IRQHandler+0xe0>
 8003a18:	f7ff ffea 	bl	80039f0 <HAL_TIM_IC_CaptureCallback>
 8003a1c:	2300      	movs	r3, #0
 8003a1e:	7623      	strb	r3, [r4, #24]
 8003a20:	2204      	movs	r2, #4
 8003a22:	6823      	ldr	r3, [r4, #0]
 8003a24:	6919      	ldr	r1, [r3, #16]
 8003a26:	4211      	tst	r1, r2
 8003a28:	d010      	beq.n	8003a4c <HAL_TIM_IRQHandler+0x56>
 8003a2a:	68d9      	ldr	r1, [r3, #12]
 8003a2c:	4211      	tst	r1, r2
 8003a2e:	d00d      	beq.n	8003a4c <HAL_TIM_IRQHandler+0x56>
 8003a30:	3a09      	subs	r2, #9
 8003a32:	611a      	str	r2, [r3, #16]
 8003a34:	3207      	adds	r2, #7
 8003a36:	7622      	strb	r2, [r4, #24]
 8003a38:	699a      	ldr	r2, [r3, #24]
 8003a3a:	23c0      	movs	r3, #192	; 0xc0
 8003a3c:	009b      	lsls	r3, r3, #2
 8003a3e:	0020      	movs	r0, r4
 8003a40:	421a      	tst	r2, r3
 8003a42:	d04e      	beq.n	8003ae2 <HAL_TIM_IRQHandler+0xec>
 8003a44:	f7ff ffd4 	bl	80039f0 <HAL_TIM_IC_CaptureCallback>
 8003a48:	2300      	movs	r3, #0
 8003a4a:	7623      	strb	r3, [r4, #24]
 8003a4c:	2208      	movs	r2, #8
 8003a4e:	6823      	ldr	r3, [r4, #0]
 8003a50:	6919      	ldr	r1, [r3, #16]
 8003a52:	4211      	tst	r1, r2
 8003a54:	d00e      	beq.n	8003a74 <HAL_TIM_IRQHandler+0x7e>
 8003a56:	68d9      	ldr	r1, [r3, #12]
 8003a58:	4211      	tst	r1, r2
 8003a5a:	d00b      	beq.n	8003a74 <HAL_TIM_IRQHandler+0x7e>
 8003a5c:	3a11      	subs	r2, #17
 8003a5e:	611a      	str	r2, [r3, #16]
 8003a60:	69db      	ldr	r3, [r3, #28]
 8003a62:	320d      	adds	r2, #13
 8003a64:	7622      	strb	r2, [r4, #24]
 8003a66:	0020      	movs	r0, r4
 8003a68:	079b      	lsls	r3, r3, #30
 8003a6a:	d040      	beq.n	8003aee <HAL_TIM_IRQHandler+0xf8>
 8003a6c:	f7ff ffc0 	bl	80039f0 <HAL_TIM_IC_CaptureCallback>
 8003a70:	2300      	movs	r3, #0
 8003a72:	7623      	strb	r3, [r4, #24]
 8003a74:	2210      	movs	r2, #16
 8003a76:	6823      	ldr	r3, [r4, #0]
 8003a78:	6919      	ldr	r1, [r3, #16]
 8003a7a:	4211      	tst	r1, r2
 8003a7c:	d010      	beq.n	8003aa0 <HAL_TIM_IRQHandler+0xaa>
 8003a7e:	68d9      	ldr	r1, [r3, #12]
 8003a80:	4211      	tst	r1, r2
 8003a82:	d00d      	beq.n	8003aa0 <HAL_TIM_IRQHandler+0xaa>
 8003a84:	3a21      	subs	r2, #33	; 0x21
 8003a86:	611a      	str	r2, [r3, #16]
 8003a88:	3219      	adds	r2, #25
 8003a8a:	7622      	strb	r2, [r4, #24]
 8003a8c:	69da      	ldr	r2, [r3, #28]
 8003a8e:	23c0      	movs	r3, #192	; 0xc0
 8003a90:	009b      	lsls	r3, r3, #2
 8003a92:	0020      	movs	r0, r4
 8003a94:	421a      	tst	r2, r3
 8003a96:	d030      	beq.n	8003afa <HAL_TIM_IRQHandler+0x104>
 8003a98:	f7ff ffaa 	bl	80039f0 <HAL_TIM_IC_CaptureCallback>
 8003a9c:	2300      	movs	r3, #0
 8003a9e:	7623      	strb	r3, [r4, #24]
 8003aa0:	2201      	movs	r2, #1
 8003aa2:	6823      	ldr	r3, [r4, #0]
 8003aa4:	6919      	ldr	r1, [r3, #16]
 8003aa6:	4211      	tst	r1, r2
 8003aa8:	d007      	beq.n	8003aba <HAL_TIM_IRQHandler+0xc4>
 8003aaa:	68d9      	ldr	r1, [r3, #12]
 8003aac:	4211      	tst	r1, r2
 8003aae:	d004      	beq.n	8003aba <HAL_TIM_IRQHandler+0xc4>
 8003ab0:	3a03      	subs	r2, #3
 8003ab2:	611a      	str	r2, [r3, #16]
 8003ab4:	0020      	movs	r0, r4
 8003ab6:	f7ff ff99 	bl	80039ec <HAL_TIM_PeriodElapsedCallback>
 8003aba:	2240      	movs	r2, #64	; 0x40
 8003abc:	6823      	ldr	r3, [r4, #0]
 8003abe:	6919      	ldr	r1, [r3, #16]
 8003ac0:	4211      	tst	r1, r2
 8003ac2:	d007      	beq.n	8003ad4 <HAL_TIM_IRQHandler+0xde>
 8003ac4:	68d9      	ldr	r1, [r3, #12]
 8003ac6:	4211      	tst	r1, r2
 8003ac8:	d004      	beq.n	8003ad4 <HAL_TIM_IRQHandler+0xde>
 8003aca:	3a81      	subs	r2, #129	; 0x81
 8003acc:	611a      	str	r2, [r3, #16]
 8003ace:	0020      	movs	r0, r4
 8003ad0:	f7ff ff90 	bl	80039f4 <HAL_TIM_TriggerCallback>
 8003ad4:	bd10      	pop	{r4, pc}
 8003ad6:	f7ff ff8a 	bl	80039ee <HAL_TIM_OC_DelayElapsedCallback>
 8003ada:	0020      	movs	r0, r4
 8003adc:	f7ff ff89 	bl	80039f2 <HAL_TIM_PWM_PulseFinishedCallback>
 8003ae0:	e79c      	b.n	8003a1c <HAL_TIM_IRQHandler+0x26>
 8003ae2:	f7ff ff84 	bl	80039ee <HAL_TIM_OC_DelayElapsedCallback>
 8003ae6:	0020      	movs	r0, r4
 8003ae8:	f7ff ff83 	bl	80039f2 <HAL_TIM_PWM_PulseFinishedCallback>
 8003aec:	e7ac      	b.n	8003a48 <HAL_TIM_IRQHandler+0x52>
 8003aee:	f7ff ff7e 	bl	80039ee <HAL_TIM_OC_DelayElapsedCallback>
 8003af2:	0020      	movs	r0, r4
 8003af4:	f7ff ff7d 	bl	80039f2 <HAL_TIM_PWM_PulseFinishedCallback>
 8003af8:	e7ba      	b.n	8003a70 <HAL_TIM_IRQHandler+0x7a>
 8003afa:	f7ff ff78 	bl	80039ee <HAL_TIM_OC_DelayElapsedCallback>
 8003afe:	0020      	movs	r0, r4
 8003b00:	f7ff ff77 	bl	80039f2 <HAL_TIM_PWM_PulseFinishedCallback>
 8003b04:	e7ca      	b.n	8003a9c <HAL_TIM_IRQHandler+0xa6>
	...

08003b08 <HAL_TIMEx_MasterConfigSynchronization>:
 8003b08:	b570      	push	{r4, r5, r6, lr}
 8003b0a:	0004      	movs	r4, r0
 8003b0c:	2202      	movs	r2, #2
 8003b0e:	3438      	adds	r4, #56	; 0x38
 8003b10:	7825      	ldrb	r5, [r4, #0]
 8003b12:	0003      	movs	r3, r0
 8003b14:	0010      	movs	r0, r2
 8003b16:	2d01      	cmp	r5, #1
 8003b18:	d01f      	beq.n	8003b5a <HAL_TIMEx_MasterConfigSynchronization+0x52>
 8003b1a:	001d      	movs	r5, r3
 8003b1c:	2670      	movs	r6, #112	; 0x70
 8003b1e:	681b      	ldr	r3, [r3, #0]
 8003b20:	3801      	subs	r0, #1
 8003b22:	3539      	adds	r5, #57	; 0x39
 8003b24:	7020      	strb	r0, [r4, #0]
 8003b26:	702a      	strb	r2, [r5, #0]
 8003b28:	6858      	ldr	r0, [r3, #4]
 8003b2a:	689a      	ldr	r2, [r3, #8]
 8003b2c:	43b0      	bics	r0, r6
 8003b2e:	680e      	ldr	r6, [r1, #0]
 8003b30:	4330      	orrs	r0, r6
 8003b32:	6058      	str	r0, [r3, #4]
 8003b34:	2080      	movs	r0, #128	; 0x80
 8003b36:	05c0      	lsls	r0, r0, #23
 8003b38:	4283      	cmp	r3, r0
 8003b3a:	d005      	beq.n	8003b48 <HAL_TIMEx_MasterConfigSynchronization+0x40>
 8003b3c:	4807      	ldr	r0, [pc, #28]	; (8003b5c <HAL_TIMEx_MasterConfigSynchronization+0x54>)
 8003b3e:	4283      	cmp	r3, r0
 8003b40:	d002      	beq.n	8003b48 <HAL_TIMEx_MasterConfigSynchronization+0x40>
 8003b42:	4807      	ldr	r0, [pc, #28]	; (8003b60 <HAL_TIMEx_MasterConfigSynchronization+0x58>)
 8003b44:	4283      	cmp	r3, r0
 8003b46:	d104      	bne.n	8003b52 <HAL_TIMEx_MasterConfigSynchronization+0x4a>
 8003b48:	2080      	movs	r0, #128	; 0x80
 8003b4a:	6849      	ldr	r1, [r1, #4]
 8003b4c:	4382      	bics	r2, r0
 8003b4e:	430a      	orrs	r2, r1
 8003b50:	609a      	str	r2, [r3, #8]
 8003b52:	2301      	movs	r3, #1
 8003b54:	2000      	movs	r0, #0
 8003b56:	702b      	strb	r3, [r5, #0]
 8003b58:	7020      	strb	r0, [r4, #0]
 8003b5a:	bd70      	pop	{r4, r5, r6, pc}
 8003b5c:	40010800 	.word	0x40010800
 8003b60:	40011400 	.word	0x40011400

08003b64 <UART_SetConfig>:
 8003b64:	b5f8      	push	{r3, r4, r5, r6, r7, lr}
 8003b66:	0004      	movs	r4, r0
 8003b68:	6925      	ldr	r5, [r4, #16]
 8003b6a:	68a2      	ldr	r2, [r4, #8]
 8003b6c:	6803      	ldr	r3, [r0, #0]
 8003b6e:	432a      	orrs	r2, r5
 8003b70:	6965      	ldr	r5, [r4, #20]
 8003b72:	69c1      	ldr	r1, [r0, #28]
 8003b74:	432a      	orrs	r2, r5
 8003b76:	6818      	ldr	r0, [r3, #0]
 8003b78:	4d6d      	ldr	r5, [pc, #436]	; (8003d30 <UART_SetConfig+0x1cc>)
 8003b7a:	430a      	orrs	r2, r1
 8003b7c:	4028      	ands	r0, r5
 8003b7e:	4302      	orrs	r2, r0
 8003b80:	601a      	str	r2, [r3, #0]
 8003b82:	685a      	ldr	r2, [r3, #4]
 8003b84:	486b      	ldr	r0, [pc, #428]	; (8003d34 <UART_SetConfig+0x1d0>)
 8003b86:	4d6c      	ldr	r5, [pc, #432]	; (8003d38 <UART_SetConfig+0x1d4>)
 8003b88:	4002      	ands	r2, r0
 8003b8a:	68e0      	ldr	r0, [r4, #12]
 8003b8c:	4302      	orrs	r2, r0
 8003b8e:	605a      	str	r2, [r3, #4]
 8003b90:	69a0      	ldr	r0, [r4, #24]
 8003b92:	42ab      	cmp	r3, r5
 8003b94:	d001      	beq.n	8003b9a <UART_SetConfig+0x36>
 8003b96:	6a22      	ldr	r2, [r4, #32]
 8003b98:	4310      	orrs	r0, r2
 8003b9a:	689a      	ldr	r2, [r3, #8]
 8003b9c:	4e67      	ldr	r6, [pc, #412]	; (8003d3c <UART_SetConfig+0x1d8>)
 8003b9e:	4032      	ands	r2, r6
 8003ba0:	4302      	orrs	r2, r0
 8003ba2:	609a      	str	r2, [r3, #8]
 8003ba4:	4a66      	ldr	r2, [pc, #408]	; (8003d40 <UART_SetConfig+0x1dc>)
 8003ba6:	4293      	cmp	r3, r2
 8003ba8:	d113      	bne.n	8003bd2 <UART_SetConfig+0x6e>
 8003baa:	2203      	movs	r2, #3
 8003bac:	4b65      	ldr	r3, [pc, #404]	; (8003d44 <UART_SetConfig+0x1e0>)
 8003bae:	6cdb      	ldr	r3, [r3, #76]	; 0x4c
 8003bb0:	4013      	ands	r3, r2
 8003bb2:	4a65      	ldr	r2, [pc, #404]	; (8003d48 <UART_SetConfig+0x1e4>)
 8003bb4:	5cd0      	ldrb	r0, [r2, r3]
 8003bb6:	2380      	movs	r3, #128	; 0x80
 8003bb8:	021b      	lsls	r3, r3, #8
 8003bba:	4299      	cmp	r1, r3
 8003bbc:	d000      	beq.n	8003bc0 <UART_SetConfig+0x5c>
 8003bbe:	e086      	b.n	8003cce <UART_SetConfig+0x16a>
 8003bc0:	2808      	cmp	r0, #8
 8003bc2:	d81e      	bhi.n	8003c02 <UART_SetConfig+0x9e>
 8003bc4:	f7fc faaa 	bl	800011c <__gnu_thumb1_case_uqi>
 8003bc8:	1d5f5c57 	.word	0x1d5f5c57
 8003bcc:	1d1d1d7d 	.word	0x1d1d1d7d
 8003bd0:	80          	.byte	0x80
 8003bd1:	00          	.byte	0x00
 8003bd2:	4a5e      	ldr	r2, [pc, #376]	; (8003d4c <UART_SetConfig+0x1e8>)
 8003bd4:	4293      	cmp	r3, r2
 8003bd6:	d105      	bne.n	8003be4 <UART_SetConfig+0x80>
 8003bd8:	220c      	movs	r2, #12
 8003bda:	4b5a      	ldr	r3, [pc, #360]	; (8003d44 <UART_SetConfig+0x1e0>)
 8003bdc:	6cdb      	ldr	r3, [r3, #76]	; 0x4c
 8003bde:	4013      	ands	r3, r2
 8003be0:	4a5b      	ldr	r2, [pc, #364]	; (8003d50 <UART_SetConfig+0x1ec>)
 8003be2:	e7e7      	b.n	8003bb4 <UART_SetConfig+0x50>
 8003be4:	42ab      	cmp	r3, r5
 8003be6:	d000      	beq.n	8003bea <UART_SetConfig+0x86>
 8003be8:	e09b      	b.n	8003d22 <UART_SetConfig+0x1be>
 8003bea:	21c0      	movs	r1, #192	; 0xc0
 8003bec:	2080      	movs	r0, #128	; 0x80
 8003bee:	4a55      	ldr	r2, [pc, #340]	; (8003d44 <UART_SetConfig+0x1e0>)
 8003bf0:	0109      	lsls	r1, r1, #4
 8003bf2:	6cd3      	ldr	r3, [r2, #76]	; 0x4c
 8003bf4:	00c0      	lsls	r0, r0, #3
 8003bf6:	400b      	ands	r3, r1
 8003bf8:	4283      	cmp	r3, r0
 8003bfa:	d039      	beq.n	8003c70 <UART_SetConfig+0x10c>
 8003bfc:	d803      	bhi.n	8003c06 <UART_SetConfig+0xa2>
 8003bfe:	2b00      	cmp	r3, #0
 8003c00:	d00a      	beq.n	8003c18 <UART_SetConfig+0xb4>
 8003c02:	2001      	movs	r0, #1
 8003c04:	e00d      	b.n	8003c22 <UART_SetConfig+0xbe>
 8003c06:	2080      	movs	r0, #128	; 0x80
 8003c08:	0100      	lsls	r0, r0, #4
 8003c0a:	4283      	cmp	r3, r0
 8003c0c:	d00d      	beq.n	8003c2a <UART_SetConfig+0xc6>
 8003c0e:	428b      	cmp	r3, r1
 8003c10:	d1f7      	bne.n	8003c02 <UART_SetConfig+0x9e>
 8003c12:	2080      	movs	r0, #128	; 0x80
 8003c14:	0200      	lsls	r0, r0, #8
 8003c16:	e00f      	b.n	8003c38 <UART_SetConfig+0xd4>
 8003c18:	f7ff fd98 	bl	800374c <HAL_RCC_GetPCLK1Freq>
 8003c1c:	2800      	cmp	r0, #0
 8003c1e:	d10b      	bne.n	8003c38 <UART_SetConfig+0xd4>
 8003c20:	2000      	movs	r0, #0
 8003c22:	2300      	movs	r3, #0
 8003c24:	6663      	str	r3, [r4, #100]	; 0x64
 8003c26:	66a3      	str	r3, [r4, #104]	; 0x68
 8003c28:	bdf8      	pop	{r3, r4, r5, r6, r7, pc}
 8003c2a:	6810      	ldr	r0, [r2, #0]
 8003c2c:	4b49      	ldr	r3, [pc, #292]	; (8003d54 <UART_SetConfig+0x1f0>)
 8003c2e:	06c0      	lsls	r0, r0, #27
 8003c30:	17c0      	asrs	r0, r0, #31
 8003c32:	4018      	ands	r0, r3
 8003c34:	4b48      	ldr	r3, [pc, #288]	; (8003d58 <UART_SetConfig+0x1f4>)
 8003c36:	18c0      	adds	r0, r0, r3
 8003c38:	2203      	movs	r2, #3
 8003c3a:	6863      	ldr	r3, [r4, #4]
 8003c3c:	435a      	muls	r2, r3
 8003c3e:	4282      	cmp	r2, r0
 8003c40:	d8df      	bhi.n	8003c02 <UART_SetConfig+0x9e>
 8003c42:	031a      	lsls	r2, r3, #12
 8003c44:	4282      	cmp	r2, r0
 8003c46:	d3dc      	bcc.n	8003c02 <UART_SetConfig+0x9e>
 8003c48:	2700      	movs	r7, #0
 8003c4a:	0e02      	lsrs	r2, r0, #24
 8003c4c:	0201      	lsls	r1, r0, #8
 8003c4e:	085e      	lsrs	r6, r3, #1
 8003c50:	1989      	adds	r1, r1, r6
 8003c52:	417a      	adcs	r2, r7
 8003c54:	0008      	movs	r0, r1
 8003c56:	0011      	movs	r1, r2
 8003c58:	001a      	movs	r2, r3
 8003c5a:	003b      	movs	r3, r7
 8003c5c:	f7fc faf4 	bl	8000248 <__aeabi_uldivmod>
 8003c60:	4b3e      	ldr	r3, [pc, #248]	; (8003d5c <UART_SetConfig+0x1f8>)
 8003c62:	18c2      	adds	r2, r0, r3
 8003c64:	4b3e      	ldr	r3, [pc, #248]	; (8003d60 <UART_SetConfig+0x1fc>)
 8003c66:	429a      	cmp	r2, r3
 8003c68:	d8cb      	bhi.n	8003c02 <UART_SetConfig+0x9e>
 8003c6a:	6823      	ldr	r3, [r4, #0]
 8003c6c:	60d8      	str	r0, [r3, #12]
 8003c6e:	e7d7      	b.n	8003c20 <UART_SetConfig+0xbc>
 8003c70:	f7ff f9cc 	bl	800300c <HAL_RCC_GetSysClockFreq>
 8003c74:	e7d2      	b.n	8003c1c <UART_SetConfig+0xb8>
 8003c76:	f7ff fd69 	bl	800374c <HAL_RCC_GetPCLK1Freq>
 8003c7a:	2800      	cmp	r0, #0
 8003c7c:	d10b      	bne.n	8003c96 <UART_SetConfig+0x132>
 8003c7e:	e7cf      	b.n	8003c20 <UART_SetConfig+0xbc>
 8003c80:	f7ff fd74 	bl	800376c <HAL_RCC_GetPCLK2Freq>
 8003c84:	e7f9      	b.n	8003c7a <UART_SetConfig+0x116>
 8003c86:	4b2f      	ldr	r3, [pc, #188]	; (8003d44 <UART_SetConfig+0x1e0>)
 8003c88:	6818      	ldr	r0, [r3, #0]
 8003c8a:	4b32      	ldr	r3, [pc, #200]	; (8003d54 <UART_SetConfig+0x1f0>)
 8003c8c:	06c0      	lsls	r0, r0, #27
 8003c8e:	17c0      	asrs	r0, r0, #31
 8003c90:	4018      	ands	r0, r3
 8003c92:	4b31      	ldr	r3, [pc, #196]	; (8003d58 <UART_SetConfig+0x1f4>)
 8003c94:	18c0      	adds	r0, r0, r3
 8003c96:	6863      	ldr	r3, [r4, #4]
 8003c98:	0040      	lsls	r0, r0, #1
 8003c9a:	085b      	lsrs	r3, r3, #1
 8003c9c:	18c0      	adds	r0, r0, r3
 8003c9e:	6861      	ldr	r1, [r4, #4]
 8003ca0:	f7fc fa46 	bl	8000130 <__udivsi3>
 8003ca4:	0403      	lsls	r3, r0, #16
 8003ca6:	0c1a      	lsrs	r2, r3, #16
 8003ca8:	492e      	ldr	r1, [pc, #184]	; (8003d64 <UART_SetConfig+0x200>)
 8003caa:	3a10      	subs	r2, #16
 8003cac:	428a      	cmp	r2, r1
 8003cae:	d8a8      	bhi.n	8003c02 <UART_SetConfig+0x9e>
 8003cb0:	220f      	movs	r2, #15
 8003cb2:	031b      	lsls	r3, r3, #12
 8003cb4:	4390      	bics	r0, r2
 8003cb6:	b280      	uxth	r0, r0
 8003cb8:	6822      	ldr	r2, [r4, #0]
 8003cba:	0f5b      	lsrs	r3, r3, #29
 8003cbc:	4318      	orrs	r0, r3
 8003cbe:	60d0      	str	r0, [r2, #12]
 8003cc0:	e7ae      	b.n	8003c20 <UART_SetConfig+0xbc>
 8003cc2:	f7ff f9a3 	bl	800300c <HAL_RCC_GetSysClockFreq>
 8003cc6:	e7d8      	b.n	8003c7a <UART_SetConfig+0x116>
 8003cc8:	2080      	movs	r0, #128	; 0x80
 8003cca:	0200      	lsls	r0, r0, #8
 8003ccc:	e7e3      	b.n	8003c96 <UART_SetConfig+0x132>
 8003cce:	2808      	cmp	r0, #8
 8003cd0:	d897      	bhi.n	8003c02 <UART_SetConfig+0x9e>
 8003cd2:	f7fc fa19 	bl	8000108 <__gnu_thumb1_case_sqi>
 8003cd6:	0a05      	.short	0x0a05
 8003cd8:	9620960d 	.word	0x9620960d
 8003cdc:	9696      	.short	0x9696
 8003cde:	23          	.byte	0x23
 8003cdf:	00          	.byte	0x00
 8003ce0:	f7ff fd34 	bl	800374c <HAL_RCC_GetPCLK1Freq>
 8003ce4:	2800      	cmp	r0, #0
 8003ce6:	d10b      	bne.n	8003d00 <UART_SetConfig+0x19c>
 8003ce8:	e79a      	b.n	8003c20 <UART_SetConfig+0xbc>
 8003cea:	f7ff fd3f 	bl	800376c <HAL_RCC_GetPCLK2Freq>
 8003cee:	e7f9      	b.n	8003ce4 <UART_SetConfig+0x180>
 8003cf0:	4b14      	ldr	r3, [pc, #80]	; (8003d44 <UART_SetConfig+0x1e0>)
 8003cf2:	6818      	ldr	r0, [r3, #0]
 8003cf4:	4b17      	ldr	r3, [pc, #92]	; (8003d54 <UART_SetConfig+0x1f0>)
 8003cf6:	06c0      	lsls	r0, r0, #27
 8003cf8:	17c0      	asrs	r0, r0, #31
 8003cfa:	4018      	ands	r0, r3
 8003cfc:	4b16      	ldr	r3, [pc, #88]	; (8003d58 <UART_SetConfig+0x1f4>)
 8003cfe:	18c0      	adds	r0, r0, r3
 8003d00:	6863      	ldr	r3, [r4, #4]
 8003d02:	6861      	ldr	r1, [r4, #4]
 8003d04:	085b      	lsrs	r3, r3, #1
 8003d06:	1818      	adds	r0, r3, r0
 8003d08:	f7fc fa12 	bl	8000130 <__udivsi3>
 8003d0c:	b280      	uxth	r0, r0
 8003d0e:	0002      	movs	r2, r0
 8003d10:	4b14      	ldr	r3, [pc, #80]	; (8003d64 <UART_SetConfig+0x200>)
 8003d12:	3a10      	subs	r2, #16
 8003d14:	e7a7      	b.n	8003c66 <UART_SetConfig+0x102>
 8003d16:	f7ff f979 	bl	800300c <HAL_RCC_GetSysClockFreq>
 8003d1a:	e7e3      	b.n	8003ce4 <UART_SetConfig+0x180>
 8003d1c:	2080      	movs	r0, #128	; 0x80
 8003d1e:	0200      	lsls	r0, r0, #8
 8003d20:	e7ee      	b.n	8003d00 <UART_SetConfig+0x19c>
 8003d22:	2380      	movs	r3, #128	; 0x80
 8003d24:	2001      	movs	r0, #1
 8003d26:	021b      	lsls	r3, r3, #8
 8003d28:	4299      	cmp	r1, r3
 8003d2a:	d100      	bne.n	8003d2e <UART_SetConfig+0x1ca>
 8003d2c:	e779      	b.n	8003c22 <UART_SetConfig+0xbe>
 8003d2e:	e768      	b.n	8003c02 <UART_SetConfig+0x9e>
 8003d30:	efff69f3 	.word	0xefff69f3
 8003d34:	ffffcfff 	.word	0xffffcfff
 8003d38:	40004800 	.word	0x40004800
 8003d3c:	fffff4ff 	.word	0xfffff4ff
 8003d40:	40013800 	.word	0x40013800
 8003d44:	40021000 	.word	0x40021000
 8003d48:	0800527b 	.word	0x0800527b
 8003d4c:	40004400 	.word	0x40004400
 8003d50:	0800527f 	.word	0x0800527f
 8003d54:	ff48e500 	.word	0xff48e500
 8003d58:	00f42400 	.word	0x00f42400
 8003d5c:	fffffd00 	.word	0xfffffd00
 8003d60:	000ffcff 	.word	0x000ffcff
 8003d64:	0000ffef 	.word	0x0000ffef

08003d68 <UART_AdvFeatureConfig>:
 8003d68:	6a43      	ldr	r3, [r0, #36]	; 0x24
 8003d6a:	b530      	push	{r4, r5, lr}
 8003d6c:	07da      	lsls	r2, r3, #31
 8003d6e:	d506      	bpl.n	8003d7e <UART_AdvFeatureConfig+0x16>
 8003d70:	6801      	ldr	r1, [r0, #0]
 8003d72:	4c28      	ldr	r4, [pc, #160]	; (8003e14 <UART_AdvFeatureConfig+0xac>)
 8003d74:	684a      	ldr	r2, [r1, #4]
 8003d76:	4022      	ands	r2, r4
 8003d78:	6a84      	ldr	r4, [r0, #40]	; 0x28
 8003d7a:	4322      	orrs	r2, r4
 8003d7c:	604a      	str	r2, [r1, #4]
 8003d7e:	079a      	lsls	r2, r3, #30
 8003d80:	d506      	bpl.n	8003d90 <UART_AdvFeatureConfig+0x28>
 8003d82:	6801      	ldr	r1, [r0, #0]
 8003d84:	4c24      	ldr	r4, [pc, #144]	; (8003e18 <UART_AdvFeatureConfig+0xb0>)
 8003d86:	684a      	ldr	r2, [r1, #4]
 8003d88:	4022      	ands	r2, r4
 8003d8a:	6ac4      	ldr	r4, [r0, #44]	; 0x2c
 8003d8c:	4322      	orrs	r2, r4
 8003d8e:	604a      	str	r2, [r1, #4]
 8003d90:	075a      	lsls	r2, r3, #29
 8003d92:	d506      	bpl.n	8003da2 <UART_AdvFeatureConfig+0x3a>
 8003d94:	6801      	ldr	r1, [r0, #0]
 8003d96:	4c21      	ldr	r4, [pc, #132]	; (8003e1c <UART_AdvFeatureConfig+0xb4>)
 8003d98:	684a      	ldr	r2, [r1, #4]
 8003d9a:	4022      	ands	r2, r4
 8003d9c:	6b04      	ldr	r4, [r0, #48]	; 0x30
 8003d9e:	4322      	orrs	r2, r4
 8003da0:	604a      	str	r2, [r1, #4]
 8003da2:	071a      	lsls	r2, r3, #28
 8003da4:	d506      	bpl.n	8003db4 <UART_AdvFeatureConfig+0x4c>
 8003da6:	6801      	ldr	r1, [r0, #0]
 8003da8:	4c1d      	ldr	r4, [pc, #116]	; (8003e20 <UART_AdvFeatureConfig+0xb8>)
 8003daa:	684a      	ldr	r2, [r1, #4]
 8003dac:	4022      	ands	r2, r4
 8003dae:	6b44      	ldr	r4, [r0, #52]	; 0x34
 8003db0:	4322      	orrs	r2, r4
 8003db2:	604a      	str	r2, [r1, #4]
 8003db4:	06da      	lsls	r2, r3, #27
 8003db6:	d506      	bpl.n	8003dc6 <UART_AdvFeatureConfig+0x5e>
 8003db8:	6801      	ldr	r1, [r0, #0]
 8003dba:	4c1a      	ldr	r4, [pc, #104]	; (8003e24 <UART_AdvFeatureConfig+0xbc>)
 8003dbc:	688a      	ldr	r2, [r1, #8]
 8003dbe:	4022      	ands	r2, r4
 8003dc0:	6b84      	ldr	r4, [r0, #56]	; 0x38
 8003dc2:	4322      	orrs	r2, r4
 8003dc4:	608a      	str	r2, [r1, #8]
 8003dc6:	069a      	lsls	r2, r3, #26
 8003dc8:	d506      	bpl.n	8003dd8 <UART_AdvFeatureConfig+0x70>
 8003dca:	6801      	ldr	r1, [r0, #0]
 8003dcc:	4c16      	ldr	r4, [pc, #88]	; (8003e28 <UART_AdvFeatureConfig+0xc0>)
 8003dce:	688a      	ldr	r2, [r1, #8]
 8003dd0:	4022      	ands	r2, r4
 8003dd2:	6bc4      	ldr	r4, [r0, #60]	; 0x3c
 8003dd4:	4322      	orrs	r2, r4
 8003dd6:	608a      	str	r2, [r1, #8]
 8003dd8:	065a      	lsls	r2, r3, #25
 8003dda:	d510      	bpl.n	8003dfe <UART_AdvFeatureConfig+0x96>
 8003ddc:	6801      	ldr	r1, [r0, #0]
 8003dde:	4d13      	ldr	r5, [pc, #76]	; (8003e2c <UART_AdvFeatureConfig+0xc4>)
 8003de0:	684a      	ldr	r2, [r1, #4]
 8003de2:	6c04      	ldr	r4, [r0, #64]	; 0x40
 8003de4:	402a      	ands	r2, r5
 8003de6:	4322      	orrs	r2, r4
 8003de8:	604a      	str	r2, [r1, #4]
 8003dea:	2280      	movs	r2, #128	; 0x80
 8003dec:	0352      	lsls	r2, r2, #13
 8003dee:	4294      	cmp	r4, r2
 8003df0:	d105      	bne.n	8003dfe <UART_AdvFeatureConfig+0x96>
 8003df2:	684a      	ldr	r2, [r1, #4]
 8003df4:	4c0e      	ldr	r4, [pc, #56]	; (8003e30 <UART_AdvFeatureConfig+0xc8>)
 8003df6:	4022      	ands	r2, r4
 8003df8:	6c44      	ldr	r4, [r0, #68]	; 0x44
 8003dfa:	4322      	orrs	r2, r4
 8003dfc:	604a      	str	r2, [r1, #4]
 8003dfe:	061b      	lsls	r3, r3, #24
 8003e00:	d506      	bpl.n	8003e10 <UART_AdvFeatureConfig+0xa8>
 8003e02:	6802      	ldr	r2, [r0, #0]
 8003e04:	490b      	ldr	r1, [pc, #44]	; (8003e34 <UART_AdvFeatureConfig+0xcc>)
 8003e06:	6853      	ldr	r3, [r2, #4]
 8003e08:	400b      	ands	r3, r1
 8003e0a:	6c81      	ldr	r1, [r0, #72]	; 0x48
 8003e0c:	430b      	orrs	r3, r1
 8003e0e:	6053      	str	r3, [r2, #4]
 8003e10:	bd30      	pop	{r4, r5, pc}
 8003e12:	46c0      	nop			; (mov r8, r8)
 8003e14:	fffdffff 	.word	0xfffdffff
 8003e18:	fffeffff 	.word	0xfffeffff
 8003e1c:	fffbffff 	.word	0xfffbffff
 8003e20:	ffff7fff 	.word	0xffff7fff
 8003e24:	ffffefff 	.word	0xffffefff
 8003e28:	ffffdfff 	.word	0xffffdfff
 8003e2c:	ffefffff 	.word	0xffefffff
 8003e30:	ff9fffff 	.word	0xff9fffff
 8003e34:	fff7ffff 	.word	0xfff7ffff

08003e38 <UART_WaitOnFlagUntilTimeout>:
 8003e38:	b5f7      	push	{r0, r1, r2, r4, r5, r6, r7, lr}
 8003e3a:	2780      	movs	r7, #128	; 0x80
 8003e3c:	0004      	movs	r4, r0
 8003e3e:	000e      	movs	r6, r1
 8003e40:	0015      	movs	r5, r2
 8003e42:	9301      	str	r3, [sp, #4]
 8003e44:	013f      	lsls	r7, r7, #4
 8003e46:	6822      	ldr	r2, [r4, #0]
 8003e48:	69d3      	ldr	r3, [r2, #28]
 8003e4a:	4033      	ands	r3, r6
 8003e4c:	1b9b      	subs	r3, r3, r6
 8003e4e:	4259      	negs	r1, r3
 8003e50:	414b      	adcs	r3, r1
 8003e52:	42ab      	cmp	r3, r5
 8003e54:	d001      	beq.n	8003e5a <UART_WaitOnFlagUntilTimeout+0x22>
 8003e56:	2000      	movs	r0, #0
 8003e58:	e01c      	b.n	8003e94 <UART_WaitOnFlagUntilTimeout+0x5c>
 8003e5a:	9b08      	ldr	r3, [sp, #32]
 8003e5c:	3301      	adds	r3, #1
 8003e5e:	d0f3      	beq.n	8003e48 <UART_WaitOnFlagUntilTimeout+0x10>
 8003e60:	f7fe fc6e 	bl	8002740 <HAL_GetTick>
 8003e64:	9b01      	ldr	r3, [sp, #4]
 8003e66:	9a08      	ldr	r2, [sp, #32]
 8003e68:	1ac0      	subs	r0, r0, r3
 8003e6a:	6823      	ldr	r3, [r4, #0]
 8003e6c:	4290      	cmp	r0, r2
 8003e6e:	d801      	bhi.n	8003e74 <UART_WaitOnFlagUntilTimeout+0x3c>
 8003e70:	2a00      	cmp	r2, #0
 8003e72:	d110      	bne.n	8003e96 <UART_WaitOnFlagUntilTimeout+0x5e>
 8003e74:	681a      	ldr	r2, [r3, #0]
 8003e76:	4913      	ldr	r1, [pc, #76]	; (8003ec4 <UART_WaitOnFlagUntilTimeout+0x8c>)
 8003e78:	400a      	ands	r2, r1
 8003e7a:	601a      	str	r2, [r3, #0]
 8003e7c:	689a      	ldr	r2, [r3, #8]
 8003e7e:	31a3      	adds	r1, #163	; 0xa3
 8003e80:	31ff      	adds	r1, #255	; 0xff
 8003e82:	438a      	bics	r2, r1
 8003e84:	609a      	str	r2, [r3, #8]
 8003e86:	2320      	movs	r3, #32
 8003e88:	67a3      	str	r3, [r4, #120]	; 0x78
 8003e8a:	67e3      	str	r3, [r4, #124]	; 0x7c
 8003e8c:	2300      	movs	r3, #0
 8003e8e:	2003      	movs	r0, #3
 8003e90:	3474      	adds	r4, #116	; 0x74
 8003e92:	7023      	strb	r3, [r4, #0]
 8003e94:	bdfe      	pop	{r1, r2, r3, r4, r5, r6, r7, pc}
 8003e96:	2104      	movs	r1, #4
 8003e98:	681a      	ldr	r2, [r3, #0]
 8003e9a:	420a      	tst	r2, r1
 8003e9c:	d0d3      	beq.n	8003e46 <UART_WaitOnFlagUntilTimeout+0xe>
 8003e9e:	69da      	ldr	r2, [r3, #28]
 8003ea0:	423a      	tst	r2, r7
 8003ea2:	d0d0      	beq.n	8003e46 <UART_WaitOnFlagUntilTimeout+0xe>
 8003ea4:	621f      	str	r7, [r3, #32]
 8003ea6:	681a      	ldr	r2, [r3, #0]
 8003ea8:	4906      	ldr	r1, [pc, #24]	; (8003ec4 <UART_WaitOnFlagUntilTimeout+0x8c>)
 8003eaa:	400a      	ands	r2, r1
 8003eac:	601a      	str	r2, [r3, #0]
 8003eae:	689a      	ldr	r2, [r3, #8]
 8003eb0:	31a3      	adds	r1, #163	; 0xa3
 8003eb2:	31ff      	adds	r1, #255	; 0xff
 8003eb4:	438a      	bics	r2, r1
 8003eb6:	609a      	str	r2, [r3, #8]
 8003eb8:	2320      	movs	r3, #32
 8003eba:	1d22      	adds	r2, r4, #4
 8003ebc:	67a3      	str	r3, [r4, #120]	; 0x78
 8003ebe:	67e3      	str	r3, [r4, #124]	; 0x7c
 8003ec0:	67d3      	str	r3, [r2, #124]	; 0x7c
 8003ec2:	e7e3      	b.n	8003e8c <UART_WaitOnFlagUntilTimeout+0x54>
 8003ec4:	fffffe5f 	.word	0xfffffe5f

08003ec8 <HAL_UART_Transmit>:
 8003ec8:	b5f0      	push	{r4, r5, r6, r7, lr}
 8003eca:	b087      	sub	sp, #28
 8003ecc:	9305      	str	r3, [sp, #20]
 8003ece:	6f83      	ldr	r3, [r0, #120]	; 0x78
 8003ed0:	0004      	movs	r4, r0
 8003ed2:	000d      	movs	r5, r1
 8003ed4:	0017      	movs	r7, r2
 8003ed6:	2002      	movs	r0, #2
 8003ed8:	2b20      	cmp	r3, #32
 8003eda:	d14b      	bne.n	8003f74 <HAL_UART_Transmit+0xac>
 8003edc:	3801      	subs	r0, #1
 8003ede:	2900      	cmp	r1, #0
 8003ee0:	d048      	beq.n	8003f74 <HAL_UART_Transmit+0xac>
 8003ee2:	2a00      	cmp	r2, #0
 8003ee4:	d046      	beq.n	8003f74 <HAL_UART_Transmit+0xac>
 8003ee6:	2380      	movs	r3, #128	; 0x80
 8003ee8:	68a2      	ldr	r2, [r4, #8]
 8003eea:	015b      	lsls	r3, r3, #5
 8003eec:	429a      	cmp	r2, r3
 8003eee:	d104      	bne.n	8003efa <HAL_UART_Transmit+0x32>
 8003ef0:	6923      	ldr	r3, [r4, #16]
 8003ef2:	2b00      	cmp	r3, #0
 8003ef4:	d101      	bne.n	8003efa <HAL_UART_Transmit+0x32>
 8003ef6:	4201      	tst	r1, r0
 8003ef8:	d13c      	bne.n	8003f74 <HAL_UART_Transmit+0xac>
 8003efa:	0026      	movs	r6, r4
 8003efc:	3674      	adds	r6, #116	; 0x74
 8003efe:	7833      	ldrb	r3, [r6, #0]
 8003f00:	2002      	movs	r0, #2
 8003f02:	2b01      	cmp	r3, #1
 8003f04:	d036      	beq.n	8003f74 <HAL_UART_Transmit+0xac>
 8003f06:	2301      	movs	r3, #1
 8003f08:	2200      	movs	r2, #0
 8003f0a:	7033      	strb	r3, [r6, #0]
 8003f0c:	1d23      	adds	r3, r4, #4
 8003f0e:	67da      	str	r2, [r3, #124]	; 0x7c
 8003f10:	2321      	movs	r3, #33	; 0x21
 8003f12:	67a3      	str	r3, [r4, #120]	; 0x78
 8003f14:	f7fe fc14 	bl	8002740 <HAL_GetTick>
 8003f18:	0023      	movs	r3, r4
 8003f1a:	3350      	adds	r3, #80	; 0x50
 8003f1c:	801f      	strh	r7, [r3, #0]
 8003f1e:	3302      	adds	r3, #2
 8003f20:	801f      	strh	r7, [r3, #0]
 8003f22:	9303      	str	r3, [sp, #12]
 8003f24:	2380      	movs	r3, #128	; 0x80
 8003f26:	68a2      	ldr	r2, [r4, #8]
 8003f28:	9004      	str	r0, [sp, #16]
 8003f2a:	015b      	lsls	r3, r3, #5
 8003f2c:	2700      	movs	r7, #0
 8003f2e:	429a      	cmp	r2, r3
 8003f30:	d104      	bne.n	8003f3c <HAL_UART_Transmit+0x74>
 8003f32:	6923      	ldr	r3, [r4, #16]
 8003f34:	42bb      	cmp	r3, r7
 8003f36:	d101      	bne.n	8003f3c <HAL_UART_Transmit+0x74>
 8003f38:	002f      	movs	r7, r5
 8003f3a:	001d      	movs	r5, r3
 8003f3c:	2300      	movs	r3, #0
 8003f3e:	7033      	strb	r3, [r6, #0]
 8003f40:	0023      	movs	r3, r4
 8003f42:	3352      	adds	r3, #82	; 0x52
 8003f44:	881a      	ldrh	r2, [r3, #0]
 8003f46:	9b05      	ldr	r3, [sp, #20]
 8003f48:	b292      	uxth	r2, r2
 8003f4a:	9300      	str	r3, [sp, #0]
 8003f4c:	9b04      	ldr	r3, [sp, #16]
 8003f4e:	2a00      	cmp	r2, #0
 8003f50:	d108      	bne.n	8003f64 <HAL_UART_Transmit+0x9c>
 8003f52:	2140      	movs	r1, #64	; 0x40
 8003f54:	0020      	movs	r0, r4
 8003f56:	f7ff ff6f 	bl	8003e38 <UART_WaitOnFlagUntilTimeout>
 8003f5a:	2800      	cmp	r0, #0
 8003f5c:	d109      	bne.n	8003f72 <HAL_UART_Transmit+0xaa>
 8003f5e:	2320      	movs	r3, #32
 8003f60:	67a3      	str	r3, [r4, #120]	; 0x78
 8003f62:	e007      	b.n	8003f74 <HAL_UART_Transmit+0xac>
 8003f64:	2200      	movs	r2, #0
 8003f66:	2180      	movs	r1, #128	; 0x80
 8003f68:	0020      	movs	r0, r4
 8003f6a:	f7ff ff65 	bl	8003e38 <UART_WaitOnFlagUntilTimeout>
 8003f6e:	2800      	cmp	r0, #0
 8003f70:	d002      	beq.n	8003f78 <HAL_UART_Transmit+0xb0>
 8003f72:	2003      	movs	r0, #3
 8003f74:	b007      	add	sp, #28
 8003f76:	bdf0      	pop	{r4, r5, r6, r7, pc}
 8003f78:	6822      	ldr	r2, [r4, #0]
 8003f7a:	2d00      	cmp	r5, #0
 8003f7c:	d10b      	bne.n	8003f96 <HAL_UART_Transmit+0xce>
 8003f7e:	883b      	ldrh	r3, [r7, #0]
 8003f80:	3702      	adds	r7, #2
 8003f82:	05db      	lsls	r3, r3, #23
 8003f84:	0ddb      	lsrs	r3, r3, #23
 8003f86:	6293      	str	r3, [r2, #40]	; 0x28
 8003f88:	9b03      	ldr	r3, [sp, #12]
 8003f8a:	9a03      	ldr	r2, [sp, #12]
 8003f8c:	881b      	ldrh	r3, [r3, #0]
 8003f8e:	3b01      	subs	r3, #1
 8003f90:	b29b      	uxth	r3, r3
 8003f92:	8013      	strh	r3, [r2, #0]
 8003f94:	e7d4      	b.n	8003f40 <HAL_UART_Transmit+0x78>
 8003f96:	782b      	ldrb	r3, [r5, #0]
 8003f98:	3501      	adds	r5, #1
 8003f9a:	6293      	str	r3, [r2, #40]	; 0x28
 8003f9c:	e7f4      	b.n	8003f88 <HAL_UART_Transmit+0xc0>
	...

08003fa0 <UART_CheckIdleState>:
 8003fa0:	b573      	push	{r0, r1, r4, r5, r6, lr}
 8003fa2:	2600      	movs	r6, #0
 8003fa4:	0004      	movs	r4, r0
 8003fa6:	1d03      	adds	r3, r0, #4
 8003fa8:	67de      	str	r6, [r3, #124]	; 0x7c
 8003faa:	f7fe fbc9 	bl	8002740 <HAL_GetTick>
 8003fae:	6823      	ldr	r3, [r4, #0]
 8003fb0:	0005      	movs	r5, r0
 8003fb2:	681b      	ldr	r3, [r3, #0]
 8003fb4:	071b      	lsls	r3, r3, #28
 8003fb6:	d416      	bmi.n	8003fe6 <UART_CheckIdleState+0x46>
 8003fb8:	6823      	ldr	r3, [r4, #0]
 8003fba:	681b      	ldr	r3, [r3, #0]
 8003fbc:	075b      	lsls	r3, r3, #29
 8003fbe:	d50a      	bpl.n	8003fd6 <UART_CheckIdleState+0x36>
 8003fc0:	2180      	movs	r1, #128	; 0x80
 8003fc2:	4b0f      	ldr	r3, [pc, #60]	; (8004000 <UART_CheckIdleState+0x60>)
 8003fc4:	2200      	movs	r2, #0
 8003fc6:	9300      	str	r3, [sp, #0]
 8003fc8:	03c9      	lsls	r1, r1, #15
 8003fca:	002b      	movs	r3, r5
 8003fcc:	0020      	movs	r0, r4
 8003fce:	f7ff ff33 	bl	8003e38 <UART_WaitOnFlagUntilTimeout>
 8003fd2:	2800      	cmp	r0, #0
 8003fd4:	d112      	bne.n	8003ffc <UART_CheckIdleState+0x5c>
 8003fd6:	2320      	movs	r3, #32
 8003fd8:	2000      	movs	r0, #0
 8003fda:	67a3      	str	r3, [r4, #120]	; 0x78
 8003fdc:	67e3      	str	r3, [r4, #124]	; 0x7c
 8003fde:	6620      	str	r0, [r4, #96]	; 0x60
 8003fe0:	3474      	adds	r4, #116	; 0x74
 8003fe2:	7020      	strb	r0, [r4, #0]
 8003fe4:	e00b      	b.n	8003ffe <UART_CheckIdleState+0x5e>
 8003fe6:	2180      	movs	r1, #128	; 0x80
 8003fe8:	4b05      	ldr	r3, [pc, #20]	; (8004000 <UART_CheckIdleState+0x60>)
 8003fea:	0032      	movs	r2, r6
 8003fec:	9300      	str	r3, [sp, #0]
 8003fee:	0389      	lsls	r1, r1, #14
 8003ff0:	0003      	movs	r3, r0
 8003ff2:	0020      	movs	r0, r4
 8003ff4:	f7ff ff20 	bl	8003e38 <UART_WaitOnFlagUntilTimeout>
 8003ff8:	2800      	cmp	r0, #0
 8003ffa:	d0dd      	beq.n	8003fb8 <UART_CheckIdleState+0x18>
 8003ffc:	2003      	movs	r0, #3
 8003ffe:	bd76      	pop	{r1, r2, r4, r5, r6, pc}
 8004000:	01ffffff 	.word	0x01ffffff

08004004 <HAL_UART_Init>:
 8004004:	b510      	push	{r4, lr}
 8004006:	1e04      	subs	r4, r0, #0
 8004008:	d101      	bne.n	800400e <HAL_UART_Init+0xa>
 800400a:	2001      	movs	r0, #1
 800400c:	bd10      	pop	{r4, pc}
 800400e:	6f83      	ldr	r3, [r0, #120]	; 0x78
 8004010:	2b00      	cmp	r3, #0
 8004012:	d104      	bne.n	800401e <HAL_UART_Init+0x1a>
 8004014:	0002      	movs	r2, r0
 8004016:	3274      	adds	r2, #116	; 0x74
 8004018:	7013      	strb	r3, [r2, #0]
 800401a:	f7fe fa8f 	bl	800253c <HAL_UART_MspInit>
 800401e:	2324      	movs	r3, #36	; 0x24
 8004020:	2101      	movs	r1, #1
 8004022:	6822      	ldr	r2, [r4, #0]
 8004024:	67a3      	str	r3, [r4, #120]	; 0x78
 8004026:	6813      	ldr	r3, [r2, #0]
 8004028:	0020      	movs	r0, r4
 800402a:	438b      	bics	r3, r1
 800402c:	6013      	str	r3, [r2, #0]
 800402e:	f7ff fd99 	bl	8003b64 <UART_SetConfig>
 8004032:	2801      	cmp	r0, #1
 8004034:	d0e9      	beq.n	800400a <HAL_UART_Init+0x6>
 8004036:	6a63      	ldr	r3, [r4, #36]	; 0x24
 8004038:	2b00      	cmp	r3, #0
 800403a:	d002      	beq.n	8004042 <HAL_UART_Init+0x3e>
 800403c:	0020      	movs	r0, r4
 800403e:	f7ff fe93 	bl	8003d68 <UART_AdvFeatureConfig>
 8004042:	6823      	ldr	r3, [r4, #0]
 8004044:	4907      	ldr	r1, [pc, #28]	; (8004064 <HAL_UART_Init+0x60>)
 8004046:	685a      	ldr	r2, [r3, #4]
 8004048:	0020      	movs	r0, r4
 800404a:	400a      	ands	r2, r1
 800404c:	212a      	movs	r1, #42	; 0x2a
 800404e:	605a      	str	r2, [r3, #4]
 8004050:	689a      	ldr	r2, [r3, #8]
 8004052:	438a      	bics	r2, r1
 8004054:	609a      	str	r2, [r3, #8]
 8004056:	2201      	movs	r2, #1
 8004058:	6819      	ldr	r1, [r3, #0]
 800405a:	430a      	orrs	r2, r1
 800405c:	601a      	str	r2, [r3, #0]
 800405e:	f7ff ff9f 	bl	8003fa0 <UART_CheckIdleState>
 8004062:	e7d3      	b.n	800400c <HAL_UART_Init+0x8>
 8004064:	ffffb7ff 	.word	0xffffb7ff

08004068 <__errno>:
 8004068:	4b01      	ldr	r3, [pc, #4]	; (8004070 <__errno+0x8>)
 800406a:	6818      	ldr	r0, [r3, #0]
 800406c:	4770      	bx	lr
 800406e:	46c0      	nop			; (mov r8, r8)
 8004070:	2000000c 	.word	0x2000000c

08004074 <__libc_init_array>:
 8004074:	b570      	push	{r4, r5, r6, lr}
 8004076:	2600      	movs	r6, #0
 8004078:	4d0c      	ldr	r5, [pc, #48]	; (80040ac <__libc_init_array+0x38>)
 800407a:	4c0d      	ldr	r4, [pc, #52]	; (80040b0 <__libc_init_array+0x3c>)
 800407c:	1b64      	subs	r4, r4, r5
 800407e:	10a4      	asrs	r4, r4, #2
 8004080:	42a6      	cmp	r6, r4
 8004082:	d109      	bne.n	8004098 <__libc_init_array+0x24>
 8004084:	2600      	movs	r6, #0
 8004086:	f000 ffad 	bl	8004fe4 <_init>
 800408a:	4d0a      	ldr	r5, [pc, #40]	; (80040b4 <__libc_init_array+0x40>)
 800408c:	4c0a      	ldr	r4, [pc, #40]	; (80040b8 <__libc_init_array+0x44>)
 800408e:	1b64      	subs	r4, r4, r5
 8004090:	10a4      	asrs	r4, r4, #2
 8004092:	42a6      	cmp	r6, r4
 8004094:	d105      	bne.n	80040a2 <__libc_init_array+0x2e>
 8004096:	bd70      	pop	{r4, r5, r6, pc}
 8004098:	00b3      	lsls	r3, r6, #2
 800409a:	58eb      	ldr	r3, [r5, r3]
 800409c:	4798      	blx	r3
 800409e:	3601      	adds	r6, #1
 80040a0:	e7ee      	b.n	8004080 <__libc_init_array+0xc>
 80040a2:	00b3      	lsls	r3, r6, #2
 80040a4:	58eb      	ldr	r3, [r5, r3]
 80040a6:	4798      	blx	r3
 80040a8:	3601      	adds	r6, #1
 80040aa:	e7f2      	b.n	8004092 <__libc_init_array+0x1e>
 80040ac:	0800532c 	.word	0x0800532c
 80040b0:	0800532c 	.word	0x0800532c
 80040b4:	0800532c 	.word	0x0800532c
 80040b8:	08005330 	.word	0x08005330

080040bc <malloc>:
 80040bc:	b510      	push	{r4, lr}
 80040be:	4b03      	ldr	r3, [pc, #12]	; (80040cc <malloc+0x10>)
 80040c0:	0001      	movs	r1, r0
 80040c2:	6818      	ldr	r0, [r3, #0]
 80040c4:	f000 f856 	bl	8004174 <_malloc_r>
 80040c8:	bd10      	pop	{r4, pc}
 80040ca:	46c0      	nop			; (mov r8, r8)
 80040cc:	2000000c 	.word	0x2000000c

080040d0 <memset>:
 80040d0:	0003      	movs	r3, r0
 80040d2:	1812      	adds	r2, r2, r0
 80040d4:	4293      	cmp	r3, r2
 80040d6:	d100      	bne.n	80040da <memset+0xa>
 80040d8:	4770      	bx	lr
 80040da:	7019      	strb	r1, [r3, #0]
 80040dc:	3301      	adds	r3, #1
 80040de:	e7f9      	b.n	80040d4 <memset+0x4>

080040e0 <_free_r>:
 80040e0:	b570      	push	{r4, r5, r6, lr}
 80040e2:	0005      	movs	r5, r0
 80040e4:	2900      	cmp	r1, #0
 80040e6:	d010      	beq.n	800410a <_free_r+0x2a>
 80040e8:	1f0c      	subs	r4, r1, #4
 80040ea:	6823      	ldr	r3, [r4, #0]
 80040ec:	2b00      	cmp	r3, #0
 80040ee:	da00      	bge.n	80040f2 <_free_r+0x12>
 80040f0:	18e4      	adds	r4, r4, r3
 80040f2:	0028      	movs	r0, r5
 80040f4:	f000 fbf6 	bl	80048e4 <__malloc_lock>
 80040f8:	4a1d      	ldr	r2, [pc, #116]	; (8004170 <_free_r+0x90>)
 80040fa:	6813      	ldr	r3, [r2, #0]
 80040fc:	2b00      	cmp	r3, #0
 80040fe:	d105      	bne.n	800410c <_free_r+0x2c>
 8004100:	6063      	str	r3, [r4, #4]
 8004102:	6014      	str	r4, [r2, #0]
 8004104:	0028      	movs	r0, r5
 8004106:	f000 fbee 	bl	80048e6 <__malloc_unlock>
 800410a:	bd70      	pop	{r4, r5, r6, pc}
 800410c:	42a3      	cmp	r3, r4
 800410e:	d909      	bls.n	8004124 <_free_r+0x44>
 8004110:	6821      	ldr	r1, [r4, #0]
 8004112:	1860      	adds	r0, r4, r1
 8004114:	4283      	cmp	r3, r0
 8004116:	d1f3      	bne.n	8004100 <_free_r+0x20>
 8004118:	6818      	ldr	r0, [r3, #0]
 800411a:	685b      	ldr	r3, [r3, #4]
 800411c:	1841      	adds	r1, r0, r1
 800411e:	6021      	str	r1, [r4, #0]
 8004120:	e7ee      	b.n	8004100 <_free_r+0x20>
 8004122:	0013      	movs	r3, r2
 8004124:	685a      	ldr	r2, [r3, #4]
 8004126:	2a00      	cmp	r2, #0
 8004128:	d001      	beq.n	800412e <_free_r+0x4e>
 800412a:	42a2      	cmp	r2, r4
 800412c:	d9f9      	bls.n	8004122 <_free_r+0x42>
 800412e:	6819      	ldr	r1, [r3, #0]
 8004130:	1858      	adds	r0, r3, r1
 8004132:	42a0      	cmp	r0, r4
 8004134:	d10b      	bne.n	800414e <_free_r+0x6e>
 8004136:	6820      	ldr	r0, [r4, #0]
 8004138:	1809      	adds	r1, r1, r0
 800413a:	1858      	adds	r0, r3, r1
 800413c:	6019      	str	r1, [r3, #0]
 800413e:	4282      	cmp	r2, r0
 8004140:	d1e0      	bne.n	8004104 <_free_r+0x24>
 8004142:	6810      	ldr	r0, [r2, #0]
 8004144:	6852      	ldr	r2, [r2, #4]
 8004146:	1841      	adds	r1, r0, r1
 8004148:	6019      	str	r1, [r3, #0]
 800414a:	605a      	str	r2, [r3, #4]
 800414c:	e7da      	b.n	8004104 <_free_r+0x24>
 800414e:	42a0      	cmp	r0, r4
 8004150:	d902      	bls.n	8004158 <_free_r+0x78>
 8004152:	230c      	movs	r3, #12
 8004154:	602b      	str	r3, [r5, #0]
 8004156:	e7d5      	b.n	8004104 <_free_r+0x24>
 8004158:	6821      	ldr	r1, [r4, #0]
 800415a:	1860      	adds	r0, r4, r1
 800415c:	4282      	cmp	r2, r0
 800415e:	d103      	bne.n	8004168 <_free_r+0x88>
 8004160:	6810      	ldr	r0, [r2, #0]
 8004162:	6852      	ldr	r2, [r2, #4]
 8004164:	1841      	adds	r1, r0, r1
 8004166:	6021      	str	r1, [r4, #0]
 8004168:	6062      	str	r2, [r4, #4]
 800416a:	605c      	str	r4, [r3, #4]
 800416c:	e7ca      	b.n	8004104 <_free_r+0x24>
 800416e:	46c0      	nop			; (mov r8, r8)
 8004170:	20000090 	.word	0x20000090

08004174 <_malloc_r>:
 8004174:	2303      	movs	r3, #3
 8004176:	b570      	push	{r4, r5, r6, lr}
 8004178:	1ccd      	adds	r5, r1, #3
 800417a:	439d      	bics	r5, r3
 800417c:	3508      	adds	r5, #8
 800417e:	0006      	movs	r6, r0
 8004180:	2d0c      	cmp	r5, #12
 8004182:	d21e      	bcs.n	80041c2 <_malloc_r+0x4e>
 8004184:	250c      	movs	r5, #12
 8004186:	42a9      	cmp	r1, r5
 8004188:	d81d      	bhi.n	80041c6 <_malloc_r+0x52>
 800418a:	0030      	movs	r0, r6
 800418c:	f000 fbaa 	bl	80048e4 <__malloc_lock>
 8004190:	4a25      	ldr	r2, [pc, #148]	; (8004228 <_malloc_r+0xb4>)
 8004192:	6814      	ldr	r4, [r2, #0]
 8004194:	0021      	movs	r1, r4
 8004196:	2900      	cmp	r1, #0
 8004198:	d119      	bne.n	80041ce <_malloc_r+0x5a>
 800419a:	4c24      	ldr	r4, [pc, #144]	; (800422c <_malloc_r+0xb8>)
 800419c:	6823      	ldr	r3, [r4, #0]
 800419e:	2b00      	cmp	r3, #0
 80041a0:	d103      	bne.n	80041aa <_malloc_r+0x36>
 80041a2:	0030      	movs	r0, r6
 80041a4:	f000 f8c8 	bl	8004338 <_sbrk_r>
 80041a8:	6020      	str	r0, [r4, #0]
 80041aa:	0029      	movs	r1, r5
 80041ac:	0030      	movs	r0, r6
 80041ae:	f000 f8c3 	bl	8004338 <_sbrk_r>
 80041b2:	1c43      	adds	r3, r0, #1
 80041b4:	d12b      	bne.n	800420e <_malloc_r+0x9a>
 80041b6:	230c      	movs	r3, #12
 80041b8:	0030      	movs	r0, r6
 80041ba:	6033      	str	r3, [r6, #0]
 80041bc:	f000 fb93 	bl	80048e6 <__malloc_unlock>
 80041c0:	e003      	b.n	80041ca <_malloc_r+0x56>
 80041c2:	2d00      	cmp	r5, #0
 80041c4:	dadf      	bge.n	8004186 <_malloc_r+0x12>
 80041c6:	230c      	movs	r3, #12
 80041c8:	6033      	str	r3, [r6, #0]
 80041ca:	2000      	movs	r0, #0
 80041cc:	bd70      	pop	{r4, r5, r6, pc}
 80041ce:	680b      	ldr	r3, [r1, #0]
 80041d0:	1b5b      	subs	r3, r3, r5
 80041d2:	d419      	bmi.n	8004208 <_malloc_r+0x94>
 80041d4:	2b0b      	cmp	r3, #11
 80041d6:	d903      	bls.n	80041e0 <_malloc_r+0x6c>
 80041d8:	600b      	str	r3, [r1, #0]
 80041da:	18cc      	adds	r4, r1, r3
 80041dc:	6025      	str	r5, [r4, #0]
 80041de:	e003      	b.n	80041e8 <_malloc_r+0x74>
 80041e0:	684b      	ldr	r3, [r1, #4]
 80041e2:	428c      	cmp	r4, r1
 80041e4:	d10d      	bne.n	8004202 <_malloc_r+0x8e>
 80041e6:	6013      	str	r3, [r2, #0]
 80041e8:	0030      	movs	r0, r6
 80041ea:	f000 fb7c 	bl	80048e6 <__malloc_unlock>
 80041ee:	0020      	movs	r0, r4
 80041f0:	2207      	movs	r2, #7
 80041f2:	300b      	adds	r0, #11
 80041f4:	1d23      	adds	r3, r4, #4
 80041f6:	4390      	bics	r0, r2
 80041f8:	1ac3      	subs	r3, r0, r3
 80041fa:	d0e7      	beq.n	80041cc <_malloc_r+0x58>
 80041fc:	425a      	negs	r2, r3
 80041fe:	50e2      	str	r2, [r4, r3]
 8004200:	e7e4      	b.n	80041cc <_malloc_r+0x58>
 8004202:	6063      	str	r3, [r4, #4]
 8004204:	000c      	movs	r4, r1
 8004206:	e7ef      	b.n	80041e8 <_malloc_r+0x74>
 8004208:	000c      	movs	r4, r1
 800420a:	6849      	ldr	r1, [r1, #4]
 800420c:	e7c3      	b.n	8004196 <_malloc_r+0x22>
 800420e:	2303      	movs	r3, #3
 8004210:	1cc4      	adds	r4, r0, #3
 8004212:	439c      	bics	r4, r3
 8004214:	42a0      	cmp	r0, r4
 8004216:	d0e1      	beq.n	80041dc <_malloc_r+0x68>
 8004218:	1a21      	subs	r1, r4, r0
 800421a:	0030      	movs	r0, r6
 800421c:	f000 f88c 	bl	8004338 <_sbrk_r>
 8004220:	1c43      	adds	r3, r0, #1
 8004222:	d1db      	bne.n	80041dc <_malloc_r+0x68>
 8004224:	e7c7      	b.n	80041b6 <_malloc_r+0x42>
 8004226:	46c0      	nop			; (mov r8, r8)
 8004228:	20000090 	.word	0x20000090
 800422c:	20000094 	.word	0x20000094

08004230 <iprintf>:
 8004230:	b40f      	push	{r0, r1, r2, r3}
 8004232:	4b0b      	ldr	r3, [pc, #44]	; (8004260 <iprintf+0x30>)
 8004234:	b513      	push	{r0, r1, r4, lr}
 8004236:	681c      	ldr	r4, [r3, #0]
 8004238:	2c00      	cmp	r4, #0
 800423a:	d005      	beq.n	8004248 <iprintf+0x18>
 800423c:	69a3      	ldr	r3, [r4, #24]
 800423e:	2b00      	cmp	r3, #0
 8004240:	d102      	bne.n	8004248 <iprintf+0x18>
 8004242:	0020      	movs	r0, r4
 8004244:	f000 fa4e 	bl	80046e4 <__sinit>
 8004248:	ab05      	add	r3, sp, #20
 800424a:	9a04      	ldr	r2, [sp, #16]
 800424c:	68a1      	ldr	r1, [r4, #8]
 800424e:	0020      	movs	r0, r4
 8004250:	9301      	str	r3, [sp, #4]
 8004252:	f000 fb71 	bl	8004938 <_vfiprintf_r>
 8004256:	bc16      	pop	{r1, r2, r4}
 8004258:	bc08      	pop	{r3}
 800425a:	b004      	add	sp, #16
 800425c:	4718      	bx	r3
 800425e:	46c0      	nop			; (mov r8, r8)
 8004260:	2000000c 	.word	0x2000000c

08004264 <_puts_r>:
 8004264:	b570      	push	{r4, r5, r6, lr}
 8004266:	0005      	movs	r5, r0
 8004268:	000e      	movs	r6, r1
 800426a:	2800      	cmp	r0, #0
 800426c:	d004      	beq.n	8004278 <_puts_r+0x14>
 800426e:	6983      	ldr	r3, [r0, #24]
 8004270:	2b00      	cmp	r3, #0
 8004272:	d101      	bne.n	8004278 <_puts_r+0x14>
 8004274:	f000 fa36 	bl	80046e4 <__sinit>
 8004278:	69ab      	ldr	r3, [r5, #24]
 800427a:	68ac      	ldr	r4, [r5, #8]
 800427c:	2b00      	cmp	r3, #0
 800427e:	d102      	bne.n	8004286 <_puts_r+0x22>
 8004280:	0028      	movs	r0, r5
 8004282:	f000 fa2f 	bl	80046e4 <__sinit>
 8004286:	4b24      	ldr	r3, [pc, #144]	; (8004318 <_puts_r+0xb4>)
 8004288:	429c      	cmp	r4, r3
 800428a:	d10f      	bne.n	80042ac <_puts_r+0x48>
 800428c:	686c      	ldr	r4, [r5, #4]
 800428e:	89a3      	ldrh	r3, [r4, #12]
 8004290:	071b      	lsls	r3, r3, #28
 8004292:	d502      	bpl.n	800429a <_puts_r+0x36>
 8004294:	6923      	ldr	r3, [r4, #16]
 8004296:	2b00      	cmp	r3, #0
 8004298:	d11f      	bne.n	80042da <_puts_r+0x76>
 800429a:	0021      	movs	r1, r4
 800429c:	0028      	movs	r0, r5
 800429e:	f000 f8b3 	bl	8004408 <__swsetup_r>
 80042a2:	2800      	cmp	r0, #0
 80042a4:	d019      	beq.n	80042da <_puts_r+0x76>
 80042a6:	2001      	movs	r0, #1
 80042a8:	4240      	negs	r0, r0
 80042aa:	bd70      	pop	{r4, r5, r6, pc}
 80042ac:	4b1b      	ldr	r3, [pc, #108]	; (800431c <_puts_r+0xb8>)
 80042ae:	429c      	cmp	r4, r3
 80042b0:	d101      	bne.n	80042b6 <_puts_r+0x52>
 80042b2:	68ac      	ldr	r4, [r5, #8]
 80042b4:	e7eb      	b.n	800428e <_puts_r+0x2a>
 80042b6:	4b1a      	ldr	r3, [pc, #104]	; (8004320 <_puts_r+0xbc>)
 80042b8:	429c      	cmp	r4, r3
 80042ba:	d1e8      	bne.n	800428e <_puts_r+0x2a>
 80042bc:	68ec      	ldr	r4, [r5, #12]
 80042be:	e7e6      	b.n	800428e <_puts_r+0x2a>
 80042c0:	3601      	adds	r6, #1
 80042c2:	60a3      	str	r3, [r4, #8]
 80042c4:	2b00      	cmp	r3, #0
 80042c6:	da04      	bge.n	80042d2 <_puts_r+0x6e>
 80042c8:	69a2      	ldr	r2, [r4, #24]
 80042ca:	429a      	cmp	r2, r3
 80042cc:	dc16      	bgt.n	80042fc <_puts_r+0x98>
 80042ce:	290a      	cmp	r1, #10
 80042d0:	d014      	beq.n	80042fc <_puts_r+0x98>
 80042d2:	6823      	ldr	r3, [r4, #0]
 80042d4:	1c5a      	adds	r2, r3, #1
 80042d6:	6022      	str	r2, [r4, #0]
 80042d8:	7019      	strb	r1, [r3, #0]
 80042da:	68a3      	ldr	r3, [r4, #8]
 80042dc:	7831      	ldrb	r1, [r6, #0]
 80042de:	3b01      	subs	r3, #1
 80042e0:	2900      	cmp	r1, #0
 80042e2:	d1ed      	bne.n	80042c0 <_puts_r+0x5c>
 80042e4:	60a3      	str	r3, [r4, #8]
 80042e6:	2b00      	cmp	r3, #0
 80042e8:	da0f      	bge.n	800430a <_puts_r+0xa6>
 80042ea:	0022      	movs	r2, r4
 80042ec:	310a      	adds	r1, #10
 80042ee:	0028      	movs	r0, r5
 80042f0:	f000 f834 	bl	800435c <__swbuf_r>
 80042f4:	1c43      	adds	r3, r0, #1
 80042f6:	d0d6      	beq.n	80042a6 <_puts_r+0x42>
 80042f8:	200a      	movs	r0, #10
 80042fa:	e7d6      	b.n	80042aa <_puts_r+0x46>
 80042fc:	0022      	movs	r2, r4
 80042fe:	0028      	movs	r0, r5
 8004300:	f000 f82c 	bl	800435c <__swbuf_r>
 8004304:	1c43      	adds	r3, r0, #1
 8004306:	d1e8      	bne.n	80042da <_puts_r+0x76>
 8004308:	e7cd      	b.n	80042a6 <_puts_r+0x42>
 800430a:	200a      	movs	r0, #10
 800430c:	6823      	ldr	r3, [r4, #0]
 800430e:	1c5a      	adds	r2, r3, #1
 8004310:	6022      	str	r2, [r4, #0]
 8004312:	7018      	strb	r0, [r3, #0]
 8004314:	e7c9      	b.n	80042aa <_puts_r+0x46>
 8004316:	46c0      	nop			; (mov r8, r8)
 8004318:	080052b0 	.word	0x080052b0
 800431c:	080052d0 	.word	0x080052d0
 8004320:	08005290 	.word	0x08005290

08004324 <puts>:
 8004324:	b510      	push	{r4, lr}
 8004326:	4b03      	ldr	r3, [pc, #12]	; (8004334 <puts+0x10>)
 8004328:	0001      	movs	r1, r0
 800432a:	6818      	ldr	r0, [r3, #0]
 800432c:	f7ff ff9a 	bl	8004264 <_puts_r>
 8004330:	bd10      	pop	{r4, pc}
 8004332:	46c0      	nop			; (mov r8, r8)
 8004334:	2000000c 	.word	0x2000000c

08004338 <_sbrk_r>:
 8004338:	2300      	movs	r3, #0
 800433a:	b570      	push	{r4, r5, r6, lr}
 800433c:	4c06      	ldr	r4, [pc, #24]	; (8004358 <_sbrk_r+0x20>)
 800433e:	0005      	movs	r5, r0
 8004340:	0008      	movs	r0, r1
 8004342:	6023      	str	r3, [r4, #0]
 8004344:	f7fe f96c 	bl	8002620 <_sbrk>
 8004348:	1c43      	adds	r3, r0, #1
 800434a:	d103      	bne.n	8004354 <_sbrk_r+0x1c>
 800434c:	6823      	ldr	r3, [r4, #0]
 800434e:	2b00      	cmp	r3, #0
 8004350:	d000      	beq.n	8004354 <_sbrk_r+0x1c>
 8004352:	602b      	str	r3, [r5, #0]
 8004354:	bd70      	pop	{r4, r5, r6, pc}
 8004356:	46c0      	nop			; (mov r8, r8)
 8004358:	200001b0 	.word	0x200001b0

0800435c <__swbuf_r>:
 800435c:	b5f8      	push	{r3, r4, r5, r6, r7, lr}
 800435e:	0005      	movs	r5, r0
 8004360:	000e      	movs	r6, r1
 8004362:	0014      	movs	r4, r2
 8004364:	2800      	cmp	r0, #0
 8004366:	d004      	beq.n	8004372 <__swbuf_r+0x16>
 8004368:	6983      	ldr	r3, [r0, #24]
 800436a:	2b00      	cmp	r3, #0
 800436c:	d101      	bne.n	8004372 <__swbuf_r+0x16>
 800436e:	f000 f9b9 	bl	80046e4 <__sinit>
 8004372:	4b22      	ldr	r3, [pc, #136]	; (80043fc <__swbuf_r+0xa0>)
 8004374:	429c      	cmp	r4, r3
 8004376:	d12d      	bne.n	80043d4 <__swbuf_r+0x78>
 8004378:	686c      	ldr	r4, [r5, #4]
 800437a:	69a3      	ldr	r3, [r4, #24]
 800437c:	60a3      	str	r3, [r4, #8]
 800437e:	89a3      	ldrh	r3, [r4, #12]
 8004380:	071b      	lsls	r3, r3, #28
 8004382:	d531      	bpl.n	80043e8 <__swbuf_r+0x8c>
 8004384:	6923      	ldr	r3, [r4, #16]
 8004386:	2b00      	cmp	r3, #0
 8004388:	d02e      	beq.n	80043e8 <__swbuf_r+0x8c>
 800438a:	6823      	ldr	r3, [r4, #0]
 800438c:	6922      	ldr	r2, [r4, #16]
 800438e:	b2f7      	uxtb	r7, r6
 8004390:	1a98      	subs	r0, r3, r2
 8004392:	6963      	ldr	r3, [r4, #20]
 8004394:	b2f6      	uxtb	r6, r6
 8004396:	4283      	cmp	r3, r0
 8004398:	dc05      	bgt.n	80043a6 <__swbuf_r+0x4a>
 800439a:	0021      	movs	r1, r4
 800439c:	0028      	movs	r0, r5
 800439e:	f000 f933 	bl	8004608 <_fflush_r>
 80043a2:	2800      	cmp	r0, #0
 80043a4:	d126      	bne.n	80043f4 <__swbuf_r+0x98>
 80043a6:	68a3      	ldr	r3, [r4, #8]
 80043a8:	3001      	adds	r0, #1
 80043aa:	3b01      	subs	r3, #1
 80043ac:	60a3      	str	r3, [r4, #8]
 80043ae:	6823      	ldr	r3, [r4, #0]
 80043b0:	1c5a      	adds	r2, r3, #1
 80043b2:	6022      	str	r2, [r4, #0]
 80043b4:	701f      	strb	r7, [r3, #0]
 80043b6:	6963      	ldr	r3, [r4, #20]
 80043b8:	4283      	cmp	r3, r0
 80043ba:	d004      	beq.n	80043c6 <__swbuf_r+0x6a>
 80043bc:	89a3      	ldrh	r3, [r4, #12]
 80043be:	07db      	lsls	r3, r3, #31
 80043c0:	d51a      	bpl.n	80043f8 <__swbuf_r+0x9c>
 80043c2:	2e0a      	cmp	r6, #10
 80043c4:	d118      	bne.n	80043f8 <__swbuf_r+0x9c>
 80043c6:	0021      	movs	r1, r4
 80043c8:	0028      	movs	r0, r5
 80043ca:	f000 f91d 	bl	8004608 <_fflush_r>
 80043ce:	2800      	cmp	r0, #0
 80043d0:	d012      	beq.n	80043f8 <__swbuf_r+0x9c>
 80043d2:	e00f      	b.n	80043f4 <__swbuf_r+0x98>
 80043d4:	4b0a      	ldr	r3, [pc, #40]	; (8004400 <__swbuf_r+0xa4>)
 80043d6:	429c      	cmp	r4, r3
 80043d8:	d101      	bne.n	80043de <__swbuf_r+0x82>
 80043da:	68ac      	ldr	r4, [r5, #8]
 80043dc:	e7cd      	b.n	800437a <__swbuf_r+0x1e>
 80043de:	4b09      	ldr	r3, [pc, #36]	; (8004404 <__swbuf_r+0xa8>)
 80043e0:	429c      	cmp	r4, r3
 80043e2:	d1ca      	bne.n	800437a <__swbuf_r+0x1e>
 80043e4:	68ec      	ldr	r4, [r5, #12]
 80043e6:	e7c8      	b.n	800437a <__swbuf_r+0x1e>
 80043e8:	0021      	movs	r1, r4
 80043ea:	0028      	movs	r0, r5
 80043ec:	f000 f80c 	bl	8004408 <__swsetup_r>
 80043f0:	2800      	cmp	r0, #0
 80043f2:	d0ca      	beq.n	800438a <__swbuf_r+0x2e>
 80043f4:	2601      	movs	r6, #1
 80043f6:	4276      	negs	r6, r6
 80043f8:	0030      	movs	r0, r6
 80043fa:	bdf8      	pop	{r3, r4, r5, r6, r7, pc}
 80043fc:	080052b0 	.word	0x080052b0
 8004400:	080052d0 	.word	0x080052d0
 8004404:	08005290 	.word	0x08005290

08004408 <__swsetup_r>:
 8004408:	4b36      	ldr	r3, [pc, #216]	; (80044e4 <__swsetup_r+0xdc>)
 800440a:	b570      	push	{r4, r5, r6, lr}
 800440c:	681d      	ldr	r5, [r3, #0]
 800440e:	0006      	movs	r6, r0
 8004410:	000c      	movs	r4, r1
 8004412:	2d00      	cmp	r5, #0
 8004414:	d005      	beq.n	8004422 <__swsetup_r+0x1a>
 8004416:	69ab      	ldr	r3, [r5, #24]
 8004418:	2b00      	cmp	r3, #0
 800441a:	d102      	bne.n	8004422 <__swsetup_r+0x1a>
 800441c:	0028      	movs	r0, r5
 800441e:	f000 f961 	bl	80046e4 <__sinit>
 8004422:	4b31      	ldr	r3, [pc, #196]	; (80044e8 <__swsetup_r+0xe0>)
 8004424:	429c      	cmp	r4, r3
 8004426:	d10f      	bne.n	8004448 <__swsetup_r+0x40>
 8004428:	686c      	ldr	r4, [r5, #4]
 800442a:	230c      	movs	r3, #12
 800442c:	5ee2      	ldrsh	r2, [r4, r3]
 800442e:	b293      	uxth	r3, r2
 8004430:	0719      	lsls	r1, r3, #28
 8004432:	d42d      	bmi.n	8004490 <__swsetup_r+0x88>
 8004434:	06d9      	lsls	r1, r3, #27
 8004436:	d411      	bmi.n	800445c <__swsetup_r+0x54>
 8004438:	2309      	movs	r3, #9
 800443a:	2001      	movs	r0, #1
 800443c:	6033      	str	r3, [r6, #0]
 800443e:	3337      	adds	r3, #55	; 0x37
 8004440:	4313      	orrs	r3, r2
 8004442:	81a3      	strh	r3, [r4, #12]
 8004444:	4240      	negs	r0, r0
 8004446:	bd70      	pop	{r4, r5, r6, pc}
 8004448:	4b28      	ldr	r3, [pc, #160]	; (80044ec <__swsetup_r+0xe4>)
 800444a:	429c      	cmp	r4, r3
 800444c:	d101      	bne.n	8004452 <__swsetup_r+0x4a>
 800444e:	68ac      	ldr	r4, [r5, #8]
 8004450:	e7eb      	b.n	800442a <__swsetup_r+0x22>
 8004452:	4b27      	ldr	r3, [pc, #156]	; (80044f0 <__swsetup_r+0xe8>)
 8004454:	429c      	cmp	r4, r3
 8004456:	d1e8      	bne.n	800442a <__swsetup_r+0x22>
 8004458:	68ec      	ldr	r4, [r5, #12]
 800445a:	e7e6      	b.n	800442a <__swsetup_r+0x22>
 800445c:	075b      	lsls	r3, r3, #29
 800445e:	d513      	bpl.n	8004488 <__swsetup_r+0x80>
 8004460:	6b61      	ldr	r1, [r4, #52]	; 0x34
 8004462:	2900      	cmp	r1, #0
 8004464:	d008      	beq.n	8004478 <__swsetup_r+0x70>
 8004466:	0023      	movs	r3, r4
 8004468:	3344      	adds	r3, #68	; 0x44
 800446a:	4299      	cmp	r1, r3
 800446c:	d002      	beq.n	8004474 <__swsetup_r+0x6c>
 800446e:	0030      	movs	r0, r6
 8004470:	f7ff fe36 	bl	80040e0 <_free_r>
 8004474:	2300      	movs	r3, #0
 8004476:	6363      	str	r3, [r4, #52]	; 0x34
 8004478:	2224      	movs	r2, #36	; 0x24
 800447a:	89a3      	ldrh	r3, [r4, #12]
 800447c:	4393      	bics	r3, r2
 800447e:	81a3      	strh	r3, [r4, #12]
 8004480:	2300      	movs	r3, #0
 8004482:	6063      	str	r3, [r4, #4]
 8004484:	6923      	ldr	r3, [r4, #16]
 8004486:	6023      	str	r3, [r4, #0]
 8004488:	2308      	movs	r3, #8
 800448a:	89a2      	ldrh	r2, [r4, #12]
 800448c:	4313      	orrs	r3, r2
 800448e:	81a3      	strh	r3, [r4, #12]
 8004490:	6923      	ldr	r3, [r4, #16]
 8004492:	2b00      	cmp	r3, #0
 8004494:	d10b      	bne.n	80044ae <__swsetup_r+0xa6>
 8004496:	21a0      	movs	r1, #160	; 0xa0
 8004498:	2280      	movs	r2, #128	; 0x80
 800449a:	89a3      	ldrh	r3, [r4, #12]
 800449c:	0089      	lsls	r1, r1, #2
 800449e:	0092      	lsls	r2, r2, #2
 80044a0:	400b      	ands	r3, r1
 80044a2:	4293      	cmp	r3, r2
 80044a4:	d003      	beq.n	80044ae <__swsetup_r+0xa6>
 80044a6:	0021      	movs	r1, r4
 80044a8:	0030      	movs	r0, r6
 80044aa:	f000 f9d7 	bl	800485c <__smakebuf_r>
 80044ae:	2301      	movs	r3, #1
 80044b0:	89a2      	ldrh	r2, [r4, #12]
 80044b2:	4013      	ands	r3, r2
 80044b4:	d011      	beq.n	80044da <__swsetup_r+0xd2>
 80044b6:	2300      	movs	r3, #0
 80044b8:	60a3      	str	r3, [r4, #8]
 80044ba:	6963      	ldr	r3, [r4, #20]
 80044bc:	425b      	negs	r3, r3
 80044be:	61a3      	str	r3, [r4, #24]
 80044c0:	2000      	movs	r0, #0
 80044c2:	6923      	ldr	r3, [r4, #16]
 80044c4:	4283      	cmp	r3, r0
 80044c6:	d1be      	bne.n	8004446 <__swsetup_r+0x3e>
 80044c8:	230c      	movs	r3, #12
 80044ca:	5ee2      	ldrsh	r2, [r4, r3]
 80044cc:	0613      	lsls	r3, r2, #24
 80044ce:	d5ba      	bpl.n	8004446 <__swsetup_r+0x3e>
 80044d0:	2340      	movs	r3, #64	; 0x40
 80044d2:	4313      	orrs	r3, r2
 80044d4:	81a3      	strh	r3, [r4, #12]
 80044d6:	3801      	subs	r0, #1
 80044d8:	e7b5      	b.n	8004446 <__swsetup_r+0x3e>
 80044da:	0792      	lsls	r2, r2, #30
 80044dc:	d400      	bmi.n	80044e0 <__swsetup_r+0xd8>
 80044de:	6963      	ldr	r3, [r4, #20]
 80044e0:	60a3      	str	r3, [r4, #8]
 80044e2:	e7ed      	b.n	80044c0 <__swsetup_r+0xb8>
 80044e4:	2000000c 	.word	0x2000000c
 80044e8:	080052b0 	.word	0x080052b0
 80044ec:	080052d0 	.word	0x080052d0
 80044f0:	08005290 	.word	0x08005290

080044f4 <__sflush_r>:
 80044f4:	b5f7      	push	{r0, r1, r2, r4, r5, r6, r7, lr}
 80044f6:	898a      	ldrh	r2, [r1, #12]
 80044f8:	0005      	movs	r5, r0
 80044fa:	000c      	movs	r4, r1
 80044fc:	0713      	lsls	r3, r2, #28
 80044fe:	d460      	bmi.n	80045c2 <__sflush_r+0xce>
 8004500:	684b      	ldr	r3, [r1, #4]
 8004502:	2b00      	cmp	r3, #0
 8004504:	dc04      	bgt.n	8004510 <__sflush_r+0x1c>
 8004506:	6c0b      	ldr	r3, [r1, #64]	; 0x40
 8004508:	2b00      	cmp	r3, #0
 800450a:	dc01      	bgt.n	8004510 <__sflush_r+0x1c>
 800450c:	2000      	movs	r0, #0
 800450e:	bdfe      	pop	{r1, r2, r3, r4, r5, r6, r7, pc}
 8004510:	6ae7      	ldr	r7, [r4, #44]	; 0x2c
 8004512:	2f00      	cmp	r7, #0
 8004514:	d0fa      	beq.n	800450c <__sflush_r+0x18>
 8004516:	2300      	movs	r3, #0
 8004518:	682e      	ldr	r6, [r5, #0]
 800451a:	602b      	str	r3, [r5, #0]
 800451c:	2380      	movs	r3, #128	; 0x80
 800451e:	015b      	lsls	r3, r3, #5
 8004520:	6a21      	ldr	r1, [r4, #32]
 8004522:	401a      	ands	r2, r3
 8004524:	d034      	beq.n	8004590 <__sflush_r+0x9c>
 8004526:	6d60      	ldr	r0, [r4, #84]	; 0x54
 8004528:	89a3      	ldrh	r3, [r4, #12]
 800452a:	075b      	lsls	r3, r3, #29
 800452c:	d506      	bpl.n	800453c <__sflush_r+0x48>
 800452e:	6863      	ldr	r3, [r4, #4]
 8004530:	1ac0      	subs	r0, r0, r3
 8004532:	6b63      	ldr	r3, [r4, #52]	; 0x34
 8004534:	2b00      	cmp	r3, #0
 8004536:	d001      	beq.n	800453c <__sflush_r+0x48>
 8004538:	6c23      	ldr	r3, [r4, #64]	; 0x40
 800453a:	1ac0      	subs	r0, r0, r3
 800453c:	0002      	movs	r2, r0
 800453e:	6a21      	ldr	r1, [r4, #32]
 8004540:	2300      	movs	r3, #0
 8004542:	0028      	movs	r0, r5
 8004544:	6ae7      	ldr	r7, [r4, #44]	; 0x2c
 8004546:	47b8      	blx	r7
 8004548:	89a1      	ldrh	r1, [r4, #12]
 800454a:	1c43      	adds	r3, r0, #1
 800454c:	d106      	bne.n	800455c <__sflush_r+0x68>
 800454e:	682b      	ldr	r3, [r5, #0]
 8004550:	2b1d      	cmp	r3, #29
 8004552:	d830      	bhi.n	80045b6 <__sflush_r+0xc2>
 8004554:	4a2b      	ldr	r2, [pc, #172]	; (8004604 <__sflush_r+0x110>)
 8004556:	40da      	lsrs	r2, r3
 8004558:	07d3      	lsls	r3, r2, #31
 800455a:	d52c      	bpl.n	80045b6 <__sflush_r+0xc2>
 800455c:	2300      	movs	r3, #0
 800455e:	6063      	str	r3, [r4, #4]
 8004560:	6923      	ldr	r3, [r4, #16]
 8004562:	6023      	str	r3, [r4, #0]
 8004564:	04cb      	lsls	r3, r1, #19
 8004566:	d505      	bpl.n	8004574 <__sflush_r+0x80>
 8004568:	1c43      	adds	r3, r0, #1
 800456a:	d102      	bne.n	8004572 <__sflush_r+0x7e>
 800456c:	682b      	ldr	r3, [r5, #0]
 800456e:	2b00      	cmp	r3, #0
 8004570:	d100      	bne.n	8004574 <__sflush_r+0x80>
 8004572:	6560      	str	r0, [r4, #84]	; 0x54
 8004574:	6b61      	ldr	r1, [r4, #52]	; 0x34
 8004576:	602e      	str	r6, [r5, #0]
 8004578:	2900      	cmp	r1, #0
 800457a:	d0c7      	beq.n	800450c <__sflush_r+0x18>
 800457c:	0023      	movs	r3, r4
 800457e:	3344      	adds	r3, #68	; 0x44
 8004580:	4299      	cmp	r1, r3
 8004582:	d002      	beq.n	800458a <__sflush_r+0x96>
 8004584:	0028      	movs	r0, r5
 8004586:	f7ff fdab 	bl	80040e0 <_free_r>
 800458a:	2000      	movs	r0, #0
 800458c:	6360      	str	r0, [r4, #52]	; 0x34
 800458e:	e7be      	b.n	800450e <__sflush_r+0x1a>
 8004590:	2301      	movs	r3, #1
 8004592:	0028      	movs	r0, r5
 8004594:	47b8      	blx	r7
 8004596:	1c43      	adds	r3, r0, #1
 8004598:	d1c6      	bne.n	8004528 <__sflush_r+0x34>
 800459a:	682b      	ldr	r3, [r5, #0]
 800459c:	2b00      	cmp	r3, #0
 800459e:	d0c3      	beq.n	8004528 <__sflush_r+0x34>
 80045a0:	2b1d      	cmp	r3, #29
 80045a2:	d001      	beq.n	80045a8 <__sflush_r+0xb4>
 80045a4:	2b16      	cmp	r3, #22
 80045a6:	d101      	bne.n	80045ac <__sflush_r+0xb8>
 80045a8:	602e      	str	r6, [r5, #0]
 80045aa:	e7af      	b.n	800450c <__sflush_r+0x18>
 80045ac:	2340      	movs	r3, #64	; 0x40
 80045ae:	89a2      	ldrh	r2, [r4, #12]
 80045b0:	4313      	orrs	r3, r2
 80045b2:	81a3      	strh	r3, [r4, #12]
 80045b4:	e7ab      	b.n	800450e <__sflush_r+0x1a>
 80045b6:	2340      	movs	r3, #64	; 0x40
 80045b8:	430b      	orrs	r3, r1
 80045ba:	2001      	movs	r0, #1
 80045bc:	81a3      	strh	r3, [r4, #12]
 80045be:	4240      	negs	r0, r0
 80045c0:	e7a5      	b.n	800450e <__sflush_r+0x1a>
 80045c2:	690f      	ldr	r7, [r1, #16]
 80045c4:	2f00      	cmp	r7, #0
 80045c6:	d0a1      	beq.n	800450c <__sflush_r+0x18>
 80045c8:	680b      	ldr	r3, [r1, #0]
 80045ca:	600f      	str	r7, [r1, #0]
 80045cc:	1bdb      	subs	r3, r3, r7
 80045ce:	9301      	str	r3, [sp, #4]
 80045d0:	2300      	movs	r3, #0
 80045d2:	0792      	lsls	r2, r2, #30
 80045d4:	d100      	bne.n	80045d8 <__sflush_r+0xe4>
 80045d6:	694b      	ldr	r3, [r1, #20]
 80045d8:	60a3      	str	r3, [r4, #8]
 80045da:	9b01      	ldr	r3, [sp, #4]
 80045dc:	2b00      	cmp	r3, #0
 80045de:	dc00      	bgt.n	80045e2 <__sflush_r+0xee>
 80045e0:	e794      	b.n	800450c <__sflush_r+0x18>
 80045e2:	9b01      	ldr	r3, [sp, #4]
 80045e4:	003a      	movs	r2, r7
 80045e6:	6a21      	ldr	r1, [r4, #32]
 80045e8:	0028      	movs	r0, r5
 80045ea:	6aa6      	ldr	r6, [r4, #40]	; 0x28
 80045ec:	47b0      	blx	r6
 80045ee:	2800      	cmp	r0, #0
 80045f0:	dc03      	bgt.n	80045fa <__sflush_r+0x106>
 80045f2:	2340      	movs	r3, #64	; 0x40
 80045f4:	89a2      	ldrh	r2, [r4, #12]
 80045f6:	4313      	orrs	r3, r2
 80045f8:	e7df      	b.n	80045ba <__sflush_r+0xc6>
 80045fa:	9b01      	ldr	r3, [sp, #4]
 80045fc:	183f      	adds	r7, r7, r0
 80045fe:	1a1b      	subs	r3, r3, r0
 8004600:	9301      	str	r3, [sp, #4]
 8004602:	e7ea      	b.n	80045da <__sflush_r+0xe6>
 8004604:	20400001 	.word	0x20400001

08004608 <_fflush_r>:
 8004608:	690b      	ldr	r3, [r1, #16]
 800460a:	b570      	push	{r4, r5, r6, lr}
 800460c:	0005      	movs	r5, r0
 800460e:	000c      	movs	r4, r1
 8004610:	2b00      	cmp	r3, #0
 8004612:	d101      	bne.n	8004618 <_fflush_r+0x10>
 8004614:	2000      	movs	r0, #0
 8004616:	bd70      	pop	{r4, r5, r6, pc}
 8004618:	2800      	cmp	r0, #0
 800461a:	d004      	beq.n	8004626 <_fflush_r+0x1e>
 800461c:	6983      	ldr	r3, [r0, #24]
 800461e:	2b00      	cmp	r3, #0
 8004620:	d101      	bne.n	8004626 <_fflush_r+0x1e>
 8004622:	f000 f85f 	bl	80046e4 <__sinit>
 8004626:	4b0b      	ldr	r3, [pc, #44]	; (8004654 <_fflush_r+0x4c>)
 8004628:	429c      	cmp	r4, r3
 800462a:	d109      	bne.n	8004640 <_fflush_r+0x38>
 800462c:	686c      	ldr	r4, [r5, #4]
 800462e:	220c      	movs	r2, #12
 8004630:	5ea3      	ldrsh	r3, [r4, r2]
 8004632:	2b00      	cmp	r3, #0
 8004634:	d0ee      	beq.n	8004614 <_fflush_r+0xc>
 8004636:	0021      	movs	r1, r4
 8004638:	0028      	movs	r0, r5
 800463a:	f7ff ff5b 	bl	80044f4 <__sflush_r>
 800463e:	e7ea      	b.n	8004616 <_fflush_r+0xe>
 8004640:	4b05      	ldr	r3, [pc, #20]	; (8004658 <_fflush_r+0x50>)
 8004642:	429c      	cmp	r4, r3
 8004644:	d101      	bne.n	800464a <_fflush_r+0x42>
 8004646:	68ac      	ldr	r4, [r5, #8]
 8004648:	e7f1      	b.n	800462e <_fflush_r+0x26>
 800464a:	4b04      	ldr	r3, [pc, #16]	; (800465c <_fflush_r+0x54>)
 800464c:	429c      	cmp	r4, r3
 800464e:	d1ee      	bne.n	800462e <_fflush_r+0x26>
 8004650:	68ec      	ldr	r4, [r5, #12]
 8004652:	e7ec      	b.n	800462e <_fflush_r+0x26>
 8004654:	080052b0 	.word	0x080052b0
 8004658:	080052d0 	.word	0x080052d0
 800465c:	08005290 	.word	0x08005290

08004660 <std>:
 8004660:	2300      	movs	r3, #0
 8004662:	b510      	push	{r4, lr}
 8004664:	0004      	movs	r4, r0
 8004666:	6003      	str	r3, [r0, #0]
 8004668:	6043      	str	r3, [r0, #4]
 800466a:	6083      	str	r3, [r0, #8]
 800466c:	8181      	strh	r1, [r0, #12]
 800466e:	6643      	str	r3, [r0, #100]	; 0x64
 8004670:	81c2      	strh	r2, [r0, #14]
 8004672:	6103      	str	r3, [r0, #16]
 8004674:	6143      	str	r3, [r0, #20]
 8004676:	6183      	str	r3, [r0, #24]
 8004678:	0019      	movs	r1, r3
 800467a:	2208      	movs	r2, #8
 800467c:	305c      	adds	r0, #92	; 0x5c
 800467e:	f7ff fd27 	bl	80040d0 <memset>
 8004682:	4b05      	ldr	r3, [pc, #20]	; (8004698 <std+0x38>)
 8004684:	6224      	str	r4, [r4, #32]
 8004686:	6263      	str	r3, [r4, #36]	; 0x24
 8004688:	4b04      	ldr	r3, [pc, #16]	; (800469c <std+0x3c>)
 800468a:	62a3      	str	r3, [r4, #40]	; 0x28
 800468c:	4b04      	ldr	r3, [pc, #16]	; (80046a0 <std+0x40>)
 800468e:	62e3      	str	r3, [r4, #44]	; 0x2c
 8004690:	4b04      	ldr	r3, [pc, #16]	; (80046a4 <std+0x44>)
 8004692:	6323      	str	r3, [r4, #48]	; 0x30
 8004694:	bd10      	pop	{r4, pc}
 8004696:	46c0      	nop			; (mov r8, r8)
 8004698:	08004e51 	.word	0x08004e51
 800469c:	08004e79 	.word	0x08004e79
 80046a0:	08004eb1 	.word	0x08004eb1
 80046a4:	08004edd 	.word	0x08004edd

080046a8 <_cleanup_r>:
 80046a8:	b510      	push	{r4, lr}
 80046aa:	4902      	ldr	r1, [pc, #8]	; (80046b4 <_cleanup_r+0xc>)
 80046ac:	f000 f88c 	bl	80047c8 <_fwalk_reent>
 80046b0:	bd10      	pop	{r4, pc}
 80046b2:	46c0      	nop			; (mov r8, r8)
 80046b4:	08004609 	.word	0x08004609

080046b8 <__sfmoreglue>:
 80046b8:	b570      	push	{r4, r5, r6, lr}
 80046ba:	2568      	movs	r5, #104	; 0x68
 80046bc:	1e4a      	subs	r2, r1, #1
 80046be:	4355      	muls	r5, r2
 80046c0:	000e      	movs	r6, r1
 80046c2:	0029      	movs	r1, r5
 80046c4:	3174      	adds	r1, #116	; 0x74
 80046c6:	f7ff fd55 	bl	8004174 <_malloc_r>
 80046ca:	1e04      	subs	r4, r0, #0
 80046cc:	d008      	beq.n	80046e0 <__sfmoreglue+0x28>
 80046ce:	2100      	movs	r1, #0
 80046d0:	002a      	movs	r2, r5
 80046d2:	6001      	str	r1, [r0, #0]
 80046d4:	6046      	str	r6, [r0, #4]
 80046d6:	300c      	adds	r0, #12
 80046d8:	60a0      	str	r0, [r4, #8]
 80046da:	3268      	adds	r2, #104	; 0x68
 80046dc:	f7ff fcf8 	bl	80040d0 <memset>
 80046e0:	0020      	movs	r0, r4
 80046e2:	bd70      	pop	{r4, r5, r6, pc}

080046e4 <__sinit>:
 80046e4:	6983      	ldr	r3, [r0, #24]
 80046e6:	b513      	push	{r0, r1, r4, lr}
 80046e8:	0004      	movs	r4, r0
 80046ea:	2b00      	cmp	r3, #0
 80046ec:	d128      	bne.n	8004740 <__sinit+0x5c>
 80046ee:	6483      	str	r3, [r0, #72]	; 0x48
 80046f0:	64c3      	str	r3, [r0, #76]	; 0x4c
 80046f2:	6503      	str	r3, [r0, #80]	; 0x50
 80046f4:	4b13      	ldr	r3, [pc, #76]	; (8004744 <__sinit+0x60>)
 80046f6:	4a14      	ldr	r2, [pc, #80]	; (8004748 <__sinit+0x64>)
 80046f8:	681b      	ldr	r3, [r3, #0]
 80046fa:	6282      	str	r2, [r0, #40]	; 0x28
 80046fc:	9301      	str	r3, [sp, #4]
 80046fe:	4298      	cmp	r0, r3
 8004700:	d101      	bne.n	8004706 <__sinit+0x22>
 8004702:	2301      	movs	r3, #1
 8004704:	6183      	str	r3, [r0, #24]
 8004706:	0020      	movs	r0, r4
 8004708:	f000 f820 	bl	800474c <__sfp>
 800470c:	6060      	str	r0, [r4, #4]
 800470e:	0020      	movs	r0, r4
 8004710:	f000 f81c 	bl	800474c <__sfp>
 8004714:	60a0      	str	r0, [r4, #8]
 8004716:	0020      	movs	r0, r4
 8004718:	f000 f818 	bl	800474c <__sfp>
 800471c:	2200      	movs	r2, #0
 800471e:	60e0      	str	r0, [r4, #12]
 8004720:	2104      	movs	r1, #4
 8004722:	6860      	ldr	r0, [r4, #4]
 8004724:	f7ff ff9c 	bl	8004660 <std>
 8004728:	2201      	movs	r2, #1
 800472a:	2109      	movs	r1, #9
 800472c:	68a0      	ldr	r0, [r4, #8]
 800472e:	f7ff ff97 	bl	8004660 <std>
 8004732:	2202      	movs	r2, #2
 8004734:	2112      	movs	r1, #18
 8004736:	68e0      	ldr	r0, [r4, #12]
 8004738:	f7ff ff92 	bl	8004660 <std>
 800473c:	2301      	movs	r3, #1
 800473e:	61a3      	str	r3, [r4, #24]
 8004740:	bd13      	pop	{r0, r1, r4, pc}
 8004742:	46c0      	nop			; (mov r8, r8)
 8004744:	0800528c 	.word	0x0800528c
 8004748:	080046a9 	.word	0x080046a9

0800474c <__sfp>:
 800474c:	b5f8      	push	{r3, r4, r5, r6, r7, lr}
 800474e:	4b1c      	ldr	r3, [pc, #112]	; (80047c0 <__sfp+0x74>)
 8004750:	0007      	movs	r7, r0
 8004752:	681e      	ldr	r6, [r3, #0]
 8004754:	69b3      	ldr	r3, [r6, #24]
 8004756:	2b00      	cmp	r3, #0
 8004758:	d102      	bne.n	8004760 <__sfp+0x14>
 800475a:	0030      	movs	r0, r6
 800475c:	f7ff ffc2 	bl	80046e4 <__sinit>
 8004760:	3648      	adds	r6, #72	; 0x48
 8004762:	68b4      	ldr	r4, [r6, #8]
 8004764:	6873      	ldr	r3, [r6, #4]
 8004766:	3b01      	subs	r3, #1
 8004768:	d504      	bpl.n	8004774 <__sfp+0x28>
 800476a:	6833      	ldr	r3, [r6, #0]
 800476c:	2b00      	cmp	r3, #0
 800476e:	d007      	beq.n	8004780 <__sfp+0x34>
 8004770:	6836      	ldr	r6, [r6, #0]
 8004772:	e7f6      	b.n	8004762 <__sfp+0x16>
 8004774:	220c      	movs	r2, #12
 8004776:	5ea5      	ldrsh	r5, [r4, r2]
 8004778:	2d00      	cmp	r5, #0
 800477a:	d00d      	beq.n	8004798 <__sfp+0x4c>
 800477c:	3468      	adds	r4, #104	; 0x68
 800477e:	e7f2      	b.n	8004766 <__sfp+0x1a>
 8004780:	2104      	movs	r1, #4
 8004782:	0038      	movs	r0, r7
 8004784:	f7ff ff98 	bl	80046b8 <__sfmoreglue>
 8004788:	6030      	str	r0, [r6, #0]
 800478a:	2800      	cmp	r0, #0
 800478c:	d1f0      	bne.n	8004770 <__sfp+0x24>
 800478e:	230c      	movs	r3, #12
 8004790:	0004      	movs	r4, r0
 8004792:	603b      	str	r3, [r7, #0]
 8004794:	0020      	movs	r0, r4
 8004796:	bdf8      	pop	{r3, r4, r5, r6, r7, pc}
 8004798:	0020      	movs	r0, r4
 800479a:	4b0a      	ldr	r3, [pc, #40]	; (80047c4 <__sfp+0x78>)
 800479c:	6665      	str	r5, [r4, #100]	; 0x64
 800479e:	6025      	str	r5, [r4, #0]
 80047a0:	6065      	str	r5, [r4, #4]
 80047a2:	60a5      	str	r5, [r4, #8]
 80047a4:	60e3      	str	r3, [r4, #12]
 80047a6:	6125      	str	r5, [r4, #16]
 80047a8:	6165      	str	r5, [r4, #20]
 80047aa:	61a5      	str	r5, [r4, #24]
 80047ac:	2208      	movs	r2, #8
 80047ae:	0029      	movs	r1, r5
 80047b0:	305c      	adds	r0, #92	; 0x5c
 80047b2:	f7ff fc8d 	bl	80040d0 <memset>
 80047b6:	6365      	str	r5, [r4, #52]	; 0x34
 80047b8:	63a5      	str	r5, [r4, #56]	; 0x38
 80047ba:	64a5      	str	r5, [r4, #72]	; 0x48
 80047bc:	64e5      	str	r5, [r4, #76]	; 0x4c
 80047be:	e7e9      	b.n	8004794 <__sfp+0x48>
 80047c0:	0800528c 	.word	0x0800528c
 80047c4:	ffff0001 	.word	0xffff0001

080047c8 <_fwalk_reent>:
 80047c8:	b5f7      	push	{r0, r1, r2, r4, r5, r6, r7, lr}
 80047ca:	0004      	movs	r4, r0
 80047cc:	0007      	movs	r7, r0
 80047ce:	2600      	movs	r6, #0
 80047d0:	9101      	str	r1, [sp, #4]
 80047d2:	3448      	adds	r4, #72	; 0x48
 80047d4:	2c00      	cmp	r4, #0
 80047d6:	d101      	bne.n	80047dc <_fwalk_reent+0x14>
 80047d8:	0030      	movs	r0, r6
 80047da:	bdfe      	pop	{r1, r2, r3, r4, r5, r6, r7, pc}
 80047dc:	6863      	ldr	r3, [r4, #4]
 80047de:	68a5      	ldr	r5, [r4, #8]
 80047e0:	9300      	str	r3, [sp, #0]
 80047e2:	9b00      	ldr	r3, [sp, #0]
 80047e4:	3b01      	subs	r3, #1
 80047e6:	9300      	str	r3, [sp, #0]
 80047e8:	d501      	bpl.n	80047ee <_fwalk_reent+0x26>
 80047ea:	6824      	ldr	r4, [r4, #0]
 80047ec:	e7f2      	b.n	80047d4 <_fwalk_reent+0xc>
 80047ee:	89ab      	ldrh	r3, [r5, #12]
 80047f0:	2b01      	cmp	r3, #1
 80047f2:	d908      	bls.n	8004806 <_fwalk_reent+0x3e>
 80047f4:	220e      	movs	r2, #14
 80047f6:	5eab      	ldrsh	r3, [r5, r2]
 80047f8:	3301      	adds	r3, #1
 80047fa:	d004      	beq.n	8004806 <_fwalk_reent+0x3e>
 80047fc:	0029      	movs	r1, r5
 80047fe:	0038      	movs	r0, r7
 8004800:	9b01      	ldr	r3, [sp, #4]
 8004802:	4798      	blx	r3
 8004804:	4306      	orrs	r6, r0
 8004806:	3568      	adds	r5, #104	; 0x68
 8004808:	e7eb      	b.n	80047e2 <_fwalk_reent+0x1a>
	...

0800480c <__swhatbuf_r>:
 800480c:	b570      	push	{r4, r5, r6, lr}
 800480e:	000e      	movs	r6, r1
 8004810:	001d      	movs	r5, r3
 8004812:	230e      	movs	r3, #14
 8004814:	5ec9      	ldrsh	r1, [r1, r3]
 8004816:	b096      	sub	sp, #88	; 0x58
 8004818:	0014      	movs	r4, r2
 800481a:	2900      	cmp	r1, #0
 800481c:	da07      	bge.n	800482e <__swhatbuf_r+0x22>
 800481e:	2300      	movs	r3, #0
 8004820:	602b      	str	r3, [r5, #0]
 8004822:	89b3      	ldrh	r3, [r6, #12]
 8004824:	061b      	lsls	r3, r3, #24
 8004826:	d411      	bmi.n	800484c <__swhatbuf_r+0x40>
 8004828:	2380      	movs	r3, #128	; 0x80
 800482a:	00db      	lsls	r3, r3, #3
 800482c:	e00f      	b.n	800484e <__swhatbuf_r+0x42>
 800482e:	466a      	mov	r2, sp
 8004830:	f000 fb80 	bl	8004f34 <_fstat_r>
 8004834:	2800      	cmp	r0, #0
 8004836:	dbf2      	blt.n	800481e <__swhatbuf_r+0x12>
 8004838:	22f0      	movs	r2, #240	; 0xf0
 800483a:	9b01      	ldr	r3, [sp, #4]
 800483c:	0212      	lsls	r2, r2, #8
 800483e:	4013      	ands	r3, r2
 8004840:	4a05      	ldr	r2, [pc, #20]	; (8004858 <__swhatbuf_r+0x4c>)
 8004842:	189b      	adds	r3, r3, r2
 8004844:	425a      	negs	r2, r3
 8004846:	4153      	adcs	r3, r2
 8004848:	602b      	str	r3, [r5, #0]
 800484a:	e7ed      	b.n	8004828 <__swhatbuf_r+0x1c>
 800484c:	2340      	movs	r3, #64	; 0x40
 800484e:	2000      	movs	r0, #0
 8004850:	6023      	str	r3, [r4, #0]
 8004852:	b016      	add	sp, #88	; 0x58
 8004854:	bd70      	pop	{r4, r5, r6, pc}
 8004856:	46c0      	nop			; (mov r8, r8)
 8004858:	ffffe000 	.word	0xffffe000

0800485c <__smakebuf_r>:
 800485c:	b5f7      	push	{r0, r1, r2, r4, r5, r6, r7, lr}
 800485e:	2602      	movs	r6, #2
 8004860:	898b      	ldrh	r3, [r1, #12]
 8004862:	0005      	movs	r5, r0
 8004864:	000c      	movs	r4, r1
 8004866:	4233      	tst	r3, r6
 8004868:	d006      	beq.n	8004878 <__smakebuf_r+0x1c>
 800486a:	0023      	movs	r3, r4
 800486c:	3347      	adds	r3, #71	; 0x47
 800486e:	6023      	str	r3, [r4, #0]
 8004870:	6123      	str	r3, [r4, #16]
 8004872:	2301      	movs	r3, #1
 8004874:	6163      	str	r3, [r4, #20]
 8004876:	bdf7      	pop	{r0, r1, r2, r4, r5, r6, r7, pc}
 8004878:	ab01      	add	r3, sp, #4
 800487a:	466a      	mov	r2, sp
 800487c:	f7ff ffc6 	bl	800480c <__swhatbuf_r>
 8004880:	9900      	ldr	r1, [sp, #0]
 8004882:	0007      	movs	r7, r0
 8004884:	0028      	movs	r0, r5
 8004886:	f7ff fc75 	bl	8004174 <_malloc_r>
 800488a:	2800      	cmp	r0, #0
 800488c:	d108      	bne.n	80048a0 <__smakebuf_r+0x44>
 800488e:	220c      	movs	r2, #12
 8004890:	5ea3      	ldrsh	r3, [r4, r2]
 8004892:	059a      	lsls	r2, r3, #22
 8004894:	d4ef      	bmi.n	8004876 <__smakebuf_r+0x1a>
 8004896:	2203      	movs	r2, #3
 8004898:	4393      	bics	r3, r2
 800489a:	431e      	orrs	r6, r3
 800489c:	81a6      	strh	r6, [r4, #12]
 800489e:	e7e4      	b.n	800486a <__smakebuf_r+0xe>
 80048a0:	4b0f      	ldr	r3, [pc, #60]	; (80048e0 <__smakebuf_r+0x84>)
 80048a2:	62ab      	str	r3, [r5, #40]	; 0x28
 80048a4:	2380      	movs	r3, #128	; 0x80
 80048a6:	89a2      	ldrh	r2, [r4, #12]
 80048a8:	6020      	str	r0, [r4, #0]
 80048aa:	4313      	orrs	r3, r2
 80048ac:	81a3      	strh	r3, [r4, #12]
 80048ae:	9b00      	ldr	r3, [sp, #0]
 80048b0:	6120      	str	r0, [r4, #16]
 80048b2:	6163      	str	r3, [r4, #20]
 80048b4:	9b01      	ldr	r3, [sp, #4]
 80048b6:	2b00      	cmp	r3, #0
 80048b8:	d00d      	beq.n	80048d6 <__smakebuf_r+0x7a>
 80048ba:	230e      	movs	r3, #14
 80048bc:	5ee1      	ldrsh	r1, [r4, r3]
 80048be:	0028      	movs	r0, r5
 80048c0:	f000 fb4a 	bl	8004f58 <_isatty_r>
 80048c4:	2800      	cmp	r0, #0
 80048c6:	d006      	beq.n	80048d6 <__smakebuf_r+0x7a>
 80048c8:	2203      	movs	r2, #3
 80048ca:	89a3      	ldrh	r3, [r4, #12]
 80048cc:	4393      	bics	r3, r2
 80048ce:	001a      	movs	r2, r3
 80048d0:	2301      	movs	r3, #1
 80048d2:	4313      	orrs	r3, r2
 80048d4:	81a3      	strh	r3, [r4, #12]
 80048d6:	89a0      	ldrh	r0, [r4, #12]
 80048d8:	4338      	orrs	r0, r7
 80048da:	81a0      	strh	r0, [r4, #12]
 80048dc:	e7cb      	b.n	8004876 <__smakebuf_r+0x1a>
 80048de:	46c0      	nop			; (mov r8, r8)
 80048e0:	080046a9 	.word	0x080046a9

080048e4 <__malloc_lock>:
 80048e4:	4770      	bx	lr

080048e6 <__malloc_unlock>:
 80048e6:	4770      	bx	lr

080048e8 <__sfputc_r>:
 80048e8:	6893      	ldr	r3, [r2, #8]
 80048ea:	b510      	push	{r4, lr}
 80048ec:	3b01      	subs	r3, #1
 80048ee:	6093      	str	r3, [r2, #8]
 80048f0:	2b00      	cmp	r3, #0
 80048f2:	da04      	bge.n	80048fe <__sfputc_r+0x16>
 80048f4:	6994      	ldr	r4, [r2, #24]
 80048f6:	42a3      	cmp	r3, r4
 80048f8:	db07      	blt.n	800490a <__sfputc_r+0x22>
 80048fa:	290a      	cmp	r1, #10
 80048fc:	d005      	beq.n	800490a <__sfputc_r+0x22>
 80048fe:	6813      	ldr	r3, [r2, #0]
 8004900:	1c58      	adds	r0, r3, #1
 8004902:	6010      	str	r0, [r2, #0]
 8004904:	7019      	strb	r1, [r3, #0]
 8004906:	0008      	movs	r0, r1
 8004908:	bd10      	pop	{r4, pc}
 800490a:	f7ff fd27 	bl	800435c <__swbuf_r>
 800490e:	0001      	movs	r1, r0
 8004910:	e7f9      	b.n	8004906 <__sfputc_r+0x1e>

08004912 <__sfputs_r>:
 8004912:	b5f8      	push	{r3, r4, r5, r6, r7, lr}
 8004914:	0006      	movs	r6, r0
 8004916:	000f      	movs	r7, r1
 8004918:	0014      	movs	r4, r2
 800491a:	18d5      	adds	r5, r2, r3
 800491c:	42ac      	cmp	r4, r5
 800491e:	d101      	bne.n	8004924 <__sfputs_r+0x12>
 8004920:	2000      	movs	r0, #0
 8004922:	e007      	b.n	8004934 <__sfputs_r+0x22>
 8004924:	7821      	ldrb	r1, [r4, #0]
 8004926:	003a      	movs	r2, r7
 8004928:	0030      	movs	r0, r6
 800492a:	f7ff ffdd 	bl	80048e8 <__sfputc_r>
 800492e:	3401      	adds	r4, #1
 8004930:	1c43      	adds	r3, r0, #1
 8004932:	d1f3      	bne.n	800491c <__sfputs_r+0xa>
 8004934:	bdf8      	pop	{r3, r4, r5, r6, r7, pc}
	...

08004938 <_vfiprintf_r>:
 8004938:	b5f0      	push	{r4, r5, r6, r7, lr}
 800493a:	b0a1      	sub	sp, #132	; 0x84
 800493c:	9003      	str	r0, [sp, #12]
 800493e:	000f      	movs	r7, r1
 8004940:	0016      	movs	r6, r2
 8004942:	001d      	movs	r5, r3
 8004944:	2800      	cmp	r0, #0
 8004946:	d005      	beq.n	8004954 <_vfiprintf_r+0x1c>
 8004948:	6983      	ldr	r3, [r0, #24]
 800494a:	9305      	str	r3, [sp, #20]
 800494c:	2b00      	cmp	r3, #0
 800494e:	d101      	bne.n	8004954 <_vfiprintf_r+0x1c>
 8004950:	f7ff fec8 	bl	80046e4 <__sinit>
 8004954:	4b7b      	ldr	r3, [pc, #492]	; (8004b44 <_vfiprintf_r+0x20c>)
 8004956:	429f      	cmp	r7, r3
 8004958:	d15c      	bne.n	8004a14 <_vfiprintf_r+0xdc>
 800495a:	9b03      	ldr	r3, [sp, #12]
 800495c:	685f      	ldr	r7, [r3, #4]
 800495e:	89bb      	ldrh	r3, [r7, #12]
 8004960:	071b      	lsls	r3, r3, #28
 8004962:	d563      	bpl.n	8004a2c <_vfiprintf_r+0xf4>
 8004964:	693b      	ldr	r3, [r7, #16]
 8004966:	2b00      	cmp	r3, #0
 8004968:	d060      	beq.n	8004a2c <_vfiprintf_r+0xf4>
 800496a:	2300      	movs	r3, #0
 800496c:	ac08      	add	r4, sp, #32
 800496e:	6163      	str	r3, [r4, #20]
 8004970:	3320      	adds	r3, #32
 8004972:	7663      	strb	r3, [r4, #25]
 8004974:	3310      	adds	r3, #16
 8004976:	76a3      	strb	r3, [r4, #26]
 8004978:	9507      	str	r5, [sp, #28]
 800497a:	0035      	movs	r5, r6
 800497c:	782b      	ldrb	r3, [r5, #0]
 800497e:	2b00      	cmp	r3, #0
 8004980:	d001      	beq.n	8004986 <_vfiprintf_r+0x4e>
 8004982:	2b25      	cmp	r3, #37	; 0x25
 8004984:	d15c      	bne.n	8004a40 <_vfiprintf_r+0x108>
 8004986:	1bab      	subs	r3, r5, r6
 8004988:	9305      	str	r3, [sp, #20]
 800498a:	d00c      	beq.n	80049a6 <_vfiprintf_r+0x6e>
 800498c:	0032      	movs	r2, r6
 800498e:	0039      	movs	r1, r7
 8004990:	9803      	ldr	r0, [sp, #12]
 8004992:	f7ff ffbe 	bl	8004912 <__sfputs_r>
 8004996:	1c43      	adds	r3, r0, #1
 8004998:	d100      	bne.n	800499c <_vfiprintf_r+0x64>
 800499a:	e0c4      	b.n	8004b26 <_vfiprintf_r+0x1ee>
 800499c:	6962      	ldr	r2, [r4, #20]
 800499e:	9b05      	ldr	r3, [sp, #20]
 80049a0:	4694      	mov	ip, r2
 80049a2:	4463      	add	r3, ip
 80049a4:	6163      	str	r3, [r4, #20]
 80049a6:	782b      	ldrb	r3, [r5, #0]
 80049a8:	2b00      	cmp	r3, #0
 80049aa:	d100      	bne.n	80049ae <_vfiprintf_r+0x76>
 80049ac:	e0bb      	b.n	8004b26 <_vfiprintf_r+0x1ee>
 80049ae:	2201      	movs	r2, #1
 80049b0:	2300      	movs	r3, #0
 80049b2:	4252      	negs	r2, r2
 80049b4:	6062      	str	r2, [r4, #4]
 80049b6:	a904      	add	r1, sp, #16
 80049b8:	3254      	adds	r2, #84	; 0x54
 80049ba:	1852      	adds	r2, r2, r1
 80049bc:	1c6e      	adds	r6, r5, #1
 80049be:	6023      	str	r3, [r4, #0]
 80049c0:	60e3      	str	r3, [r4, #12]
 80049c2:	60a3      	str	r3, [r4, #8]
 80049c4:	7013      	strb	r3, [r2, #0]
 80049c6:	65a3      	str	r3, [r4, #88]	; 0x58
 80049c8:	7831      	ldrb	r1, [r6, #0]
 80049ca:	2205      	movs	r2, #5
 80049cc:	485e      	ldr	r0, [pc, #376]	; (8004b48 <_vfiprintf_r+0x210>)
 80049ce:	f000 fae9 	bl	8004fa4 <memchr>
 80049d2:	1c75      	adds	r5, r6, #1
 80049d4:	2800      	cmp	r0, #0
 80049d6:	d135      	bne.n	8004a44 <_vfiprintf_r+0x10c>
 80049d8:	6822      	ldr	r2, [r4, #0]
 80049da:	06d3      	lsls	r3, r2, #27
 80049dc:	d504      	bpl.n	80049e8 <_vfiprintf_r+0xb0>
 80049de:	2353      	movs	r3, #83	; 0x53
 80049e0:	a904      	add	r1, sp, #16
 80049e2:	185b      	adds	r3, r3, r1
 80049e4:	2120      	movs	r1, #32
 80049e6:	7019      	strb	r1, [r3, #0]
 80049e8:	0713      	lsls	r3, r2, #28
 80049ea:	d504      	bpl.n	80049f6 <_vfiprintf_r+0xbe>
 80049ec:	2353      	movs	r3, #83	; 0x53
 80049ee:	a904      	add	r1, sp, #16
 80049f0:	185b      	adds	r3, r3, r1
 80049f2:	212b      	movs	r1, #43	; 0x2b
 80049f4:	7019      	strb	r1, [r3, #0]
 80049f6:	7833      	ldrb	r3, [r6, #0]
 80049f8:	2b2a      	cmp	r3, #42	; 0x2a
 80049fa:	d02c      	beq.n	8004a56 <_vfiprintf_r+0x11e>
 80049fc:	0035      	movs	r5, r6
 80049fe:	2100      	movs	r1, #0
 8004a00:	200a      	movs	r0, #10
 8004a02:	68e3      	ldr	r3, [r4, #12]
 8004a04:	782a      	ldrb	r2, [r5, #0]
 8004a06:	1c6e      	adds	r6, r5, #1
 8004a08:	3a30      	subs	r2, #48	; 0x30
 8004a0a:	2a09      	cmp	r2, #9
 8004a0c:	d964      	bls.n	8004ad8 <_vfiprintf_r+0x1a0>
 8004a0e:	2900      	cmp	r1, #0
 8004a10:	d02e      	beq.n	8004a70 <_vfiprintf_r+0x138>
 8004a12:	e026      	b.n	8004a62 <_vfiprintf_r+0x12a>
 8004a14:	4b4d      	ldr	r3, [pc, #308]	; (8004b4c <_vfiprintf_r+0x214>)
 8004a16:	429f      	cmp	r7, r3
 8004a18:	d102      	bne.n	8004a20 <_vfiprintf_r+0xe8>
 8004a1a:	9b03      	ldr	r3, [sp, #12]
 8004a1c:	689f      	ldr	r7, [r3, #8]
 8004a1e:	e79e      	b.n	800495e <_vfiprintf_r+0x26>
 8004a20:	4b4b      	ldr	r3, [pc, #300]	; (8004b50 <_vfiprintf_r+0x218>)
 8004a22:	429f      	cmp	r7, r3
 8004a24:	d19b      	bne.n	800495e <_vfiprintf_r+0x26>
 8004a26:	9b03      	ldr	r3, [sp, #12]
 8004a28:	68df      	ldr	r7, [r3, #12]
 8004a2a:	e798      	b.n	800495e <_vfiprintf_r+0x26>
 8004a2c:	0039      	movs	r1, r7
 8004a2e:	9803      	ldr	r0, [sp, #12]
 8004a30:	f7ff fcea 	bl	8004408 <__swsetup_r>
 8004a34:	2800      	cmp	r0, #0
 8004a36:	d098      	beq.n	800496a <_vfiprintf_r+0x32>
 8004a38:	2001      	movs	r0, #1
 8004a3a:	4240      	negs	r0, r0
 8004a3c:	b021      	add	sp, #132	; 0x84
 8004a3e:	bdf0      	pop	{r4, r5, r6, r7, pc}
 8004a40:	3501      	adds	r5, #1
 8004a42:	e79b      	b.n	800497c <_vfiprintf_r+0x44>
 8004a44:	4b40      	ldr	r3, [pc, #256]	; (8004b48 <_vfiprintf_r+0x210>)
 8004a46:	6822      	ldr	r2, [r4, #0]
 8004a48:	1ac0      	subs	r0, r0, r3
 8004a4a:	2301      	movs	r3, #1
 8004a4c:	4083      	lsls	r3, r0
 8004a4e:	4313      	orrs	r3, r2
 8004a50:	6023      	str	r3, [r4, #0]
 8004a52:	002e      	movs	r6, r5
 8004a54:	e7b8      	b.n	80049c8 <_vfiprintf_r+0x90>
 8004a56:	9b07      	ldr	r3, [sp, #28]
 8004a58:	1d19      	adds	r1, r3, #4
 8004a5a:	681b      	ldr	r3, [r3, #0]
 8004a5c:	9107      	str	r1, [sp, #28]
 8004a5e:	2b00      	cmp	r3, #0
 8004a60:	db01      	blt.n	8004a66 <_vfiprintf_r+0x12e>
 8004a62:	930b      	str	r3, [sp, #44]	; 0x2c
 8004a64:	e004      	b.n	8004a70 <_vfiprintf_r+0x138>
 8004a66:	425b      	negs	r3, r3
 8004a68:	60e3      	str	r3, [r4, #12]
 8004a6a:	2302      	movs	r3, #2
 8004a6c:	4313      	orrs	r3, r2
 8004a6e:	6023      	str	r3, [r4, #0]
 8004a70:	782b      	ldrb	r3, [r5, #0]
 8004a72:	2b2e      	cmp	r3, #46	; 0x2e
 8004a74:	d10a      	bne.n	8004a8c <_vfiprintf_r+0x154>
 8004a76:	786b      	ldrb	r3, [r5, #1]
 8004a78:	2b2a      	cmp	r3, #42	; 0x2a
 8004a7a:	d135      	bne.n	8004ae8 <_vfiprintf_r+0x1b0>
 8004a7c:	9b07      	ldr	r3, [sp, #28]
 8004a7e:	3502      	adds	r5, #2
 8004a80:	1d1a      	adds	r2, r3, #4
 8004a82:	681b      	ldr	r3, [r3, #0]
 8004a84:	9207      	str	r2, [sp, #28]
 8004a86:	2b00      	cmp	r3, #0
 8004a88:	db2b      	blt.n	8004ae2 <_vfiprintf_r+0x1aa>
 8004a8a:	9309      	str	r3, [sp, #36]	; 0x24
 8004a8c:	4e31      	ldr	r6, [pc, #196]	; (8004b54 <_vfiprintf_r+0x21c>)
 8004a8e:	7829      	ldrb	r1, [r5, #0]
 8004a90:	2203      	movs	r2, #3
 8004a92:	0030      	movs	r0, r6
 8004a94:	f000 fa86 	bl	8004fa4 <memchr>
 8004a98:	2800      	cmp	r0, #0
 8004a9a:	d006      	beq.n	8004aaa <_vfiprintf_r+0x172>
 8004a9c:	2340      	movs	r3, #64	; 0x40
 8004a9e:	1b80      	subs	r0, r0, r6
 8004aa0:	4083      	lsls	r3, r0
 8004aa2:	6822      	ldr	r2, [r4, #0]
 8004aa4:	3501      	adds	r5, #1
 8004aa6:	4313      	orrs	r3, r2
 8004aa8:	6023      	str	r3, [r4, #0]
 8004aaa:	7829      	ldrb	r1, [r5, #0]
 8004aac:	2206      	movs	r2, #6
 8004aae:	482a      	ldr	r0, [pc, #168]	; (8004b58 <_vfiprintf_r+0x220>)
 8004ab0:	1c6e      	adds	r6, r5, #1
 8004ab2:	7621      	strb	r1, [r4, #24]
 8004ab4:	f000 fa76 	bl	8004fa4 <memchr>
 8004ab8:	2800      	cmp	r0, #0
 8004aba:	d03a      	beq.n	8004b32 <_vfiprintf_r+0x1fa>
 8004abc:	4b27      	ldr	r3, [pc, #156]	; (8004b5c <_vfiprintf_r+0x224>)
 8004abe:	2b00      	cmp	r3, #0
 8004ac0:	d125      	bne.n	8004b0e <_vfiprintf_r+0x1d6>
 8004ac2:	2207      	movs	r2, #7
 8004ac4:	9b07      	ldr	r3, [sp, #28]
 8004ac6:	3307      	adds	r3, #7
 8004ac8:	4393      	bics	r3, r2
 8004aca:	3308      	adds	r3, #8
 8004acc:	9307      	str	r3, [sp, #28]
 8004ace:	6963      	ldr	r3, [r4, #20]
 8004ad0:	9a04      	ldr	r2, [sp, #16]
 8004ad2:	189b      	adds	r3, r3, r2
 8004ad4:	6163      	str	r3, [r4, #20]
 8004ad6:	e750      	b.n	800497a <_vfiprintf_r+0x42>
 8004ad8:	4343      	muls	r3, r0
 8004ada:	2101      	movs	r1, #1
 8004adc:	189b      	adds	r3, r3, r2
 8004ade:	0035      	movs	r5, r6
 8004ae0:	e790      	b.n	8004a04 <_vfiprintf_r+0xcc>
 8004ae2:	2301      	movs	r3, #1
 8004ae4:	425b      	negs	r3, r3
 8004ae6:	e7d0      	b.n	8004a8a <_vfiprintf_r+0x152>
 8004ae8:	2300      	movs	r3, #0
 8004aea:	200a      	movs	r0, #10
 8004aec:	001a      	movs	r2, r3
 8004aee:	3501      	adds	r5, #1
 8004af0:	6063      	str	r3, [r4, #4]
 8004af2:	7829      	ldrb	r1, [r5, #0]
 8004af4:	1c6e      	adds	r6, r5, #1
 8004af6:	3930      	subs	r1, #48	; 0x30
 8004af8:	2909      	cmp	r1, #9
 8004afa:	d903      	bls.n	8004b04 <_vfiprintf_r+0x1cc>
 8004afc:	2b00      	cmp	r3, #0
 8004afe:	d0c5      	beq.n	8004a8c <_vfiprintf_r+0x154>
 8004b00:	9209      	str	r2, [sp, #36]	; 0x24
 8004b02:	e7c3      	b.n	8004a8c <_vfiprintf_r+0x154>
 8004b04:	4342      	muls	r2, r0
 8004b06:	2301      	movs	r3, #1
 8004b08:	1852      	adds	r2, r2, r1
 8004b0a:	0035      	movs	r5, r6
 8004b0c:	e7f1      	b.n	8004af2 <_vfiprintf_r+0x1ba>
 8004b0e:	ab07      	add	r3, sp, #28
 8004b10:	9300      	str	r3, [sp, #0]
 8004b12:	003a      	movs	r2, r7
 8004b14:	4b12      	ldr	r3, [pc, #72]	; (8004b60 <_vfiprintf_r+0x228>)
 8004b16:	0021      	movs	r1, r4
 8004b18:	9803      	ldr	r0, [sp, #12]
 8004b1a:	e000      	b.n	8004b1e <_vfiprintf_r+0x1e6>
 8004b1c:	bf00      	nop
 8004b1e:	9004      	str	r0, [sp, #16]
 8004b20:	9b04      	ldr	r3, [sp, #16]
 8004b22:	3301      	adds	r3, #1
 8004b24:	d1d3      	bne.n	8004ace <_vfiprintf_r+0x196>
 8004b26:	89bb      	ldrh	r3, [r7, #12]
 8004b28:	065b      	lsls	r3, r3, #25
 8004b2a:	d500      	bpl.n	8004b2e <_vfiprintf_r+0x1f6>
 8004b2c:	e784      	b.n	8004a38 <_vfiprintf_r+0x100>
 8004b2e:	980d      	ldr	r0, [sp, #52]	; 0x34
 8004b30:	e784      	b.n	8004a3c <_vfiprintf_r+0x104>
 8004b32:	ab07      	add	r3, sp, #28
 8004b34:	9300      	str	r3, [sp, #0]
 8004b36:	003a      	movs	r2, r7
 8004b38:	4b09      	ldr	r3, [pc, #36]	; (8004b60 <_vfiprintf_r+0x228>)
 8004b3a:	0021      	movs	r1, r4
 8004b3c:	9803      	ldr	r0, [sp, #12]
 8004b3e:	f000 f87f 	bl	8004c40 <_printf_i>
 8004b42:	e7ec      	b.n	8004b1e <_vfiprintf_r+0x1e6>
 8004b44:	080052b0 	.word	0x080052b0
 8004b48:	080052f0 	.word	0x080052f0
 8004b4c:	080052d0 	.word	0x080052d0
 8004b50:	08005290 	.word	0x08005290
 8004b54:	080052f6 	.word	0x080052f6
 8004b58:	080052fa 	.word	0x080052fa
 8004b5c:	00000000 	.word	0x00000000
 8004b60:	08004913 	.word	0x08004913

08004b64 <_printf_common>:
 8004b64:	b5f7      	push	{r0, r1, r2, r4, r5, r6, r7, lr}
 8004b66:	0015      	movs	r5, r2
 8004b68:	9301      	str	r3, [sp, #4]
 8004b6a:	688a      	ldr	r2, [r1, #8]
 8004b6c:	690b      	ldr	r3, [r1, #16]
 8004b6e:	9000      	str	r0, [sp, #0]
 8004b70:	000c      	movs	r4, r1
 8004b72:	4293      	cmp	r3, r2
 8004b74:	da00      	bge.n	8004b78 <_printf_common+0x14>
 8004b76:	0013      	movs	r3, r2
 8004b78:	0022      	movs	r2, r4
 8004b7a:	602b      	str	r3, [r5, #0]
 8004b7c:	3243      	adds	r2, #67	; 0x43
 8004b7e:	7812      	ldrb	r2, [r2, #0]
 8004b80:	2a00      	cmp	r2, #0
 8004b82:	d001      	beq.n	8004b88 <_printf_common+0x24>
 8004b84:	3301      	adds	r3, #1
 8004b86:	602b      	str	r3, [r5, #0]
 8004b88:	6823      	ldr	r3, [r4, #0]
 8004b8a:	069b      	lsls	r3, r3, #26
 8004b8c:	d502      	bpl.n	8004b94 <_printf_common+0x30>
 8004b8e:	682b      	ldr	r3, [r5, #0]
 8004b90:	3302      	adds	r3, #2
 8004b92:	602b      	str	r3, [r5, #0]
 8004b94:	2706      	movs	r7, #6
 8004b96:	6823      	ldr	r3, [r4, #0]
 8004b98:	401f      	ands	r7, r3
 8004b9a:	d027      	beq.n	8004bec <_printf_common+0x88>
 8004b9c:	0023      	movs	r3, r4
 8004b9e:	3343      	adds	r3, #67	; 0x43
 8004ba0:	781b      	ldrb	r3, [r3, #0]
 8004ba2:	1e5a      	subs	r2, r3, #1
 8004ba4:	4193      	sbcs	r3, r2
 8004ba6:	6822      	ldr	r2, [r4, #0]
 8004ba8:	0692      	lsls	r2, r2, #26
 8004baa:	d430      	bmi.n	8004c0e <_printf_common+0xaa>
 8004bac:	0022      	movs	r2, r4
 8004bae:	9901      	ldr	r1, [sp, #4]
 8004bb0:	3243      	adds	r2, #67	; 0x43
 8004bb2:	9800      	ldr	r0, [sp, #0]
 8004bb4:	9e08      	ldr	r6, [sp, #32]
 8004bb6:	47b0      	blx	r6
 8004bb8:	1c43      	adds	r3, r0, #1
 8004bba:	d025      	beq.n	8004c08 <_printf_common+0xa4>
 8004bbc:	2306      	movs	r3, #6
 8004bbe:	6820      	ldr	r0, [r4, #0]
 8004bc0:	682a      	ldr	r2, [r5, #0]
 8004bc2:	68e1      	ldr	r1, [r4, #12]
 8004bc4:	4003      	ands	r3, r0
 8004bc6:	2500      	movs	r5, #0
 8004bc8:	2b04      	cmp	r3, #4
 8004bca:	d103      	bne.n	8004bd4 <_printf_common+0x70>
 8004bcc:	1a8d      	subs	r5, r1, r2
 8004bce:	43eb      	mvns	r3, r5
 8004bd0:	17db      	asrs	r3, r3, #31
 8004bd2:	401d      	ands	r5, r3
 8004bd4:	68a3      	ldr	r3, [r4, #8]
 8004bd6:	6922      	ldr	r2, [r4, #16]
 8004bd8:	4293      	cmp	r3, r2
 8004bda:	dd01      	ble.n	8004be0 <_printf_common+0x7c>
 8004bdc:	1a9b      	subs	r3, r3, r2
 8004bde:	18ed      	adds	r5, r5, r3
 8004be0:	2700      	movs	r7, #0
 8004be2:	42bd      	cmp	r5, r7
 8004be4:	d120      	bne.n	8004c28 <_printf_common+0xc4>
 8004be6:	2000      	movs	r0, #0
 8004be8:	e010      	b.n	8004c0c <_printf_common+0xa8>
 8004bea:	3701      	adds	r7, #1
 8004bec:	68e3      	ldr	r3, [r4, #12]
 8004bee:	682a      	ldr	r2, [r5, #0]
 8004bf0:	1a9b      	subs	r3, r3, r2
 8004bf2:	42bb      	cmp	r3, r7
 8004bf4:	ddd2      	ble.n	8004b9c <_printf_common+0x38>
 8004bf6:	0022      	movs	r2, r4
 8004bf8:	2301      	movs	r3, #1
 8004bfa:	3219      	adds	r2, #25
 8004bfc:	9901      	ldr	r1, [sp, #4]
 8004bfe:	9800      	ldr	r0, [sp, #0]
 8004c00:	9e08      	ldr	r6, [sp, #32]
 8004c02:	47b0      	blx	r6
 8004c04:	1c43      	adds	r3, r0, #1
 8004c06:	d1f0      	bne.n	8004bea <_printf_common+0x86>
 8004c08:	2001      	movs	r0, #1
 8004c0a:	4240      	negs	r0, r0
 8004c0c:	bdfe      	pop	{r1, r2, r3, r4, r5, r6, r7, pc}
 8004c0e:	2030      	movs	r0, #48	; 0x30
 8004c10:	18e1      	adds	r1, r4, r3
 8004c12:	3143      	adds	r1, #67	; 0x43
 8004c14:	7008      	strb	r0, [r1, #0]
 8004c16:	0021      	movs	r1, r4
 8004c18:	1c5a      	adds	r2, r3, #1
 8004c1a:	3145      	adds	r1, #69	; 0x45
 8004c1c:	7809      	ldrb	r1, [r1, #0]
 8004c1e:	18a2      	adds	r2, r4, r2
 8004c20:	3243      	adds	r2, #67	; 0x43
 8004c22:	3302      	adds	r3, #2
 8004c24:	7011      	strb	r1, [r2, #0]
 8004c26:	e7c1      	b.n	8004bac <_printf_common+0x48>
 8004c28:	0022      	movs	r2, r4
 8004c2a:	2301      	movs	r3, #1
 8004c2c:	321a      	adds	r2, #26
 8004c2e:	9901      	ldr	r1, [sp, #4]
 8004c30:	9800      	ldr	r0, [sp, #0]
 8004c32:	9e08      	ldr	r6, [sp, #32]
 8004c34:	47b0      	blx	r6
 8004c36:	1c43      	adds	r3, r0, #1
 8004c38:	d0e6      	beq.n	8004c08 <_printf_common+0xa4>
 8004c3a:	3701      	adds	r7, #1
 8004c3c:	e7d1      	b.n	8004be2 <_printf_common+0x7e>
	...

08004c40 <_printf_i>:
 8004c40:	b5f0      	push	{r4, r5, r6, r7, lr}
 8004c42:	b089      	sub	sp, #36	; 0x24
 8004c44:	9204      	str	r2, [sp, #16]
 8004c46:	000a      	movs	r2, r1
 8004c48:	3243      	adds	r2, #67	; 0x43
 8004c4a:	9305      	str	r3, [sp, #20]
 8004c4c:	9003      	str	r0, [sp, #12]
 8004c4e:	9202      	str	r2, [sp, #8]
 8004c50:	7e0a      	ldrb	r2, [r1, #24]
 8004c52:	000c      	movs	r4, r1
 8004c54:	9b0e      	ldr	r3, [sp, #56]	; 0x38
 8004c56:	2a6e      	cmp	r2, #110	; 0x6e
 8004c58:	d100      	bne.n	8004c5c <_printf_i+0x1c>
 8004c5a:	e086      	b.n	8004d6a <_printf_i+0x12a>
 8004c5c:	d81f      	bhi.n	8004c9e <_printf_i+0x5e>
 8004c5e:	2a63      	cmp	r2, #99	; 0x63
 8004c60:	d033      	beq.n	8004cca <_printf_i+0x8a>
 8004c62:	d808      	bhi.n	8004c76 <_printf_i+0x36>
 8004c64:	2a00      	cmp	r2, #0
 8004c66:	d100      	bne.n	8004c6a <_printf_i+0x2a>
 8004c68:	e08c      	b.n	8004d84 <_printf_i+0x144>
 8004c6a:	2a58      	cmp	r2, #88	; 0x58
 8004c6c:	d04d      	beq.n	8004d0a <_printf_i+0xca>
 8004c6e:	0025      	movs	r5, r4
 8004c70:	3542      	adds	r5, #66	; 0x42
 8004c72:	702a      	strb	r2, [r5, #0]
 8004c74:	e030      	b.n	8004cd8 <_printf_i+0x98>
 8004c76:	2a64      	cmp	r2, #100	; 0x64
 8004c78:	d001      	beq.n	8004c7e <_printf_i+0x3e>
 8004c7a:	2a69      	cmp	r2, #105	; 0x69
 8004c7c:	d1f7      	bne.n	8004c6e <_printf_i+0x2e>
 8004c7e:	6819      	ldr	r1, [r3, #0]
 8004c80:	6825      	ldr	r5, [r4, #0]
 8004c82:	1d0a      	adds	r2, r1, #4
 8004c84:	0628      	lsls	r0, r5, #24
 8004c86:	d529      	bpl.n	8004cdc <_printf_i+0x9c>
 8004c88:	6808      	ldr	r0, [r1, #0]
 8004c8a:	601a      	str	r2, [r3, #0]
 8004c8c:	2800      	cmp	r0, #0
 8004c8e:	da03      	bge.n	8004c98 <_printf_i+0x58>
 8004c90:	232d      	movs	r3, #45	; 0x2d
 8004c92:	9a02      	ldr	r2, [sp, #8]
 8004c94:	4240      	negs	r0, r0
 8004c96:	7013      	strb	r3, [r2, #0]
 8004c98:	4e6b      	ldr	r6, [pc, #428]	; (8004e48 <_printf_i+0x208>)
 8004c9a:	270a      	movs	r7, #10
 8004c9c:	e04f      	b.n	8004d3e <_printf_i+0xfe>
 8004c9e:	2a73      	cmp	r2, #115	; 0x73
 8004ca0:	d074      	beq.n	8004d8c <_printf_i+0x14c>
 8004ca2:	d808      	bhi.n	8004cb6 <_printf_i+0x76>
 8004ca4:	2a6f      	cmp	r2, #111	; 0x6f
 8004ca6:	d01f      	beq.n	8004ce8 <_printf_i+0xa8>
 8004ca8:	2a70      	cmp	r2, #112	; 0x70
 8004caa:	d1e0      	bne.n	8004c6e <_printf_i+0x2e>
 8004cac:	2220      	movs	r2, #32
 8004cae:	6809      	ldr	r1, [r1, #0]
 8004cb0:	430a      	orrs	r2, r1
 8004cb2:	6022      	str	r2, [r4, #0]
 8004cb4:	e003      	b.n	8004cbe <_printf_i+0x7e>
 8004cb6:	2a75      	cmp	r2, #117	; 0x75
 8004cb8:	d016      	beq.n	8004ce8 <_printf_i+0xa8>
 8004cba:	2a78      	cmp	r2, #120	; 0x78
 8004cbc:	d1d7      	bne.n	8004c6e <_printf_i+0x2e>
 8004cbe:	0022      	movs	r2, r4
 8004cc0:	2178      	movs	r1, #120	; 0x78
 8004cc2:	3245      	adds	r2, #69	; 0x45
 8004cc4:	7011      	strb	r1, [r2, #0]
 8004cc6:	4e61      	ldr	r6, [pc, #388]	; (8004e4c <_printf_i+0x20c>)
 8004cc8:	e022      	b.n	8004d10 <_printf_i+0xd0>
 8004cca:	0025      	movs	r5, r4
 8004ccc:	681a      	ldr	r2, [r3, #0]
 8004cce:	3542      	adds	r5, #66	; 0x42
 8004cd0:	1d11      	adds	r1, r2, #4
 8004cd2:	6019      	str	r1, [r3, #0]
 8004cd4:	6813      	ldr	r3, [r2, #0]
 8004cd6:	702b      	strb	r3, [r5, #0]
 8004cd8:	2301      	movs	r3, #1
 8004cda:	e065      	b.n	8004da8 <_printf_i+0x168>
 8004cdc:	6808      	ldr	r0, [r1, #0]
 8004cde:	601a      	str	r2, [r3, #0]
 8004ce0:	0669      	lsls	r1, r5, #25
 8004ce2:	d5d3      	bpl.n	8004c8c <_printf_i+0x4c>
 8004ce4:	b200      	sxth	r0, r0
 8004ce6:	e7d1      	b.n	8004c8c <_printf_i+0x4c>
 8004ce8:	6819      	ldr	r1, [r3, #0]
 8004cea:	6825      	ldr	r5, [r4, #0]
 8004cec:	1d08      	adds	r0, r1, #4
 8004cee:	6018      	str	r0, [r3, #0]
 8004cf0:	6808      	ldr	r0, [r1, #0]
 8004cf2:	062e      	lsls	r6, r5, #24
 8004cf4:	d505      	bpl.n	8004d02 <_printf_i+0xc2>
 8004cf6:	4e54      	ldr	r6, [pc, #336]	; (8004e48 <_printf_i+0x208>)
 8004cf8:	2708      	movs	r7, #8
 8004cfa:	2a6f      	cmp	r2, #111	; 0x6f
 8004cfc:	d01b      	beq.n	8004d36 <_printf_i+0xf6>
 8004cfe:	270a      	movs	r7, #10
 8004d00:	e019      	b.n	8004d36 <_printf_i+0xf6>
 8004d02:	066d      	lsls	r5, r5, #25
 8004d04:	d5f7      	bpl.n	8004cf6 <_printf_i+0xb6>
 8004d06:	b280      	uxth	r0, r0
 8004d08:	e7f5      	b.n	8004cf6 <_printf_i+0xb6>
 8004d0a:	3145      	adds	r1, #69	; 0x45
 8004d0c:	4e4e      	ldr	r6, [pc, #312]	; (8004e48 <_printf_i+0x208>)
 8004d0e:	700a      	strb	r2, [r1, #0]
 8004d10:	6818      	ldr	r0, [r3, #0]
 8004d12:	6822      	ldr	r2, [r4, #0]
 8004d14:	1d01      	adds	r1, r0, #4
 8004d16:	6800      	ldr	r0, [r0, #0]
 8004d18:	6019      	str	r1, [r3, #0]
 8004d1a:	0615      	lsls	r5, r2, #24
 8004d1c:	d521      	bpl.n	8004d62 <_printf_i+0x122>
 8004d1e:	07d3      	lsls	r3, r2, #31
 8004d20:	d502      	bpl.n	8004d28 <_printf_i+0xe8>
 8004d22:	2320      	movs	r3, #32
 8004d24:	431a      	orrs	r2, r3
 8004d26:	6022      	str	r2, [r4, #0]
 8004d28:	2710      	movs	r7, #16
 8004d2a:	2800      	cmp	r0, #0
 8004d2c:	d103      	bne.n	8004d36 <_printf_i+0xf6>
 8004d2e:	2320      	movs	r3, #32
 8004d30:	6822      	ldr	r2, [r4, #0]
 8004d32:	439a      	bics	r2, r3
 8004d34:	6022      	str	r2, [r4, #0]
 8004d36:	0023      	movs	r3, r4
 8004d38:	2200      	movs	r2, #0
 8004d3a:	3343      	adds	r3, #67	; 0x43
 8004d3c:	701a      	strb	r2, [r3, #0]
 8004d3e:	6863      	ldr	r3, [r4, #4]
 8004d40:	60a3      	str	r3, [r4, #8]
 8004d42:	2b00      	cmp	r3, #0
 8004d44:	db58      	blt.n	8004df8 <_printf_i+0x1b8>
 8004d46:	2204      	movs	r2, #4
 8004d48:	6821      	ldr	r1, [r4, #0]
 8004d4a:	4391      	bics	r1, r2
 8004d4c:	6021      	str	r1, [r4, #0]
 8004d4e:	2800      	cmp	r0, #0
 8004d50:	d154      	bne.n	8004dfc <_printf_i+0x1bc>
 8004d52:	9d02      	ldr	r5, [sp, #8]
 8004d54:	2b00      	cmp	r3, #0
 8004d56:	d05a      	beq.n	8004e0e <_printf_i+0x1ce>
 8004d58:	0025      	movs	r5, r4
 8004d5a:	7833      	ldrb	r3, [r6, #0]
 8004d5c:	3542      	adds	r5, #66	; 0x42
 8004d5e:	702b      	strb	r3, [r5, #0]
 8004d60:	e055      	b.n	8004e0e <_printf_i+0x1ce>
 8004d62:	0655      	lsls	r5, r2, #25
 8004d64:	d5db      	bpl.n	8004d1e <_printf_i+0xde>
 8004d66:	b280      	uxth	r0, r0
 8004d68:	e7d9      	b.n	8004d1e <_printf_i+0xde>
 8004d6a:	681a      	ldr	r2, [r3, #0]
 8004d6c:	680d      	ldr	r5, [r1, #0]
 8004d6e:	1d10      	adds	r0, r2, #4
 8004d70:	6949      	ldr	r1, [r1, #20]
 8004d72:	6018      	str	r0, [r3, #0]
 8004d74:	6813      	ldr	r3, [r2, #0]
 8004d76:	062e      	lsls	r6, r5, #24
 8004d78:	d501      	bpl.n	8004d7e <_printf_i+0x13e>
 8004d7a:	6019      	str	r1, [r3, #0]
 8004d7c:	e002      	b.n	8004d84 <_printf_i+0x144>
 8004d7e:	066d      	lsls	r5, r5, #25
 8004d80:	d5fb      	bpl.n	8004d7a <_printf_i+0x13a>
 8004d82:	8019      	strh	r1, [r3, #0]
 8004d84:	2300      	movs	r3, #0
 8004d86:	9d02      	ldr	r5, [sp, #8]
 8004d88:	6123      	str	r3, [r4, #16]
 8004d8a:	e04f      	b.n	8004e2c <_printf_i+0x1ec>
 8004d8c:	681a      	ldr	r2, [r3, #0]
 8004d8e:	1d11      	adds	r1, r2, #4
 8004d90:	6019      	str	r1, [r3, #0]
 8004d92:	6815      	ldr	r5, [r2, #0]
 8004d94:	2100      	movs	r1, #0
 8004d96:	6862      	ldr	r2, [r4, #4]
 8004d98:	0028      	movs	r0, r5
 8004d9a:	f000 f903 	bl	8004fa4 <memchr>
 8004d9e:	2800      	cmp	r0, #0
 8004da0:	d001      	beq.n	8004da6 <_printf_i+0x166>
 8004da2:	1b40      	subs	r0, r0, r5
 8004da4:	6060      	str	r0, [r4, #4]
 8004da6:	6863      	ldr	r3, [r4, #4]
 8004da8:	6123      	str	r3, [r4, #16]
 8004daa:	2300      	movs	r3, #0
 8004dac:	9a02      	ldr	r2, [sp, #8]
 8004dae:	7013      	strb	r3, [r2, #0]
 8004db0:	e03c      	b.n	8004e2c <_printf_i+0x1ec>
 8004db2:	6923      	ldr	r3, [r4, #16]
 8004db4:	002a      	movs	r2, r5
 8004db6:	9904      	ldr	r1, [sp, #16]
 8004db8:	9803      	ldr	r0, [sp, #12]
 8004dba:	9d05      	ldr	r5, [sp, #20]
 8004dbc:	47a8      	blx	r5
 8004dbe:	1c43      	adds	r3, r0, #1
 8004dc0:	d03e      	beq.n	8004e40 <_printf_i+0x200>
 8004dc2:	6823      	ldr	r3, [r4, #0]
 8004dc4:	079b      	lsls	r3, r3, #30
 8004dc6:	d415      	bmi.n	8004df4 <_printf_i+0x1b4>
 8004dc8:	9b07      	ldr	r3, [sp, #28]
 8004dca:	68e0      	ldr	r0, [r4, #12]
 8004dcc:	4298      	cmp	r0, r3
 8004dce:	da39      	bge.n	8004e44 <_printf_i+0x204>
 8004dd0:	0018      	movs	r0, r3
 8004dd2:	e037      	b.n	8004e44 <_printf_i+0x204>
 8004dd4:	0022      	movs	r2, r4
 8004dd6:	2301      	movs	r3, #1
 8004dd8:	3219      	adds	r2, #25
 8004dda:	9904      	ldr	r1, [sp, #16]
 8004ddc:	9803      	ldr	r0, [sp, #12]
 8004dde:	9e05      	ldr	r6, [sp, #20]
 8004de0:	47b0      	blx	r6
 8004de2:	1c43      	adds	r3, r0, #1
 8004de4:	d02c      	beq.n	8004e40 <_printf_i+0x200>
 8004de6:	3501      	adds	r5, #1
 8004de8:	68e3      	ldr	r3, [r4, #12]
 8004dea:	9a07      	ldr	r2, [sp, #28]
 8004dec:	1a9b      	subs	r3, r3, r2
 8004dee:	42ab      	cmp	r3, r5
 8004df0:	dcf0      	bgt.n	8004dd4 <_printf_i+0x194>
 8004df2:	e7e9      	b.n	8004dc8 <_printf_i+0x188>
 8004df4:	2500      	movs	r5, #0
 8004df6:	e7f7      	b.n	8004de8 <_printf_i+0x1a8>
 8004df8:	2800      	cmp	r0, #0
 8004dfa:	d0ad      	beq.n	8004d58 <_printf_i+0x118>
 8004dfc:	9d02      	ldr	r5, [sp, #8]
 8004dfe:	0039      	movs	r1, r7
 8004e00:	f7fb fa1c 	bl	800023c <__aeabi_uidivmod>
 8004e04:	5c73      	ldrb	r3, [r6, r1]
 8004e06:	3d01      	subs	r5, #1
 8004e08:	702b      	strb	r3, [r5, #0]
 8004e0a:	2800      	cmp	r0, #0
 8004e0c:	d1f7      	bne.n	8004dfe <_printf_i+0x1be>
 8004e0e:	2f08      	cmp	r7, #8
 8004e10:	d109      	bne.n	8004e26 <_printf_i+0x1e6>
 8004e12:	6823      	ldr	r3, [r4, #0]
 8004e14:	07db      	lsls	r3, r3, #31
 8004e16:	d506      	bpl.n	8004e26 <_printf_i+0x1e6>
 8004e18:	6863      	ldr	r3, [r4, #4]
 8004e1a:	6922      	ldr	r2, [r4, #16]
 8004e1c:	4293      	cmp	r3, r2
 8004e1e:	dc02      	bgt.n	8004e26 <_printf_i+0x1e6>
 8004e20:	2330      	movs	r3, #48	; 0x30
 8004e22:	3d01      	subs	r5, #1
 8004e24:	702b      	strb	r3, [r5, #0]
 8004e26:	9b02      	ldr	r3, [sp, #8]
 8004e28:	1b5b      	subs	r3, r3, r5
 8004e2a:	6123      	str	r3, [r4, #16]
 8004e2c:	9b05      	ldr	r3, [sp, #20]
 8004e2e:	aa07      	add	r2, sp, #28
 8004e30:	9300      	str	r3, [sp, #0]
 8004e32:	0021      	movs	r1, r4
 8004e34:	9b04      	ldr	r3, [sp, #16]
 8004e36:	9803      	ldr	r0, [sp, #12]
 8004e38:	f7ff fe94 	bl	8004b64 <_printf_common>
 8004e3c:	1c43      	adds	r3, r0, #1
 8004e3e:	d1b8      	bne.n	8004db2 <_printf_i+0x172>
 8004e40:	2001      	movs	r0, #1
 8004e42:	4240      	negs	r0, r0
 8004e44:	b009      	add	sp, #36	; 0x24
 8004e46:	bdf0      	pop	{r4, r5, r6, r7, pc}
 8004e48:	08005301 	.word	0x08005301
 8004e4c:	08005312 	.word	0x08005312

08004e50 <__sread>:
 8004e50:	b570      	push	{r4, r5, r6, lr}
 8004e52:	000c      	movs	r4, r1
 8004e54:	250e      	movs	r5, #14
 8004e56:	5f49      	ldrsh	r1, [r1, r5]
 8004e58:	f000 f8b0 	bl	8004fbc <_read_r>
 8004e5c:	2800      	cmp	r0, #0
 8004e5e:	db03      	blt.n	8004e68 <__sread+0x18>
 8004e60:	6d63      	ldr	r3, [r4, #84]	; 0x54
 8004e62:	181b      	adds	r3, r3, r0
 8004e64:	6563      	str	r3, [r4, #84]	; 0x54
 8004e66:	bd70      	pop	{r4, r5, r6, pc}
 8004e68:	89a3      	ldrh	r3, [r4, #12]
 8004e6a:	4a02      	ldr	r2, [pc, #8]	; (8004e74 <__sread+0x24>)
 8004e6c:	4013      	ands	r3, r2
 8004e6e:	81a3      	strh	r3, [r4, #12]
 8004e70:	e7f9      	b.n	8004e66 <__sread+0x16>
 8004e72:	46c0      	nop			; (mov r8, r8)
 8004e74:	ffffefff 	.word	0xffffefff

08004e78 <__swrite>:
 8004e78:	b5f8      	push	{r3, r4, r5, r6, r7, lr}
 8004e7a:	001f      	movs	r7, r3
 8004e7c:	898b      	ldrh	r3, [r1, #12]
 8004e7e:	0005      	movs	r5, r0
 8004e80:	000c      	movs	r4, r1
 8004e82:	0016      	movs	r6, r2
 8004e84:	05db      	lsls	r3, r3, #23
 8004e86:	d505      	bpl.n	8004e94 <__swrite+0x1c>
 8004e88:	230e      	movs	r3, #14
 8004e8a:	5ec9      	ldrsh	r1, [r1, r3]
 8004e8c:	2200      	movs	r2, #0
 8004e8e:	2302      	movs	r3, #2
 8004e90:	f000 f874 	bl	8004f7c <_lseek_r>
 8004e94:	89a3      	ldrh	r3, [r4, #12]
 8004e96:	4a05      	ldr	r2, [pc, #20]	; (8004eac <__swrite+0x34>)
 8004e98:	0028      	movs	r0, r5
 8004e9a:	4013      	ands	r3, r2
 8004e9c:	81a3      	strh	r3, [r4, #12]
 8004e9e:	0032      	movs	r2, r6
 8004ea0:	230e      	movs	r3, #14
 8004ea2:	5ee1      	ldrsh	r1, [r4, r3]
 8004ea4:	003b      	movs	r3, r7
 8004ea6:	f000 f81f 	bl	8004ee8 <_write_r>
 8004eaa:	bdf8      	pop	{r3, r4, r5, r6, r7, pc}
 8004eac:	ffffefff 	.word	0xffffefff

08004eb0 <__sseek>:
 8004eb0:	b570      	push	{r4, r5, r6, lr}
 8004eb2:	000c      	movs	r4, r1
 8004eb4:	250e      	movs	r5, #14
 8004eb6:	5f49      	ldrsh	r1, [r1, r5]
 8004eb8:	f000 f860 	bl	8004f7c <_lseek_r>
 8004ebc:	89a3      	ldrh	r3, [r4, #12]
 8004ebe:	1c42      	adds	r2, r0, #1
 8004ec0:	d103      	bne.n	8004eca <__sseek+0x1a>
 8004ec2:	4a05      	ldr	r2, [pc, #20]	; (8004ed8 <__sseek+0x28>)
 8004ec4:	4013      	ands	r3, r2
 8004ec6:	81a3      	strh	r3, [r4, #12]
 8004ec8:	bd70      	pop	{r4, r5, r6, pc}
 8004eca:	2280      	movs	r2, #128	; 0x80
 8004ecc:	0152      	lsls	r2, r2, #5
 8004ece:	4313      	orrs	r3, r2
 8004ed0:	81a3      	strh	r3, [r4, #12]
 8004ed2:	6560      	str	r0, [r4, #84]	; 0x54
 8004ed4:	e7f8      	b.n	8004ec8 <__sseek+0x18>
 8004ed6:	46c0      	nop			; (mov r8, r8)
 8004ed8:	ffffefff 	.word	0xffffefff

08004edc <__sclose>:
 8004edc:	b510      	push	{r4, lr}
 8004ede:	230e      	movs	r3, #14
 8004ee0:	5ec9      	ldrsh	r1, [r1, r3]
 8004ee2:	f000 f815 	bl	8004f10 <_close_r>
 8004ee6:	bd10      	pop	{r4, pc}

08004ee8 <_write_r>:
 8004ee8:	b570      	push	{r4, r5, r6, lr}
 8004eea:	0005      	movs	r5, r0
 8004eec:	0008      	movs	r0, r1
 8004eee:	0011      	movs	r1, r2
 8004ef0:	2200      	movs	r2, #0
 8004ef2:	4c06      	ldr	r4, [pc, #24]	; (8004f0c <_write_r+0x24>)
 8004ef4:	6022      	str	r2, [r4, #0]
 8004ef6:	001a      	movs	r2, r3
 8004ef8:	f7fd fb78 	bl	80025ec <_write>
 8004efc:	1c43      	adds	r3, r0, #1
 8004efe:	d103      	bne.n	8004f08 <_write_r+0x20>
 8004f00:	6823      	ldr	r3, [r4, #0]
 8004f02:	2b00      	cmp	r3, #0
 8004f04:	d000      	beq.n	8004f08 <_write_r+0x20>
 8004f06:	602b      	str	r3, [r5, #0]
 8004f08:	bd70      	pop	{r4, r5, r6, pc}
 8004f0a:	46c0      	nop			; (mov r8, r8)
 8004f0c:	200001b0 	.word	0x200001b0

08004f10 <_close_r>:
 8004f10:	2300      	movs	r3, #0
 8004f12:	b570      	push	{r4, r5, r6, lr}
 8004f14:	4c06      	ldr	r4, [pc, #24]	; (8004f30 <_close_r+0x20>)
 8004f16:	0005      	movs	r5, r0
 8004f18:	0008      	movs	r0, r1
 8004f1a:	6023      	str	r3, [r4, #0]
 8004f1c:	f7fd fb74 	bl	8002608 <_close>
 8004f20:	1c43      	adds	r3, r0, #1
 8004f22:	d103      	bne.n	8004f2c <_close_r+0x1c>
 8004f24:	6823      	ldr	r3, [r4, #0]
 8004f26:	2b00      	cmp	r3, #0
 8004f28:	d000      	beq.n	8004f2c <_close_r+0x1c>
 8004f2a:	602b      	str	r3, [r5, #0]
 8004f2c:	bd70      	pop	{r4, r5, r6, pc}
 8004f2e:	46c0      	nop			; (mov r8, r8)
 8004f30:	200001b0 	.word	0x200001b0

08004f34 <_fstat_r>:
 8004f34:	2300      	movs	r3, #0
 8004f36:	b570      	push	{r4, r5, r6, lr}
 8004f38:	4c06      	ldr	r4, [pc, #24]	; (8004f54 <_fstat_r+0x20>)
 8004f3a:	0005      	movs	r5, r0
 8004f3c:	0008      	movs	r0, r1
 8004f3e:	0011      	movs	r1, r2
 8004f40:	6023      	str	r3, [r4, #0]
 8004f42:	f7fd fb64 	bl	800260e <_fstat>
 8004f46:	1c43      	adds	r3, r0, #1
 8004f48:	d103      	bne.n	8004f52 <_fstat_r+0x1e>
 8004f4a:	6823      	ldr	r3, [r4, #0]
 8004f4c:	2b00      	cmp	r3, #0
 8004f4e:	d000      	beq.n	8004f52 <_fstat_r+0x1e>
 8004f50:	602b      	str	r3, [r5, #0]
 8004f52:	bd70      	pop	{r4, r5, r6, pc}
 8004f54:	200001b0 	.word	0x200001b0

08004f58 <_isatty_r>:
 8004f58:	2300      	movs	r3, #0
 8004f5a:	b570      	push	{r4, r5, r6, lr}
 8004f5c:	4c06      	ldr	r4, [pc, #24]	; (8004f78 <_isatty_r+0x20>)
 8004f5e:	0005      	movs	r5, r0
 8004f60:	0008      	movs	r0, r1
 8004f62:	6023      	str	r3, [r4, #0]
 8004f64:	f7fd fb58 	bl	8002618 <_isatty>
 8004f68:	1c43      	adds	r3, r0, #1
 8004f6a:	d103      	bne.n	8004f74 <_isatty_r+0x1c>
 8004f6c:	6823      	ldr	r3, [r4, #0]
 8004f6e:	2b00      	cmp	r3, #0
 8004f70:	d000      	beq.n	8004f74 <_isatty_r+0x1c>
 8004f72:	602b      	str	r3, [r5, #0]
 8004f74:	bd70      	pop	{r4, r5, r6, pc}
 8004f76:	46c0      	nop			; (mov r8, r8)
 8004f78:	200001b0 	.word	0x200001b0

08004f7c <_lseek_r>:
 8004f7c:	b570      	push	{r4, r5, r6, lr}
 8004f7e:	0005      	movs	r5, r0
 8004f80:	0008      	movs	r0, r1
 8004f82:	0011      	movs	r1, r2
 8004f84:	2200      	movs	r2, #0
 8004f86:	4c06      	ldr	r4, [pc, #24]	; (8004fa0 <_lseek_r+0x24>)
 8004f88:	6022      	str	r2, [r4, #0]
 8004f8a:	001a      	movs	r2, r3
 8004f8c:	f7fd fb46 	bl	800261c <_lseek>
 8004f90:	1c43      	adds	r3, r0, #1
 8004f92:	d103      	bne.n	8004f9c <_lseek_r+0x20>
 8004f94:	6823      	ldr	r3, [r4, #0]
 8004f96:	2b00      	cmp	r3, #0
 8004f98:	d000      	beq.n	8004f9c <_lseek_r+0x20>
 8004f9a:	602b      	str	r3, [r5, #0]
 8004f9c:	bd70      	pop	{r4, r5, r6, pc}
 8004f9e:	46c0      	nop			; (mov r8, r8)
 8004fa0:	200001b0 	.word	0x200001b0

08004fa4 <memchr>:
 8004fa4:	b2c9      	uxtb	r1, r1
 8004fa6:	1882      	adds	r2, r0, r2
 8004fa8:	4290      	cmp	r0, r2
 8004faa:	d101      	bne.n	8004fb0 <memchr+0xc>
 8004fac:	2000      	movs	r0, #0
 8004fae:	4770      	bx	lr
 8004fb0:	7803      	ldrb	r3, [r0, #0]
 8004fb2:	428b      	cmp	r3, r1
 8004fb4:	d0fb      	beq.n	8004fae <memchr+0xa>
 8004fb6:	3001      	adds	r0, #1
 8004fb8:	e7f6      	b.n	8004fa8 <memchr+0x4>
	...

08004fbc <_read_r>:
 8004fbc:	b570      	push	{r4, r5, r6, lr}
 8004fbe:	0005      	movs	r5, r0
 8004fc0:	0008      	movs	r0, r1
 8004fc2:	0011      	movs	r1, r2
 8004fc4:	2200      	movs	r2, #0
 8004fc6:	4c06      	ldr	r4, [pc, #24]	; (8004fe0 <_read_r+0x24>)
 8004fc8:	6022      	str	r2, [r4, #0]
 8004fca:	001a      	movs	r2, r3
 8004fcc:	f7fd fb00 	bl	80025d0 <_read>
 8004fd0:	1c43      	adds	r3, r0, #1
 8004fd2:	d103      	bne.n	8004fdc <_read_r+0x20>
 8004fd4:	6823      	ldr	r3, [r4, #0]
 8004fd6:	2b00      	cmp	r3, #0
 8004fd8:	d000      	beq.n	8004fdc <_read_r+0x20>
 8004fda:	602b      	str	r3, [r5, #0]
 8004fdc:	bd70      	pop	{r4, r5, r6, pc}
 8004fde:	46c0      	nop			; (mov r8, r8)
 8004fe0:	200001b0 	.word	0x200001b0

08004fe4 <_init>:
 8004fe4:	b5f8      	push	{r3, r4, r5, r6, r7, lr}
 8004fe6:	46c0      	nop			; (mov r8, r8)
 8004fe8:	bcf8      	pop	{r3, r4, r5, r6, r7}
 8004fea:	bc08      	pop	{r3}
 8004fec:	469e      	mov	lr, r3
 8004fee:	4770      	bx	lr

08004ff0 <_fini>:
 8004ff0:	b5f8      	push	{r3, r4, r5, r6, r7, lr}
 8004ff2:	46c0      	nop			; (mov r8, r8)
 8004ff4:	bcf8      	pop	{r3, r4, r5, r6, r7}
 8004ff6:	bc08      	pop	{r3}
 8004ff8:	469e      	mov	lr, r3
 8004ffa:	4770      	bx	lr
