
ece477-hts221-bq27441-vcnl4010.elf:     file format elf32-littlearm

Sections:
Idx Name          Size      VMA       LMA       File off  Algn
  0 .isr_vector   000000c0  08000000  08000000  00010000  2**0
                  CONTENTS, ALLOC, LOAD, READONLY, DATA
  1 .text         0000564c  080000c0  080000c0  000100c0  2**2
                  CONTENTS, ALLOC, LOAD, READONLY, CODE
  2 .rodata       0000039c  0800570c  0800570c  0001570c  2**2
                  CONTENTS, ALLOC, LOAD, READONLY, DATA
  3 .ARM.extab    00000000  08005aa8  08005aa8  00020070  2**0
                  CONTENTS
  4 .ARM          00000008  08005aa8  08005aa8  00015aa8  2**2
                  CONTENTS, ALLOC, LOAD, READONLY, DATA
  5 .preinit_array 00000000  08005ab0  08005ab0  00020070  2**0
                  CONTENTS, ALLOC, LOAD, DATA
  6 .init_array   00000004  08005ab0  08005ab0  00015ab0  2**2
                  CONTENTS, ALLOC, LOAD, DATA
  7 .fini_array   00000004  08005ab4  08005ab4  00015ab4  2**2
                  CONTENTS, ALLOC, LOAD, DATA
  8 .data         00000070  20000000  08005ab8  00020000  2**2
                  CONTENTS, ALLOC, LOAD, DATA
  9 .bss          00000154  20000070  08005b28  00020070  2**2
                  ALLOC
 10 ._user_heap_stack 00000604  200001c4  08005b28  000201c4  2**0
                  ALLOC
 11 .ARM.attributes 00000028  00000000  00000000  00020070  2**0
                  CONTENTS, READONLY
 12 .comment      00000053  00000000  00000000  00020098  2**0
                  CONTENTS, READONLY
 13 .debug_frame  00000b30  00000000  00000000  000200ec  2**2
                  CONTENTS, READONLY, DEBUGGING, OCTETS

Disassembly of section .text:

080000c0 <__do_global_dtors_aux>:
 80000c0:	b510      	push	{r4, lr}
 80000c2:	4c06      	ldr	r4, [pc, #24]	; (80000dc <__do_global_dtors_aux+0x1c>)
 80000c4:	7823      	ldrb	r3, [r4, #0]
 80000c6:	2b00      	cmp	r3, #0
 80000c8:	d107      	bne.n	80000da <__do_global_dtors_aux+0x1a>
 80000ca:	4b05      	ldr	r3, [pc, #20]	; (80000e0 <__do_global_dtors_aux+0x20>)
 80000cc:	2b00      	cmp	r3, #0
 80000ce:	d002      	beq.n	80000d6 <__do_global_dtors_aux+0x16>
 80000d0:	4804      	ldr	r0, [pc, #16]	; (80000e4 <__do_global_dtors_aux+0x24>)
 80000d2:	e000      	b.n	80000d6 <__do_global_dtors_aux+0x16>
 80000d4:	bf00      	nop
 80000d6:	2301      	movs	r3, #1
 80000d8:	7023      	strb	r3, [r4, #0]
 80000da:	bd10      	pop	{r4, pc}
 80000dc:	20000070 	.word	0x20000070
 80000e0:	00000000 	.word	0x00000000
 80000e4:	080056f4 	.word	0x080056f4

080000e8 <frame_dummy>:
 80000e8:	4b04      	ldr	r3, [pc, #16]	; (80000fc <frame_dummy+0x14>)
 80000ea:	b510      	push	{r4, lr}
 80000ec:	2b00      	cmp	r3, #0
 80000ee:	d003      	beq.n	80000f8 <frame_dummy+0x10>
 80000f0:	4903      	ldr	r1, [pc, #12]	; (8000100 <frame_dummy+0x18>)
 80000f2:	4804      	ldr	r0, [pc, #16]	; (8000104 <frame_dummy+0x1c>)
 80000f4:	e000      	b.n	80000f8 <frame_dummy+0x10>
 80000f6:	bf00      	nop
 80000f8:	bd10      	pop	{r4, pc}
 80000fa:	46c0      	nop			; (mov r8, r8)
 80000fc:	00000000 	.word	0x00000000
 8000100:	20000074 	.word	0x20000074
 8000104:	080056f4 	.word	0x080056f4

08000108 <__gnu_thumb1_case_uqi>:
 8000108:	b402      	push	{r1}
 800010a:	4671      	mov	r1, lr
 800010c:	0849      	lsrs	r1, r1, #1
 800010e:	0049      	lsls	r1, r1, #1
 8000110:	5c09      	ldrb	r1, [r1, r0]
 8000112:	0049      	lsls	r1, r1, #1
 8000114:	448e      	add	lr, r1
 8000116:	bc02      	pop	{r1}
 8000118:	4770      	bx	lr
 800011a:	46c0      	nop			; (mov r8, r8)

0800011c <__gnu_thumb1_case_shi>:
 800011c:	b403      	push	{r0, r1}
 800011e:	4671      	mov	r1, lr
 8000120:	0849      	lsrs	r1, r1, #1
 8000122:	0040      	lsls	r0, r0, #1
 8000124:	0049      	lsls	r1, r1, #1
 8000126:	5e09      	ldrsh	r1, [r1, r0]
 8000128:	0049      	lsls	r1, r1, #1
 800012a:	448e      	add	lr, r1
 800012c:	bc03      	pop	{r0, r1}
 800012e:	4770      	bx	lr

08000130 <__udivsi3>:
 8000130:	2200      	movs	r2, #0
 8000132:	0843      	lsrs	r3, r0, #1
 8000134:	428b      	cmp	r3, r1
 8000136:	d374      	bcc.n	8000222 <__udivsi3+0xf2>
 8000138:	0903      	lsrs	r3, r0, #4
 800013a:	428b      	cmp	r3, r1
 800013c:	d35f      	bcc.n	80001fe <__udivsi3+0xce>
 800013e:	0a03      	lsrs	r3, r0, #8
 8000140:	428b      	cmp	r3, r1
 8000142:	d344      	bcc.n	80001ce <__udivsi3+0x9e>
 8000144:	0b03      	lsrs	r3, r0, #12
 8000146:	428b      	cmp	r3, r1
 8000148:	d328      	bcc.n	800019c <__udivsi3+0x6c>
 800014a:	0c03      	lsrs	r3, r0, #16
 800014c:	428b      	cmp	r3, r1
 800014e:	d30d      	bcc.n	800016c <__udivsi3+0x3c>
 8000150:	22ff      	movs	r2, #255	; 0xff
 8000152:	0209      	lsls	r1, r1, #8
 8000154:	ba12      	rev	r2, r2
 8000156:	0c03      	lsrs	r3, r0, #16
 8000158:	428b      	cmp	r3, r1
 800015a:	d302      	bcc.n	8000162 <__udivsi3+0x32>
 800015c:	1212      	asrs	r2, r2, #8
 800015e:	0209      	lsls	r1, r1, #8
 8000160:	d065      	beq.n	800022e <__udivsi3+0xfe>
 8000162:	0b03      	lsrs	r3, r0, #12
 8000164:	428b      	cmp	r3, r1
 8000166:	d319      	bcc.n	800019c <__udivsi3+0x6c>
 8000168:	e000      	b.n	800016c <__udivsi3+0x3c>
 800016a:	0a09      	lsrs	r1, r1, #8
 800016c:	0bc3      	lsrs	r3, r0, #15
 800016e:	428b      	cmp	r3, r1
 8000170:	d301      	bcc.n	8000176 <__udivsi3+0x46>
 8000172:	03cb      	lsls	r3, r1, #15
 8000174:	1ac0      	subs	r0, r0, r3
 8000176:	4152      	adcs	r2, r2
 8000178:	0b83      	lsrs	r3, r0, #14
 800017a:	428b      	cmp	r3, r1
 800017c:	d301      	bcc.n	8000182 <__udivsi3+0x52>
 800017e:	038b      	lsls	r3, r1, #14
 8000180:	1ac0      	subs	r0, r0, r3
 8000182:	4152      	adcs	r2, r2
 8000184:	0b43      	lsrs	r3, r0, #13
 8000186:	428b      	cmp	r3, r1
 8000188:	d301      	bcc.n	800018e <__udivsi3+0x5e>
 800018a:	034b      	lsls	r3, r1, #13
 800018c:	1ac0      	subs	r0, r0, r3
 800018e:	4152      	adcs	r2, r2
 8000190:	0b03      	lsrs	r3, r0, #12
 8000192:	428b      	cmp	r3, r1
 8000194:	d301      	bcc.n	800019a <__udivsi3+0x6a>
 8000196:	030b      	lsls	r3, r1, #12
 8000198:	1ac0      	subs	r0, r0, r3
 800019a:	4152      	adcs	r2, r2
 800019c:	0ac3      	lsrs	r3, r0, #11
 800019e:	428b      	cmp	r3, r1
 80001a0:	d301      	bcc.n	80001a6 <__udivsi3+0x76>
 80001a2:	02cb      	lsls	r3, r1, #11
 80001a4:	1ac0      	subs	r0, r0, r3
 80001a6:	4152      	adcs	r2, r2
 80001a8:	0a83      	lsrs	r3, r0, #10
 80001aa:	428b      	cmp	r3, r1
 80001ac:	d301      	bcc.n	80001b2 <__udivsi3+0x82>
 80001ae:	028b      	lsls	r3, r1, #10
 80001b0:	1ac0      	subs	r0, r0, r3
 80001b2:	4152      	adcs	r2, r2
 80001b4:	0a43      	lsrs	r3, r0, #9
 80001b6:	428b      	cmp	r3, r1
 80001b8:	d301      	bcc.n	80001be <__udivsi3+0x8e>
 80001ba:	024b      	lsls	r3, r1, #9
 80001bc:	1ac0      	subs	r0, r0, r3
 80001be:	4152      	adcs	r2, r2
 80001c0:	0a03      	lsrs	r3, r0, #8
 80001c2:	428b      	cmp	r3, r1
 80001c4:	d301      	bcc.n	80001ca <__udivsi3+0x9a>
 80001c6:	020b      	lsls	r3, r1, #8
 80001c8:	1ac0      	subs	r0, r0, r3
 80001ca:	4152      	adcs	r2, r2
 80001cc:	d2cd      	bcs.n	800016a <__udivsi3+0x3a>
 80001ce:	09c3      	lsrs	r3, r0, #7
 80001d0:	428b      	cmp	r3, r1
 80001d2:	d301      	bcc.n	80001d8 <__udivsi3+0xa8>
 80001d4:	01cb      	lsls	r3, r1, #7
 80001d6:	1ac0      	subs	r0, r0, r3
 80001d8:	4152      	adcs	r2, r2
 80001da:	0983      	lsrs	r3, r0, #6
 80001dc:	428b      	cmp	r3, r1
 80001de:	d301      	bcc.n	80001e4 <__udivsi3+0xb4>
 80001e0:	018b      	lsls	r3, r1, #6
 80001e2:	1ac0      	subs	r0, r0, r3
 80001e4:	4152      	adcs	r2, r2
 80001e6:	0943      	lsrs	r3, r0, #5
 80001e8:	428b      	cmp	r3, r1
 80001ea:	d301      	bcc.n	80001f0 <__udivsi3+0xc0>
 80001ec:	014b      	lsls	r3, r1, #5
 80001ee:	1ac0      	subs	r0, r0, r3
 80001f0:	4152      	adcs	r2, r2
 80001f2:	0903      	lsrs	r3, r0, #4
 80001f4:	428b      	cmp	r3, r1
 80001f6:	d301      	bcc.n	80001fc <__udivsi3+0xcc>
 80001f8:	010b      	lsls	r3, r1, #4
 80001fa:	1ac0      	subs	r0, r0, r3
 80001fc:	4152      	adcs	r2, r2
 80001fe:	08c3      	lsrs	r3, r0, #3
 8000200:	428b      	cmp	r3, r1
 8000202:	d301      	bcc.n	8000208 <__udivsi3+0xd8>
 8000204:	00cb      	lsls	r3, r1, #3
 8000206:	1ac0      	subs	r0, r0, r3
 8000208:	4152      	adcs	r2, r2
 800020a:	0883      	lsrs	r3, r0, #2
 800020c:	428b      	cmp	r3, r1
 800020e:	d301      	bcc.n	8000214 <__udivsi3+0xe4>
 8000210:	008b      	lsls	r3, r1, #2
 8000212:	1ac0      	subs	r0, r0, r3
 8000214:	4152      	adcs	r2, r2
 8000216:	0843      	lsrs	r3, r0, #1
 8000218:	428b      	cmp	r3, r1
 800021a:	d301      	bcc.n	8000220 <__udivsi3+0xf0>
 800021c:	004b      	lsls	r3, r1, #1
 800021e:	1ac0      	subs	r0, r0, r3
 8000220:	4152      	adcs	r2, r2
 8000222:	1a41      	subs	r1, r0, r1
 8000224:	d200      	bcs.n	8000228 <__udivsi3+0xf8>
 8000226:	4601      	mov	r1, r0
 8000228:	4152      	adcs	r2, r2
 800022a:	4610      	mov	r0, r2
 800022c:	4770      	bx	lr
 800022e:	e7ff      	b.n	8000230 <__udivsi3+0x100>
 8000230:	b501      	push	{r0, lr}
 8000232:	2000      	movs	r0, #0
 8000234:	f000 f806 	bl	8000244 <__aeabi_idiv0>
 8000238:	bd02      	pop	{r1, pc}
 800023a:	46c0      	nop			; (mov r8, r8)

0800023c <__aeabi_uidivmod>:
 800023c:	2900      	cmp	r1, #0
 800023e:	d0f7      	beq.n	8000230 <__udivsi3+0x100>
 8000240:	e776      	b.n	8000130 <__udivsi3>
 8000242:	4770      	bx	lr

08000244 <__aeabi_idiv0>:
 8000244:	4770      	bx	lr
 8000246:	46c0      	nop			; (mov r8, r8)

08000248 <__aeabi_uldivmod>:
 8000248:	2b00      	cmp	r3, #0
 800024a:	d111      	bne.n	8000270 <__aeabi_uldivmod+0x28>
 800024c:	2a00      	cmp	r2, #0
 800024e:	d10f      	bne.n	8000270 <__aeabi_uldivmod+0x28>
 8000250:	2900      	cmp	r1, #0
 8000252:	d100      	bne.n	8000256 <__aeabi_uldivmod+0xe>
 8000254:	2800      	cmp	r0, #0
 8000256:	d002      	beq.n	800025e <__aeabi_uldivmod+0x16>
 8000258:	2100      	movs	r1, #0
 800025a:	43c9      	mvns	r1, r1
 800025c:	1c08      	adds	r0, r1, #0
 800025e:	b407      	push	{r0, r1, r2}
 8000260:	4802      	ldr	r0, [pc, #8]	; (800026c <__aeabi_uldivmod+0x24>)
 8000262:	a102      	add	r1, pc, #8	; (adr r1, 800026c <__aeabi_uldivmod+0x24>)
 8000264:	1840      	adds	r0, r0, r1
 8000266:	9002      	str	r0, [sp, #8]
 8000268:	bd03      	pop	{r0, r1, pc}
 800026a:	46c0      	nop			; (mov r8, r8)
 800026c:	ffffffd9 	.word	0xffffffd9
 8000270:	b403      	push	{r0, r1}
 8000272:	4668      	mov	r0, sp
 8000274:	b501      	push	{r0, lr}
 8000276:	9802      	ldr	r0, [sp, #8]
 8000278:	f000 f82e 	bl	80002d8 <__udivmoddi4>
 800027c:	9b01      	ldr	r3, [sp, #4]
 800027e:	469e      	mov	lr, r3
 8000280:	b002      	add	sp, #8
 8000282:	bc0c      	pop	{r2, r3}
 8000284:	4770      	bx	lr
 8000286:	46c0      	nop			; (mov r8, r8)

08000288 <__aeabi_lmul>:
 8000288:	b5f0      	push	{r4, r5, r6, r7, lr}
 800028a:	0415      	lsls	r5, r2, #16
 800028c:	0c2d      	lsrs	r5, r5, #16
 800028e:	000f      	movs	r7, r1
 8000290:	0001      	movs	r1, r0
 8000292:	002e      	movs	r6, r5
 8000294:	46c6      	mov	lr, r8
 8000296:	4684      	mov	ip, r0
 8000298:	0400      	lsls	r0, r0, #16
 800029a:	0c14      	lsrs	r4, r2, #16
 800029c:	0c00      	lsrs	r0, r0, #16
 800029e:	0c09      	lsrs	r1, r1, #16
 80002a0:	4346      	muls	r6, r0
 80002a2:	434d      	muls	r5, r1
 80002a4:	4360      	muls	r0, r4
 80002a6:	4361      	muls	r1, r4
 80002a8:	1940      	adds	r0, r0, r5
 80002aa:	0c34      	lsrs	r4, r6, #16
 80002ac:	1824      	adds	r4, r4, r0
 80002ae:	b500      	push	{lr}
 80002b0:	42a5      	cmp	r5, r4
 80002b2:	d903      	bls.n	80002bc <__aeabi_lmul+0x34>
 80002b4:	2080      	movs	r0, #128	; 0x80
 80002b6:	0240      	lsls	r0, r0, #9
 80002b8:	4680      	mov	r8, r0
 80002ba:	4441      	add	r1, r8
 80002bc:	0c25      	lsrs	r5, r4, #16
 80002be:	186d      	adds	r5, r5, r1
 80002c0:	4661      	mov	r1, ip
 80002c2:	4359      	muls	r1, r3
 80002c4:	437a      	muls	r2, r7
 80002c6:	0430      	lsls	r0, r6, #16
 80002c8:	1949      	adds	r1, r1, r5
 80002ca:	0424      	lsls	r4, r4, #16
 80002cc:	0c00      	lsrs	r0, r0, #16
 80002ce:	1820      	adds	r0, r4, r0
 80002d0:	1889      	adds	r1, r1, r2
 80002d2:	bc80      	pop	{r7}
 80002d4:	46b8      	mov	r8, r7
 80002d6:	bdf0      	pop	{r4, r5, r6, r7, pc}

080002d8 <__udivmoddi4>:
 80002d8:	b5f0      	push	{r4, r5, r6, r7, lr}
 80002da:	4657      	mov	r7, sl
 80002dc:	464e      	mov	r6, r9
 80002de:	4645      	mov	r5, r8
 80002e0:	46de      	mov	lr, fp
 80002e2:	b5e0      	push	{r5, r6, r7, lr}
 80002e4:	0004      	movs	r4, r0
 80002e6:	000d      	movs	r5, r1
 80002e8:	4692      	mov	sl, r2
 80002ea:	4699      	mov	r9, r3
 80002ec:	b083      	sub	sp, #12
 80002ee:	428b      	cmp	r3, r1
 80002f0:	d830      	bhi.n	8000354 <__udivmoddi4+0x7c>
 80002f2:	d02d      	beq.n	8000350 <__udivmoddi4+0x78>
 80002f4:	4649      	mov	r1, r9
 80002f6:	4650      	mov	r0, sl
 80002f8:	f001 fe24 	bl	8001f44 <__clzdi2>
 80002fc:	0029      	movs	r1, r5
 80002fe:	0006      	movs	r6, r0
 8000300:	0020      	movs	r0, r4
 8000302:	f001 fe1f 	bl	8001f44 <__clzdi2>
 8000306:	1a33      	subs	r3, r6, r0
 8000308:	4698      	mov	r8, r3
 800030a:	3b20      	subs	r3, #32
 800030c:	469b      	mov	fp, r3
 800030e:	d433      	bmi.n	8000378 <__udivmoddi4+0xa0>
 8000310:	465a      	mov	r2, fp
 8000312:	4653      	mov	r3, sl
 8000314:	4093      	lsls	r3, r2
 8000316:	4642      	mov	r2, r8
 8000318:	001f      	movs	r7, r3
 800031a:	4653      	mov	r3, sl
 800031c:	4093      	lsls	r3, r2
 800031e:	001e      	movs	r6, r3
 8000320:	42af      	cmp	r7, r5
 8000322:	d83a      	bhi.n	800039a <__udivmoddi4+0xc2>
 8000324:	42af      	cmp	r7, r5
 8000326:	d100      	bne.n	800032a <__udivmoddi4+0x52>
 8000328:	e078      	b.n	800041c <__udivmoddi4+0x144>
 800032a:	465b      	mov	r3, fp
 800032c:	1ba4      	subs	r4, r4, r6
 800032e:	41bd      	sbcs	r5, r7
 8000330:	2b00      	cmp	r3, #0
 8000332:	da00      	bge.n	8000336 <__udivmoddi4+0x5e>
 8000334:	e075      	b.n	8000422 <__udivmoddi4+0x14a>
 8000336:	2200      	movs	r2, #0
 8000338:	2300      	movs	r3, #0
 800033a:	9200      	str	r2, [sp, #0]
 800033c:	9301      	str	r3, [sp, #4]
 800033e:	2301      	movs	r3, #1
 8000340:	465a      	mov	r2, fp
 8000342:	4093      	lsls	r3, r2
 8000344:	9301      	str	r3, [sp, #4]
 8000346:	2301      	movs	r3, #1
 8000348:	4642      	mov	r2, r8
 800034a:	4093      	lsls	r3, r2
 800034c:	9300      	str	r3, [sp, #0]
 800034e:	e028      	b.n	80003a2 <__udivmoddi4+0xca>
 8000350:	4282      	cmp	r2, r0
 8000352:	d9cf      	bls.n	80002f4 <__udivmoddi4+0x1c>
 8000354:	2200      	movs	r2, #0
 8000356:	2300      	movs	r3, #0
 8000358:	9200      	str	r2, [sp, #0]
 800035a:	9301      	str	r3, [sp, #4]
 800035c:	9b0c      	ldr	r3, [sp, #48]	; 0x30
 800035e:	2b00      	cmp	r3, #0
 8000360:	d001      	beq.n	8000366 <__udivmoddi4+0x8e>
 8000362:	601c      	str	r4, [r3, #0]
 8000364:	605d      	str	r5, [r3, #4]
 8000366:	9800      	ldr	r0, [sp, #0]
 8000368:	9901      	ldr	r1, [sp, #4]
 800036a:	b003      	add	sp, #12
 800036c:	bcf0      	pop	{r4, r5, r6, r7}
 800036e:	46bb      	mov	fp, r7
 8000370:	46b2      	mov	sl, r6
 8000372:	46a9      	mov	r9, r5
 8000374:	46a0      	mov	r8, r4
 8000376:	bdf0      	pop	{r4, r5, r6, r7, pc}
 8000378:	4642      	mov	r2, r8
 800037a:	2320      	movs	r3, #32
 800037c:	1a9b      	subs	r3, r3, r2
 800037e:	4652      	mov	r2, sl
 8000380:	40da      	lsrs	r2, r3
 8000382:	4641      	mov	r1, r8
 8000384:	0013      	movs	r3, r2
 8000386:	464a      	mov	r2, r9
 8000388:	408a      	lsls	r2, r1
 800038a:	0017      	movs	r7, r2
 800038c:	4642      	mov	r2, r8
 800038e:	431f      	orrs	r7, r3
 8000390:	4653      	mov	r3, sl
 8000392:	4093      	lsls	r3, r2
 8000394:	001e      	movs	r6, r3
 8000396:	42af      	cmp	r7, r5
 8000398:	d9c4      	bls.n	8000324 <__udivmoddi4+0x4c>
 800039a:	2200      	movs	r2, #0
 800039c:	2300      	movs	r3, #0
 800039e:	9200      	str	r2, [sp, #0]
 80003a0:	9301      	str	r3, [sp, #4]
 80003a2:	4643      	mov	r3, r8
 80003a4:	2b00      	cmp	r3, #0
 80003a6:	d0d9      	beq.n	800035c <__udivmoddi4+0x84>
 80003a8:	07fb      	lsls	r3, r7, #31
 80003aa:	0872      	lsrs	r2, r6, #1
 80003ac:	431a      	orrs	r2, r3
 80003ae:	4646      	mov	r6, r8
 80003b0:	087b      	lsrs	r3, r7, #1
 80003b2:	e00e      	b.n	80003d2 <__udivmoddi4+0xfa>
 80003b4:	42ab      	cmp	r3, r5
 80003b6:	d101      	bne.n	80003bc <__udivmoddi4+0xe4>
 80003b8:	42a2      	cmp	r2, r4
 80003ba:	d80c      	bhi.n	80003d6 <__udivmoddi4+0xfe>
 80003bc:	1aa4      	subs	r4, r4, r2
 80003be:	419d      	sbcs	r5, r3
 80003c0:	2001      	movs	r0, #1
 80003c2:	1924      	adds	r4, r4, r4
 80003c4:	416d      	adcs	r5, r5
 80003c6:	2100      	movs	r1, #0
 80003c8:	3e01      	subs	r6, #1
 80003ca:	1824      	adds	r4, r4, r0
 80003cc:	414d      	adcs	r5, r1
 80003ce:	2e00      	cmp	r6, #0
 80003d0:	d006      	beq.n	80003e0 <__udivmoddi4+0x108>
 80003d2:	42ab      	cmp	r3, r5
 80003d4:	d9ee      	bls.n	80003b4 <__udivmoddi4+0xdc>
 80003d6:	3e01      	subs	r6, #1
 80003d8:	1924      	adds	r4, r4, r4
 80003da:	416d      	adcs	r5, r5
 80003dc:	2e00      	cmp	r6, #0
 80003de:	d1f8      	bne.n	80003d2 <__udivmoddi4+0xfa>
 80003e0:	9800      	ldr	r0, [sp, #0]
 80003e2:	9901      	ldr	r1, [sp, #4]
 80003e4:	465b      	mov	r3, fp
 80003e6:	1900      	adds	r0, r0, r4
 80003e8:	4169      	adcs	r1, r5
 80003ea:	2b00      	cmp	r3, #0
 80003ec:	db24      	blt.n	8000438 <__udivmoddi4+0x160>
 80003ee:	002b      	movs	r3, r5
 80003f0:	465a      	mov	r2, fp
 80003f2:	4644      	mov	r4, r8
 80003f4:	40d3      	lsrs	r3, r2
 80003f6:	002a      	movs	r2, r5
 80003f8:	40e2      	lsrs	r2, r4
 80003fa:	001c      	movs	r4, r3
 80003fc:	465b      	mov	r3, fp
 80003fe:	0015      	movs	r5, r2
 8000400:	2b00      	cmp	r3, #0
 8000402:	db2a      	blt.n	800045a <__udivmoddi4+0x182>
 8000404:	0026      	movs	r6, r4
 8000406:	409e      	lsls	r6, r3
 8000408:	0033      	movs	r3, r6
 800040a:	0026      	movs	r6, r4
 800040c:	4647      	mov	r7, r8
 800040e:	40be      	lsls	r6, r7
 8000410:	0032      	movs	r2, r6
 8000412:	1a80      	subs	r0, r0, r2
 8000414:	4199      	sbcs	r1, r3
 8000416:	9000      	str	r0, [sp, #0]
 8000418:	9101      	str	r1, [sp, #4]
 800041a:	e79f      	b.n	800035c <__udivmoddi4+0x84>
 800041c:	42a3      	cmp	r3, r4
 800041e:	d8bc      	bhi.n	800039a <__udivmoddi4+0xc2>
 8000420:	e783      	b.n	800032a <__udivmoddi4+0x52>
 8000422:	4642      	mov	r2, r8
 8000424:	2320      	movs	r3, #32
 8000426:	2100      	movs	r1, #0
 8000428:	1a9b      	subs	r3, r3, r2
 800042a:	2200      	movs	r2, #0
 800042c:	9100      	str	r1, [sp, #0]
 800042e:	9201      	str	r2, [sp, #4]
 8000430:	2201      	movs	r2, #1
 8000432:	40da      	lsrs	r2, r3
 8000434:	9201      	str	r2, [sp, #4]
 8000436:	e786      	b.n	8000346 <__udivmoddi4+0x6e>
 8000438:	4642      	mov	r2, r8
 800043a:	2320      	movs	r3, #32
 800043c:	1a9b      	subs	r3, r3, r2
 800043e:	002a      	movs	r2, r5
 8000440:	4646      	mov	r6, r8
 8000442:	409a      	lsls	r2, r3
 8000444:	0023      	movs	r3, r4
 8000446:	40f3      	lsrs	r3, r6
 8000448:	4644      	mov	r4, r8
 800044a:	4313      	orrs	r3, r2
 800044c:	002a      	movs	r2, r5
 800044e:	40e2      	lsrs	r2, r4
 8000450:	001c      	movs	r4, r3
 8000452:	465b      	mov	r3, fp
 8000454:	0015      	movs	r5, r2
 8000456:	2b00      	cmp	r3, #0
 8000458:	dad4      	bge.n	8000404 <__udivmoddi4+0x12c>
 800045a:	4642      	mov	r2, r8
 800045c:	002f      	movs	r7, r5
 800045e:	2320      	movs	r3, #32
 8000460:	0026      	movs	r6, r4
 8000462:	4097      	lsls	r7, r2
 8000464:	1a9b      	subs	r3, r3, r2
 8000466:	40de      	lsrs	r6, r3
 8000468:	003b      	movs	r3, r7
 800046a:	4333      	orrs	r3, r6
 800046c:	e7cd      	b.n	800040a <__udivmoddi4+0x132>
 800046e:	46c0      	nop			; (mov r8, r8)

08000470 <__aeabi_fadd>:
 8000470:	b5f0      	push	{r4, r5, r6, r7, lr}
 8000472:	4646      	mov	r6, r8
 8000474:	46d6      	mov	lr, sl
 8000476:	464f      	mov	r7, r9
 8000478:	024d      	lsls	r5, r1, #9
 800047a:	0242      	lsls	r2, r0, #9
 800047c:	b5c0      	push	{r6, r7, lr}
 800047e:	0a52      	lsrs	r2, r2, #9
 8000480:	0a6e      	lsrs	r6, r5, #9
 8000482:	0047      	lsls	r7, r0, #1
 8000484:	46b0      	mov	r8, r6
 8000486:	0e3f      	lsrs	r7, r7, #24
 8000488:	004e      	lsls	r6, r1, #1
 800048a:	0fc4      	lsrs	r4, r0, #31
 800048c:	00d0      	lsls	r0, r2, #3
 800048e:	4694      	mov	ip, r2
 8000490:	003b      	movs	r3, r7
 8000492:	4682      	mov	sl, r0
 8000494:	0e36      	lsrs	r6, r6, #24
 8000496:	0fc9      	lsrs	r1, r1, #31
 8000498:	09ad      	lsrs	r5, r5, #6
 800049a:	428c      	cmp	r4, r1
 800049c:	d06d      	beq.n	800057a <__aeabi_fadd+0x10a>
 800049e:	1bb8      	subs	r0, r7, r6
 80004a0:	4681      	mov	r9, r0
 80004a2:	2800      	cmp	r0, #0
 80004a4:	dd4d      	ble.n	8000542 <__aeabi_fadd+0xd2>
 80004a6:	2e00      	cmp	r6, #0
 80004a8:	d100      	bne.n	80004ac <__aeabi_fadd+0x3c>
 80004aa:	e088      	b.n	80005be <__aeabi_fadd+0x14e>
 80004ac:	2fff      	cmp	r7, #255	; 0xff
 80004ae:	d05a      	beq.n	8000566 <__aeabi_fadd+0xf6>
 80004b0:	2380      	movs	r3, #128	; 0x80
 80004b2:	04db      	lsls	r3, r3, #19
 80004b4:	431d      	orrs	r5, r3
 80004b6:	464b      	mov	r3, r9
 80004b8:	2201      	movs	r2, #1
 80004ba:	2b1b      	cmp	r3, #27
 80004bc:	dc0a      	bgt.n	80004d4 <__aeabi_fadd+0x64>
 80004be:	002b      	movs	r3, r5
 80004c0:	464a      	mov	r2, r9
 80004c2:	4649      	mov	r1, r9
 80004c4:	40d3      	lsrs	r3, r2
 80004c6:	2220      	movs	r2, #32
 80004c8:	1a52      	subs	r2, r2, r1
 80004ca:	4095      	lsls	r5, r2
 80004cc:	002a      	movs	r2, r5
 80004ce:	1e55      	subs	r5, r2, #1
 80004d0:	41aa      	sbcs	r2, r5
 80004d2:	431a      	orrs	r2, r3
 80004d4:	4653      	mov	r3, sl
 80004d6:	1a9a      	subs	r2, r3, r2
 80004d8:	0153      	lsls	r3, r2, #5
 80004da:	d400      	bmi.n	80004de <__aeabi_fadd+0x6e>
 80004dc:	e0b9      	b.n	8000652 <__aeabi_fadd+0x1e2>
 80004de:	0192      	lsls	r2, r2, #6
 80004e0:	0996      	lsrs	r6, r2, #6
 80004e2:	0030      	movs	r0, r6
 80004e4:	f001 fd10 	bl	8001f08 <__clzsi2>
 80004e8:	3805      	subs	r0, #5
 80004ea:	4086      	lsls	r6, r0
 80004ec:	4287      	cmp	r7, r0
 80004ee:	dd00      	ble.n	80004f2 <__aeabi_fadd+0x82>
 80004f0:	e0d4      	b.n	800069c <__aeabi_fadd+0x22c>
 80004f2:	0033      	movs	r3, r6
 80004f4:	1bc7      	subs	r7, r0, r7
 80004f6:	2020      	movs	r0, #32
 80004f8:	3701      	adds	r7, #1
 80004fa:	40fb      	lsrs	r3, r7
 80004fc:	1bc7      	subs	r7, r0, r7
 80004fe:	40be      	lsls	r6, r7
 8000500:	0032      	movs	r2, r6
 8000502:	1e56      	subs	r6, r2, #1
 8000504:	41b2      	sbcs	r2, r6
 8000506:	2700      	movs	r7, #0
 8000508:	431a      	orrs	r2, r3
 800050a:	0753      	lsls	r3, r2, #29
 800050c:	d004      	beq.n	8000518 <__aeabi_fadd+0xa8>
 800050e:	230f      	movs	r3, #15
 8000510:	4013      	ands	r3, r2
 8000512:	2b04      	cmp	r3, #4
 8000514:	d000      	beq.n	8000518 <__aeabi_fadd+0xa8>
 8000516:	3204      	adds	r2, #4
 8000518:	0153      	lsls	r3, r2, #5
 800051a:	d400      	bmi.n	800051e <__aeabi_fadd+0xae>
 800051c:	e09c      	b.n	8000658 <__aeabi_fadd+0x1e8>
 800051e:	1c7b      	adds	r3, r7, #1
 8000520:	2ffe      	cmp	r7, #254	; 0xfe
 8000522:	d100      	bne.n	8000526 <__aeabi_fadd+0xb6>
 8000524:	e09a      	b.n	800065c <__aeabi_fadd+0x1ec>
 8000526:	0192      	lsls	r2, r2, #6
 8000528:	0a52      	lsrs	r2, r2, #9
 800052a:	4694      	mov	ip, r2
 800052c:	b2db      	uxtb	r3, r3
 800052e:	05d8      	lsls	r0, r3, #23
 8000530:	4663      	mov	r3, ip
 8000532:	07e4      	lsls	r4, r4, #31
 8000534:	4318      	orrs	r0, r3
 8000536:	4320      	orrs	r0, r4
 8000538:	bce0      	pop	{r5, r6, r7}
 800053a:	46ba      	mov	sl, r7
 800053c:	46b1      	mov	r9, r6
 800053e:	46a8      	mov	r8, r5
 8000540:	bdf0      	pop	{r4, r5, r6, r7, pc}
 8000542:	2800      	cmp	r0, #0
 8000544:	d049      	beq.n	80005da <__aeabi_fadd+0x16a>
 8000546:	1bf3      	subs	r3, r6, r7
 8000548:	2f00      	cmp	r7, #0
 800054a:	d000      	beq.n	800054e <__aeabi_fadd+0xde>
 800054c:	e0b6      	b.n	80006bc <__aeabi_fadd+0x24c>
 800054e:	4652      	mov	r2, sl
 8000550:	2a00      	cmp	r2, #0
 8000552:	d060      	beq.n	8000616 <__aeabi_fadd+0x1a6>
 8000554:	3b01      	subs	r3, #1
 8000556:	2b00      	cmp	r3, #0
 8000558:	d100      	bne.n	800055c <__aeabi_fadd+0xec>
 800055a:	e0fc      	b.n	8000756 <__aeabi_fadd+0x2e6>
 800055c:	2eff      	cmp	r6, #255	; 0xff
 800055e:	d000      	beq.n	8000562 <__aeabi_fadd+0xf2>
 8000560:	e0b4      	b.n	80006cc <__aeabi_fadd+0x25c>
 8000562:	000c      	movs	r4, r1
 8000564:	4642      	mov	r2, r8
 8000566:	2a00      	cmp	r2, #0
 8000568:	d078      	beq.n	800065c <__aeabi_fadd+0x1ec>
 800056a:	2080      	movs	r0, #128	; 0x80
 800056c:	03c0      	lsls	r0, r0, #15
 800056e:	4310      	orrs	r0, r2
 8000570:	0242      	lsls	r2, r0, #9
 8000572:	0a53      	lsrs	r3, r2, #9
 8000574:	469c      	mov	ip, r3
 8000576:	23ff      	movs	r3, #255	; 0xff
 8000578:	e7d9      	b.n	800052e <__aeabi_fadd+0xbe>
 800057a:	1bb9      	subs	r1, r7, r6
 800057c:	2900      	cmp	r1, #0
 800057e:	dd71      	ble.n	8000664 <__aeabi_fadd+0x1f4>
 8000580:	2e00      	cmp	r6, #0
 8000582:	d03f      	beq.n	8000604 <__aeabi_fadd+0x194>
 8000584:	2fff      	cmp	r7, #255	; 0xff
 8000586:	d0ee      	beq.n	8000566 <__aeabi_fadd+0xf6>
 8000588:	2380      	movs	r3, #128	; 0x80
 800058a:	04db      	lsls	r3, r3, #19
 800058c:	431d      	orrs	r5, r3
 800058e:	2201      	movs	r2, #1
 8000590:	291b      	cmp	r1, #27
 8000592:	dc07      	bgt.n	80005a4 <__aeabi_fadd+0x134>
 8000594:	002a      	movs	r2, r5
 8000596:	2320      	movs	r3, #32
 8000598:	40ca      	lsrs	r2, r1
 800059a:	1a59      	subs	r1, r3, r1
 800059c:	408d      	lsls	r5, r1
 800059e:	1e6b      	subs	r3, r5, #1
 80005a0:	419d      	sbcs	r5, r3
 80005a2:	432a      	orrs	r2, r5
 80005a4:	4452      	add	r2, sl
 80005a6:	0153      	lsls	r3, r2, #5
 80005a8:	d553      	bpl.n	8000652 <__aeabi_fadd+0x1e2>
 80005aa:	3701      	adds	r7, #1
 80005ac:	2fff      	cmp	r7, #255	; 0xff
 80005ae:	d055      	beq.n	800065c <__aeabi_fadd+0x1ec>
 80005b0:	2301      	movs	r3, #1
 80005b2:	497b      	ldr	r1, [pc, #492]	; (80007a0 <__aeabi_fadd+0x330>)
 80005b4:	4013      	ands	r3, r2
 80005b6:	0852      	lsrs	r2, r2, #1
 80005b8:	400a      	ands	r2, r1
 80005ba:	431a      	orrs	r2, r3
 80005bc:	e7a5      	b.n	800050a <__aeabi_fadd+0x9a>
 80005be:	2d00      	cmp	r5, #0
 80005c0:	d02c      	beq.n	800061c <__aeabi_fadd+0x1ac>
 80005c2:	2301      	movs	r3, #1
 80005c4:	425b      	negs	r3, r3
 80005c6:	469c      	mov	ip, r3
 80005c8:	44e1      	add	r9, ip
 80005ca:	464b      	mov	r3, r9
 80005cc:	2b00      	cmp	r3, #0
 80005ce:	d100      	bne.n	80005d2 <__aeabi_fadd+0x162>
 80005d0:	e0ad      	b.n	800072e <__aeabi_fadd+0x2be>
 80005d2:	2fff      	cmp	r7, #255	; 0xff
 80005d4:	d000      	beq.n	80005d8 <__aeabi_fadd+0x168>
 80005d6:	e76e      	b.n	80004b6 <__aeabi_fadd+0x46>
 80005d8:	e7c5      	b.n	8000566 <__aeabi_fadd+0xf6>
 80005da:	20fe      	movs	r0, #254	; 0xfe
 80005dc:	1c7e      	adds	r6, r7, #1
 80005de:	4230      	tst	r0, r6
 80005e0:	d160      	bne.n	80006a4 <__aeabi_fadd+0x234>
 80005e2:	2f00      	cmp	r7, #0
 80005e4:	d000      	beq.n	80005e8 <__aeabi_fadd+0x178>
 80005e6:	e093      	b.n	8000710 <__aeabi_fadd+0x2a0>
 80005e8:	4652      	mov	r2, sl
 80005ea:	2a00      	cmp	r2, #0
 80005ec:	d100      	bne.n	80005f0 <__aeabi_fadd+0x180>
 80005ee:	e0b6      	b.n	800075e <__aeabi_fadd+0x2ee>
 80005f0:	2d00      	cmp	r5, #0
 80005f2:	d09c      	beq.n	800052e <__aeabi_fadd+0xbe>
 80005f4:	1b52      	subs	r2, r2, r5
 80005f6:	0150      	lsls	r0, r2, #5
 80005f8:	d400      	bmi.n	80005fc <__aeabi_fadd+0x18c>
 80005fa:	e0c3      	b.n	8000784 <__aeabi_fadd+0x314>
 80005fc:	4653      	mov	r3, sl
 80005fe:	000c      	movs	r4, r1
 8000600:	1aea      	subs	r2, r5, r3
 8000602:	e782      	b.n	800050a <__aeabi_fadd+0x9a>
 8000604:	2d00      	cmp	r5, #0
 8000606:	d009      	beq.n	800061c <__aeabi_fadd+0x1ac>
 8000608:	3901      	subs	r1, #1
 800060a:	2900      	cmp	r1, #0
 800060c:	d100      	bne.n	8000610 <__aeabi_fadd+0x1a0>
 800060e:	e08b      	b.n	8000728 <__aeabi_fadd+0x2b8>
 8000610:	2fff      	cmp	r7, #255	; 0xff
 8000612:	d1bc      	bne.n	800058e <__aeabi_fadd+0x11e>
 8000614:	e7a7      	b.n	8000566 <__aeabi_fadd+0xf6>
 8000616:	000c      	movs	r4, r1
 8000618:	4642      	mov	r2, r8
 800061a:	0037      	movs	r7, r6
 800061c:	2fff      	cmp	r7, #255	; 0xff
 800061e:	d0a2      	beq.n	8000566 <__aeabi_fadd+0xf6>
 8000620:	0252      	lsls	r2, r2, #9
 8000622:	0a53      	lsrs	r3, r2, #9
 8000624:	469c      	mov	ip, r3
 8000626:	b2fb      	uxtb	r3, r7
 8000628:	e781      	b.n	800052e <__aeabi_fadd+0xbe>
 800062a:	21fe      	movs	r1, #254	; 0xfe
 800062c:	3701      	adds	r7, #1
 800062e:	4239      	tst	r1, r7
 8000630:	d165      	bne.n	80006fe <__aeabi_fadd+0x28e>
 8000632:	2b00      	cmp	r3, #0
 8000634:	d17e      	bne.n	8000734 <__aeabi_fadd+0x2c4>
 8000636:	2800      	cmp	r0, #0
 8000638:	d100      	bne.n	800063c <__aeabi_fadd+0x1cc>
 800063a:	e0aa      	b.n	8000792 <__aeabi_fadd+0x322>
 800063c:	2d00      	cmp	r5, #0
 800063e:	d100      	bne.n	8000642 <__aeabi_fadd+0x1d2>
 8000640:	e775      	b.n	800052e <__aeabi_fadd+0xbe>
 8000642:	002a      	movs	r2, r5
 8000644:	4452      	add	r2, sl
 8000646:	2700      	movs	r7, #0
 8000648:	0153      	lsls	r3, r2, #5
 800064a:	d502      	bpl.n	8000652 <__aeabi_fadd+0x1e2>
 800064c:	4b55      	ldr	r3, [pc, #340]	; (80007a4 <__aeabi_fadd+0x334>)
 800064e:	3701      	adds	r7, #1
 8000650:	401a      	ands	r2, r3
 8000652:	0753      	lsls	r3, r2, #29
 8000654:	d000      	beq.n	8000658 <__aeabi_fadd+0x1e8>
 8000656:	e75a      	b.n	800050e <__aeabi_fadd+0x9e>
 8000658:	08d2      	lsrs	r2, r2, #3
 800065a:	e7df      	b.n	800061c <__aeabi_fadd+0x1ac>
 800065c:	2200      	movs	r2, #0
 800065e:	23ff      	movs	r3, #255	; 0xff
 8000660:	4694      	mov	ip, r2
 8000662:	e764      	b.n	800052e <__aeabi_fadd+0xbe>
 8000664:	2900      	cmp	r1, #0
 8000666:	d0e0      	beq.n	800062a <__aeabi_fadd+0x1ba>
 8000668:	1bf3      	subs	r3, r6, r7
 800066a:	2f00      	cmp	r7, #0
 800066c:	d03e      	beq.n	80006ec <__aeabi_fadd+0x27c>
 800066e:	2eff      	cmp	r6, #255	; 0xff
 8000670:	d100      	bne.n	8000674 <__aeabi_fadd+0x204>
 8000672:	e777      	b.n	8000564 <__aeabi_fadd+0xf4>
 8000674:	2280      	movs	r2, #128	; 0x80
 8000676:	0001      	movs	r1, r0
 8000678:	04d2      	lsls	r2, r2, #19
 800067a:	4311      	orrs	r1, r2
 800067c:	468a      	mov	sl, r1
 800067e:	2201      	movs	r2, #1
 8000680:	2b1b      	cmp	r3, #27
 8000682:	dc08      	bgt.n	8000696 <__aeabi_fadd+0x226>
 8000684:	4652      	mov	r2, sl
 8000686:	2120      	movs	r1, #32
 8000688:	4650      	mov	r0, sl
 800068a:	40da      	lsrs	r2, r3
 800068c:	1acb      	subs	r3, r1, r3
 800068e:	4098      	lsls	r0, r3
 8000690:	1e43      	subs	r3, r0, #1
 8000692:	4198      	sbcs	r0, r3
 8000694:	4302      	orrs	r2, r0
 8000696:	0037      	movs	r7, r6
 8000698:	1952      	adds	r2, r2, r5
 800069a:	e784      	b.n	80005a6 <__aeabi_fadd+0x136>
 800069c:	4a41      	ldr	r2, [pc, #260]	; (80007a4 <__aeabi_fadd+0x334>)
 800069e:	1a3f      	subs	r7, r7, r0
 80006a0:	4032      	ands	r2, r6
 80006a2:	e732      	b.n	800050a <__aeabi_fadd+0x9a>
 80006a4:	4653      	mov	r3, sl
 80006a6:	1b5e      	subs	r6, r3, r5
 80006a8:	0173      	lsls	r3, r6, #5
 80006aa:	d42d      	bmi.n	8000708 <__aeabi_fadd+0x298>
 80006ac:	2e00      	cmp	r6, #0
 80006ae:	d000      	beq.n	80006b2 <__aeabi_fadd+0x242>
 80006b0:	e717      	b.n	80004e2 <__aeabi_fadd+0x72>
 80006b2:	2200      	movs	r2, #0
 80006b4:	2400      	movs	r4, #0
 80006b6:	2300      	movs	r3, #0
 80006b8:	4694      	mov	ip, r2
 80006ba:	e738      	b.n	800052e <__aeabi_fadd+0xbe>
 80006bc:	2eff      	cmp	r6, #255	; 0xff
 80006be:	d100      	bne.n	80006c2 <__aeabi_fadd+0x252>
 80006c0:	e74f      	b.n	8000562 <__aeabi_fadd+0xf2>
 80006c2:	2280      	movs	r2, #128	; 0x80
 80006c4:	4650      	mov	r0, sl
 80006c6:	04d2      	lsls	r2, r2, #19
 80006c8:	4310      	orrs	r0, r2
 80006ca:	4682      	mov	sl, r0
 80006cc:	2201      	movs	r2, #1
 80006ce:	2b1b      	cmp	r3, #27
 80006d0:	dc08      	bgt.n	80006e4 <__aeabi_fadd+0x274>
 80006d2:	4652      	mov	r2, sl
 80006d4:	2420      	movs	r4, #32
 80006d6:	4650      	mov	r0, sl
 80006d8:	40da      	lsrs	r2, r3
 80006da:	1ae3      	subs	r3, r4, r3
 80006dc:	4098      	lsls	r0, r3
 80006de:	1e43      	subs	r3, r0, #1
 80006e0:	4198      	sbcs	r0, r3
 80006e2:	4302      	orrs	r2, r0
 80006e4:	000c      	movs	r4, r1
 80006e6:	0037      	movs	r7, r6
 80006e8:	1aaa      	subs	r2, r5, r2
 80006ea:	e6f5      	b.n	80004d8 <__aeabi_fadd+0x68>
 80006ec:	2800      	cmp	r0, #0
 80006ee:	d093      	beq.n	8000618 <__aeabi_fadd+0x1a8>
 80006f0:	3b01      	subs	r3, #1
 80006f2:	2b00      	cmp	r3, #0
 80006f4:	d04f      	beq.n	8000796 <__aeabi_fadd+0x326>
 80006f6:	2eff      	cmp	r6, #255	; 0xff
 80006f8:	d1c1      	bne.n	800067e <__aeabi_fadd+0x20e>
 80006fa:	4642      	mov	r2, r8
 80006fc:	e733      	b.n	8000566 <__aeabi_fadd+0xf6>
 80006fe:	2fff      	cmp	r7, #255	; 0xff
 8000700:	d0ac      	beq.n	800065c <__aeabi_fadd+0x1ec>
 8000702:	4455      	add	r5, sl
 8000704:	086a      	lsrs	r2, r5, #1
 8000706:	e7a4      	b.n	8000652 <__aeabi_fadd+0x1e2>
 8000708:	4653      	mov	r3, sl
 800070a:	000c      	movs	r4, r1
 800070c:	1aee      	subs	r6, r5, r3
 800070e:	e6e8      	b.n	80004e2 <__aeabi_fadd+0x72>
 8000710:	4653      	mov	r3, sl
 8000712:	2b00      	cmp	r3, #0
 8000714:	d128      	bne.n	8000768 <__aeabi_fadd+0x2f8>
 8000716:	2d00      	cmp	r5, #0
 8000718:	d000      	beq.n	800071c <__aeabi_fadd+0x2ac>
 800071a:	e722      	b.n	8000562 <__aeabi_fadd+0xf2>
 800071c:	2380      	movs	r3, #128	; 0x80
 800071e:	03db      	lsls	r3, r3, #15
 8000720:	469c      	mov	ip, r3
 8000722:	2400      	movs	r4, #0
 8000724:	23ff      	movs	r3, #255	; 0xff
 8000726:	e702      	b.n	800052e <__aeabi_fadd+0xbe>
 8000728:	002a      	movs	r2, r5
 800072a:	4452      	add	r2, sl
 800072c:	e73b      	b.n	80005a6 <__aeabi_fadd+0x136>
 800072e:	4653      	mov	r3, sl
 8000730:	1b5a      	subs	r2, r3, r5
 8000732:	e6d1      	b.n	80004d8 <__aeabi_fadd+0x68>
 8000734:	2800      	cmp	r0, #0
 8000736:	d100      	bne.n	800073a <__aeabi_fadd+0x2ca>
 8000738:	e714      	b.n	8000564 <__aeabi_fadd+0xf4>
 800073a:	2d00      	cmp	r5, #0
 800073c:	d100      	bne.n	8000740 <__aeabi_fadd+0x2d0>
 800073e:	e712      	b.n	8000566 <__aeabi_fadd+0xf6>
 8000740:	2380      	movs	r3, #128	; 0x80
 8000742:	03db      	lsls	r3, r3, #15
 8000744:	421a      	tst	r2, r3
 8000746:	d100      	bne.n	800074a <__aeabi_fadd+0x2da>
 8000748:	e70d      	b.n	8000566 <__aeabi_fadd+0xf6>
 800074a:	4641      	mov	r1, r8
 800074c:	4219      	tst	r1, r3
 800074e:	d000      	beq.n	8000752 <__aeabi_fadd+0x2e2>
 8000750:	e709      	b.n	8000566 <__aeabi_fadd+0xf6>
 8000752:	4642      	mov	r2, r8
 8000754:	e707      	b.n	8000566 <__aeabi_fadd+0xf6>
 8000756:	000c      	movs	r4, r1
 8000758:	0037      	movs	r7, r6
 800075a:	1aaa      	subs	r2, r5, r2
 800075c:	e6bc      	b.n	80004d8 <__aeabi_fadd+0x68>
 800075e:	2d00      	cmp	r5, #0
 8000760:	d013      	beq.n	800078a <__aeabi_fadd+0x31a>
 8000762:	000c      	movs	r4, r1
 8000764:	46c4      	mov	ip, r8
 8000766:	e6e2      	b.n	800052e <__aeabi_fadd+0xbe>
 8000768:	2d00      	cmp	r5, #0
 800076a:	d100      	bne.n	800076e <__aeabi_fadd+0x2fe>
 800076c:	e6fb      	b.n	8000566 <__aeabi_fadd+0xf6>
 800076e:	2380      	movs	r3, #128	; 0x80
 8000770:	03db      	lsls	r3, r3, #15
 8000772:	421a      	tst	r2, r3
 8000774:	d100      	bne.n	8000778 <__aeabi_fadd+0x308>
 8000776:	e6f6      	b.n	8000566 <__aeabi_fadd+0xf6>
 8000778:	4640      	mov	r0, r8
 800077a:	4218      	tst	r0, r3
 800077c:	d000      	beq.n	8000780 <__aeabi_fadd+0x310>
 800077e:	e6f2      	b.n	8000566 <__aeabi_fadd+0xf6>
 8000780:	000c      	movs	r4, r1
 8000782:	e6ef      	b.n	8000564 <__aeabi_fadd+0xf4>
 8000784:	2a00      	cmp	r2, #0
 8000786:	d000      	beq.n	800078a <__aeabi_fadd+0x31a>
 8000788:	e763      	b.n	8000652 <__aeabi_fadd+0x1e2>
 800078a:	2200      	movs	r2, #0
 800078c:	2400      	movs	r4, #0
 800078e:	4694      	mov	ip, r2
 8000790:	e6cd      	b.n	800052e <__aeabi_fadd+0xbe>
 8000792:	46c4      	mov	ip, r8
 8000794:	e6cb      	b.n	800052e <__aeabi_fadd+0xbe>
 8000796:	002a      	movs	r2, r5
 8000798:	0037      	movs	r7, r6
 800079a:	4452      	add	r2, sl
 800079c:	e703      	b.n	80005a6 <__aeabi_fadd+0x136>
 800079e:	46c0      	nop			; (mov r8, r8)
 80007a0:	7dffffff 	.word	0x7dffffff
 80007a4:	fbffffff 	.word	0xfbffffff

080007a8 <__aeabi_fdiv>:
 80007a8:	b5f0      	push	{r4, r5, r6, r7, lr}
 80007aa:	464f      	mov	r7, r9
 80007ac:	4646      	mov	r6, r8
 80007ae:	46d6      	mov	lr, sl
 80007b0:	0245      	lsls	r5, r0, #9
 80007b2:	b5c0      	push	{r6, r7, lr}
 80007b4:	0047      	lsls	r7, r0, #1
 80007b6:	1c0c      	adds	r4, r1, #0
 80007b8:	0a6d      	lsrs	r5, r5, #9
 80007ba:	0e3f      	lsrs	r7, r7, #24
 80007bc:	0fc6      	lsrs	r6, r0, #31
 80007be:	2f00      	cmp	r7, #0
 80007c0:	d066      	beq.n	8000890 <__aeabi_fdiv+0xe8>
 80007c2:	2fff      	cmp	r7, #255	; 0xff
 80007c4:	d06c      	beq.n	80008a0 <__aeabi_fdiv+0xf8>
 80007c6:	2300      	movs	r3, #0
 80007c8:	00ea      	lsls	r2, r5, #3
 80007ca:	2580      	movs	r5, #128	; 0x80
 80007cc:	4699      	mov	r9, r3
 80007ce:	469a      	mov	sl, r3
 80007d0:	04ed      	lsls	r5, r5, #19
 80007d2:	4315      	orrs	r5, r2
 80007d4:	3f7f      	subs	r7, #127	; 0x7f
 80007d6:	0260      	lsls	r0, r4, #9
 80007d8:	0061      	lsls	r1, r4, #1
 80007da:	0a43      	lsrs	r3, r0, #9
 80007dc:	4698      	mov	r8, r3
 80007de:	0e09      	lsrs	r1, r1, #24
 80007e0:	0fe4      	lsrs	r4, r4, #31
 80007e2:	2900      	cmp	r1, #0
 80007e4:	d048      	beq.n	8000878 <__aeabi_fdiv+0xd0>
 80007e6:	29ff      	cmp	r1, #255	; 0xff
 80007e8:	d010      	beq.n	800080c <__aeabi_fdiv+0x64>
 80007ea:	2280      	movs	r2, #128	; 0x80
 80007ec:	00d8      	lsls	r0, r3, #3
 80007ee:	04d2      	lsls	r2, r2, #19
 80007f0:	4302      	orrs	r2, r0
 80007f2:	4690      	mov	r8, r2
 80007f4:	2000      	movs	r0, #0
 80007f6:	397f      	subs	r1, #127	; 0x7f
 80007f8:	464a      	mov	r2, r9
 80007fa:	0033      	movs	r3, r6
 80007fc:	1a7f      	subs	r7, r7, r1
 80007fe:	4302      	orrs	r2, r0
 8000800:	496c      	ldr	r1, [pc, #432]	; (80009b4 <__aeabi_fdiv+0x20c>)
 8000802:	0092      	lsls	r2, r2, #2
 8000804:	588a      	ldr	r2, [r1, r2]
 8000806:	4063      	eors	r3, r4
 8000808:	b2db      	uxtb	r3, r3
 800080a:	4697      	mov	pc, r2
 800080c:	2b00      	cmp	r3, #0
 800080e:	d16d      	bne.n	80008ec <__aeabi_fdiv+0x144>
 8000810:	2002      	movs	r0, #2
 8000812:	3fff      	subs	r7, #255	; 0xff
 8000814:	e033      	b.n	800087e <__aeabi_fdiv+0xd6>
 8000816:	2300      	movs	r3, #0
 8000818:	4698      	mov	r8, r3
 800081a:	0026      	movs	r6, r4
 800081c:	4645      	mov	r5, r8
 800081e:	4682      	mov	sl, r0
 8000820:	4653      	mov	r3, sl
 8000822:	2b02      	cmp	r3, #2
 8000824:	d100      	bne.n	8000828 <__aeabi_fdiv+0x80>
 8000826:	e07f      	b.n	8000928 <__aeabi_fdiv+0x180>
 8000828:	2b03      	cmp	r3, #3
 800082a:	d100      	bne.n	800082e <__aeabi_fdiv+0x86>
 800082c:	e094      	b.n	8000958 <__aeabi_fdiv+0x1b0>
 800082e:	2b01      	cmp	r3, #1
 8000830:	d017      	beq.n	8000862 <__aeabi_fdiv+0xba>
 8000832:	0038      	movs	r0, r7
 8000834:	307f      	adds	r0, #127	; 0x7f
 8000836:	2800      	cmp	r0, #0
 8000838:	dd5f      	ble.n	80008fa <__aeabi_fdiv+0x152>
 800083a:	076b      	lsls	r3, r5, #29
 800083c:	d004      	beq.n	8000848 <__aeabi_fdiv+0xa0>
 800083e:	230f      	movs	r3, #15
 8000840:	402b      	ands	r3, r5
 8000842:	2b04      	cmp	r3, #4
 8000844:	d000      	beq.n	8000848 <__aeabi_fdiv+0xa0>
 8000846:	3504      	adds	r5, #4
 8000848:	012b      	lsls	r3, r5, #4
 800084a:	d503      	bpl.n	8000854 <__aeabi_fdiv+0xac>
 800084c:	0038      	movs	r0, r7
 800084e:	4b5a      	ldr	r3, [pc, #360]	; (80009b8 <__aeabi_fdiv+0x210>)
 8000850:	3080      	adds	r0, #128	; 0x80
 8000852:	401d      	ands	r5, r3
 8000854:	28fe      	cmp	r0, #254	; 0xfe
 8000856:	dc67      	bgt.n	8000928 <__aeabi_fdiv+0x180>
 8000858:	01ad      	lsls	r5, r5, #6
 800085a:	0a6d      	lsrs	r5, r5, #9
 800085c:	b2c0      	uxtb	r0, r0
 800085e:	e002      	b.n	8000866 <__aeabi_fdiv+0xbe>
 8000860:	001e      	movs	r6, r3
 8000862:	2000      	movs	r0, #0
 8000864:	2500      	movs	r5, #0
 8000866:	05c0      	lsls	r0, r0, #23
 8000868:	4328      	orrs	r0, r5
 800086a:	07f6      	lsls	r6, r6, #31
 800086c:	4330      	orrs	r0, r6
 800086e:	bce0      	pop	{r5, r6, r7}
 8000870:	46ba      	mov	sl, r7
 8000872:	46b1      	mov	r9, r6
 8000874:	46a8      	mov	r8, r5
 8000876:	bdf0      	pop	{r4, r5, r6, r7, pc}
 8000878:	2b00      	cmp	r3, #0
 800087a:	d12b      	bne.n	80008d4 <__aeabi_fdiv+0x12c>
 800087c:	2001      	movs	r0, #1
 800087e:	464a      	mov	r2, r9
 8000880:	0033      	movs	r3, r6
 8000882:	494e      	ldr	r1, [pc, #312]	; (80009bc <__aeabi_fdiv+0x214>)
 8000884:	4302      	orrs	r2, r0
 8000886:	0092      	lsls	r2, r2, #2
 8000888:	588a      	ldr	r2, [r1, r2]
 800088a:	4063      	eors	r3, r4
 800088c:	b2db      	uxtb	r3, r3
 800088e:	4697      	mov	pc, r2
 8000890:	2d00      	cmp	r5, #0
 8000892:	d113      	bne.n	80008bc <__aeabi_fdiv+0x114>
 8000894:	2304      	movs	r3, #4
 8000896:	4699      	mov	r9, r3
 8000898:	3b03      	subs	r3, #3
 800089a:	2700      	movs	r7, #0
 800089c:	469a      	mov	sl, r3
 800089e:	e79a      	b.n	80007d6 <__aeabi_fdiv+0x2e>
 80008a0:	2d00      	cmp	r5, #0
 80008a2:	d105      	bne.n	80008b0 <__aeabi_fdiv+0x108>
 80008a4:	2308      	movs	r3, #8
 80008a6:	4699      	mov	r9, r3
 80008a8:	3b06      	subs	r3, #6
 80008aa:	27ff      	movs	r7, #255	; 0xff
 80008ac:	469a      	mov	sl, r3
 80008ae:	e792      	b.n	80007d6 <__aeabi_fdiv+0x2e>
 80008b0:	230c      	movs	r3, #12
 80008b2:	4699      	mov	r9, r3
 80008b4:	3b09      	subs	r3, #9
 80008b6:	27ff      	movs	r7, #255	; 0xff
 80008b8:	469a      	mov	sl, r3
 80008ba:	e78c      	b.n	80007d6 <__aeabi_fdiv+0x2e>
 80008bc:	0028      	movs	r0, r5
 80008be:	f001 fb23 	bl	8001f08 <__clzsi2>
 80008c2:	2776      	movs	r7, #118	; 0x76
 80008c4:	1f43      	subs	r3, r0, #5
 80008c6:	409d      	lsls	r5, r3
 80008c8:	2300      	movs	r3, #0
 80008ca:	427f      	negs	r7, r7
 80008cc:	4699      	mov	r9, r3
 80008ce:	469a      	mov	sl, r3
 80008d0:	1a3f      	subs	r7, r7, r0
 80008d2:	e780      	b.n	80007d6 <__aeabi_fdiv+0x2e>
 80008d4:	0018      	movs	r0, r3
 80008d6:	f001 fb17 	bl	8001f08 <__clzsi2>
 80008da:	4642      	mov	r2, r8
 80008dc:	1f43      	subs	r3, r0, #5
 80008de:	2176      	movs	r1, #118	; 0x76
 80008e0:	409a      	lsls	r2, r3
 80008e2:	4249      	negs	r1, r1
 80008e4:	1a09      	subs	r1, r1, r0
 80008e6:	4690      	mov	r8, r2
 80008e8:	2000      	movs	r0, #0
 80008ea:	e785      	b.n	80007f8 <__aeabi_fdiv+0x50>
 80008ec:	21ff      	movs	r1, #255	; 0xff
 80008ee:	2003      	movs	r0, #3
 80008f0:	e782      	b.n	80007f8 <__aeabi_fdiv+0x50>
 80008f2:	001e      	movs	r6, r3
 80008f4:	20ff      	movs	r0, #255	; 0xff
 80008f6:	2500      	movs	r5, #0
 80008f8:	e7b5      	b.n	8000866 <__aeabi_fdiv+0xbe>
 80008fa:	2301      	movs	r3, #1
 80008fc:	1a1b      	subs	r3, r3, r0
 80008fe:	2b1b      	cmp	r3, #27
 8000900:	dcaf      	bgt.n	8000862 <__aeabi_fdiv+0xba>
 8000902:	379e      	adds	r7, #158	; 0x9e
 8000904:	0029      	movs	r1, r5
 8000906:	40bd      	lsls	r5, r7
 8000908:	40d9      	lsrs	r1, r3
 800090a:	1e6a      	subs	r2, r5, #1
 800090c:	4195      	sbcs	r5, r2
 800090e:	430d      	orrs	r5, r1
 8000910:	076b      	lsls	r3, r5, #29
 8000912:	d004      	beq.n	800091e <__aeabi_fdiv+0x176>
 8000914:	230f      	movs	r3, #15
 8000916:	402b      	ands	r3, r5
 8000918:	2b04      	cmp	r3, #4
 800091a:	d000      	beq.n	800091e <__aeabi_fdiv+0x176>
 800091c:	3504      	adds	r5, #4
 800091e:	016b      	lsls	r3, r5, #5
 8000920:	d544      	bpl.n	80009ac <__aeabi_fdiv+0x204>
 8000922:	2001      	movs	r0, #1
 8000924:	2500      	movs	r5, #0
 8000926:	e79e      	b.n	8000866 <__aeabi_fdiv+0xbe>
 8000928:	20ff      	movs	r0, #255	; 0xff
 800092a:	2500      	movs	r5, #0
 800092c:	e79b      	b.n	8000866 <__aeabi_fdiv+0xbe>
 800092e:	2580      	movs	r5, #128	; 0x80
 8000930:	2600      	movs	r6, #0
 8000932:	20ff      	movs	r0, #255	; 0xff
 8000934:	03ed      	lsls	r5, r5, #15
 8000936:	e796      	b.n	8000866 <__aeabi_fdiv+0xbe>
 8000938:	2300      	movs	r3, #0
 800093a:	4698      	mov	r8, r3
 800093c:	2080      	movs	r0, #128	; 0x80
 800093e:	03c0      	lsls	r0, r0, #15
 8000940:	4205      	tst	r5, r0
 8000942:	d009      	beq.n	8000958 <__aeabi_fdiv+0x1b0>
 8000944:	4643      	mov	r3, r8
 8000946:	4203      	tst	r3, r0
 8000948:	d106      	bne.n	8000958 <__aeabi_fdiv+0x1b0>
 800094a:	4645      	mov	r5, r8
 800094c:	4305      	orrs	r5, r0
 800094e:	026d      	lsls	r5, r5, #9
 8000950:	0026      	movs	r6, r4
 8000952:	20ff      	movs	r0, #255	; 0xff
 8000954:	0a6d      	lsrs	r5, r5, #9
 8000956:	e786      	b.n	8000866 <__aeabi_fdiv+0xbe>
 8000958:	2080      	movs	r0, #128	; 0x80
 800095a:	03c0      	lsls	r0, r0, #15
 800095c:	4305      	orrs	r5, r0
 800095e:	026d      	lsls	r5, r5, #9
 8000960:	20ff      	movs	r0, #255	; 0xff
 8000962:	0a6d      	lsrs	r5, r5, #9
 8000964:	e77f      	b.n	8000866 <__aeabi_fdiv+0xbe>
 8000966:	4641      	mov	r1, r8
 8000968:	016a      	lsls	r2, r5, #5
 800096a:	0148      	lsls	r0, r1, #5
 800096c:	4282      	cmp	r2, r0
 800096e:	d219      	bcs.n	80009a4 <__aeabi_fdiv+0x1fc>
 8000970:	211b      	movs	r1, #27
 8000972:	2500      	movs	r5, #0
 8000974:	3f01      	subs	r7, #1
 8000976:	2601      	movs	r6, #1
 8000978:	0014      	movs	r4, r2
 800097a:	006d      	lsls	r5, r5, #1
 800097c:	0052      	lsls	r2, r2, #1
 800097e:	2c00      	cmp	r4, #0
 8000980:	db01      	blt.n	8000986 <__aeabi_fdiv+0x1de>
 8000982:	4290      	cmp	r0, r2
 8000984:	d801      	bhi.n	800098a <__aeabi_fdiv+0x1e2>
 8000986:	1a12      	subs	r2, r2, r0
 8000988:	4335      	orrs	r5, r6
 800098a:	3901      	subs	r1, #1
 800098c:	2900      	cmp	r1, #0
 800098e:	d1f3      	bne.n	8000978 <__aeabi_fdiv+0x1d0>
 8000990:	1e50      	subs	r0, r2, #1
 8000992:	4182      	sbcs	r2, r0
 8000994:	0038      	movs	r0, r7
 8000996:	307f      	adds	r0, #127	; 0x7f
 8000998:	001e      	movs	r6, r3
 800099a:	4315      	orrs	r5, r2
 800099c:	2800      	cmp	r0, #0
 800099e:	dd00      	ble.n	80009a2 <__aeabi_fdiv+0x1fa>
 80009a0:	e74b      	b.n	800083a <__aeabi_fdiv+0x92>
 80009a2:	e7aa      	b.n	80008fa <__aeabi_fdiv+0x152>
 80009a4:	211a      	movs	r1, #26
 80009a6:	2501      	movs	r5, #1
 80009a8:	1a12      	subs	r2, r2, r0
 80009aa:	e7e4      	b.n	8000976 <__aeabi_fdiv+0x1ce>
 80009ac:	01ad      	lsls	r5, r5, #6
 80009ae:	2000      	movs	r0, #0
 80009b0:	0a6d      	lsrs	r5, r5, #9
 80009b2:	e758      	b.n	8000866 <__aeabi_fdiv+0xbe>
 80009b4:	0800570c 	.word	0x0800570c
 80009b8:	f7ffffff 	.word	0xf7ffffff
 80009bc:	0800574c 	.word	0x0800574c

080009c0 <__aeabi_fmul>:
 80009c0:	b5f8      	push	{r3, r4, r5, r6, r7, lr}
 80009c2:	4657      	mov	r7, sl
 80009c4:	464e      	mov	r6, r9
 80009c6:	4645      	mov	r5, r8
 80009c8:	46de      	mov	lr, fp
 80009ca:	0244      	lsls	r4, r0, #9
 80009cc:	b5e0      	push	{r5, r6, r7, lr}
 80009ce:	0045      	lsls	r5, r0, #1
 80009d0:	1c0f      	adds	r7, r1, #0
 80009d2:	0a64      	lsrs	r4, r4, #9
 80009d4:	0e2d      	lsrs	r5, r5, #24
 80009d6:	0fc6      	lsrs	r6, r0, #31
 80009d8:	2d00      	cmp	r5, #0
 80009da:	d047      	beq.n	8000a6c <__aeabi_fmul+0xac>
 80009dc:	2dff      	cmp	r5, #255	; 0xff
 80009de:	d04d      	beq.n	8000a7c <__aeabi_fmul+0xbc>
 80009e0:	2300      	movs	r3, #0
 80009e2:	2080      	movs	r0, #128	; 0x80
 80009e4:	469a      	mov	sl, r3
 80009e6:	469b      	mov	fp, r3
 80009e8:	00e4      	lsls	r4, r4, #3
 80009ea:	04c0      	lsls	r0, r0, #19
 80009ec:	4304      	orrs	r4, r0
 80009ee:	3d7f      	subs	r5, #127	; 0x7f
 80009f0:	0278      	lsls	r0, r7, #9
 80009f2:	0a43      	lsrs	r3, r0, #9
 80009f4:	4699      	mov	r9, r3
 80009f6:	007a      	lsls	r2, r7, #1
 80009f8:	0ffb      	lsrs	r3, r7, #31
 80009fa:	4698      	mov	r8, r3
 80009fc:	0e12      	lsrs	r2, r2, #24
 80009fe:	464b      	mov	r3, r9
 8000a00:	d044      	beq.n	8000a8c <__aeabi_fmul+0xcc>
 8000a02:	2aff      	cmp	r2, #255	; 0xff
 8000a04:	d011      	beq.n	8000a2a <__aeabi_fmul+0x6a>
 8000a06:	00d8      	lsls	r0, r3, #3
 8000a08:	2380      	movs	r3, #128	; 0x80
 8000a0a:	04db      	lsls	r3, r3, #19
 8000a0c:	4303      	orrs	r3, r0
 8000a0e:	4699      	mov	r9, r3
 8000a10:	2000      	movs	r0, #0
 8000a12:	3a7f      	subs	r2, #127	; 0x7f
 8000a14:	18ad      	adds	r5, r5, r2
 8000a16:	4647      	mov	r7, r8
 8000a18:	4653      	mov	r3, sl
 8000a1a:	4077      	eors	r7, r6
 8000a1c:	1c69      	adds	r1, r5, #1
 8000a1e:	2b0f      	cmp	r3, #15
 8000a20:	d83f      	bhi.n	8000aa2 <__aeabi_fmul+0xe2>
 8000a22:	4a72      	ldr	r2, [pc, #456]	; (8000bec <__aeabi_fmul+0x22c>)
 8000a24:	009b      	lsls	r3, r3, #2
 8000a26:	58d3      	ldr	r3, [r2, r3]
 8000a28:	469f      	mov	pc, r3
 8000a2a:	35ff      	adds	r5, #255	; 0xff
 8000a2c:	2b00      	cmp	r3, #0
 8000a2e:	d000      	beq.n	8000a32 <__aeabi_fmul+0x72>
 8000a30:	e079      	b.n	8000b26 <__aeabi_fmul+0x166>
 8000a32:	4652      	mov	r2, sl
 8000a34:	2302      	movs	r3, #2
 8000a36:	431a      	orrs	r2, r3
 8000a38:	4692      	mov	sl, r2
 8000a3a:	2002      	movs	r0, #2
 8000a3c:	e7eb      	b.n	8000a16 <__aeabi_fmul+0x56>
 8000a3e:	4647      	mov	r7, r8
 8000a40:	464c      	mov	r4, r9
 8000a42:	4683      	mov	fp, r0
 8000a44:	465b      	mov	r3, fp
 8000a46:	2b02      	cmp	r3, #2
 8000a48:	d028      	beq.n	8000a9c <__aeabi_fmul+0xdc>
 8000a4a:	2b03      	cmp	r3, #3
 8000a4c:	d100      	bne.n	8000a50 <__aeabi_fmul+0x90>
 8000a4e:	e0c6      	b.n	8000bde <__aeabi_fmul+0x21e>
 8000a50:	2b01      	cmp	r3, #1
 8000a52:	d14f      	bne.n	8000af4 <__aeabi_fmul+0x134>
 8000a54:	2000      	movs	r0, #0
 8000a56:	2400      	movs	r4, #0
 8000a58:	05c0      	lsls	r0, r0, #23
 8000a5a:	07ff      	lsls	r7, r7, #31
 8000a5c:	4320      	orrs	r0, r4
 8000a5e:	4338      	orrs	r0, r7
 8000a60:	bcf0      	pop	{r4, r5, r6, r7}
 8000a62:	46bb      	mov	fp, r7
 8000a64:	46b2      	mov	sl, r6
 8000a66:	46a9      	mov	r9, r5
 8000a68:	46a0      	mov	r8, r4
 8000a6a:	bdf8      	pop	{r3, r4, r5, r6, r7, pc}
 8000a6c:	2c00      	cmp	r4, #0
 8000a6e:	d171      	bne.n	8000b54 <__aeabi_fmul+0x194>
 8000a70:	2304      	movs	r3, #4
 8000a72:	469a      	mov	sl, r3
 8000a74:	3b03      	subs	r3, #3
 8000a76:	2500      	movs	r5, #0
 8000a78:	469b      	mov	fp, r3
 8000a7a:	e7b9      	b.n	80009f0 <__aeabi_fmul+0x30>
 8000a7c:	2c00      	cmp	r4, #0
 8000a7e:	d163      	bne.n	8000b48 <__aeabi_fmul+0x188>
 8000a80:	2308      	movs	r3, #8
 8000a82:	469a      	mov	sl, r3
 8000a84:	3b06      	subs	r3, #6
 8000a86:	25ff      	movs	r5, #255	; 0xff
 8000a88:	469b      	mov	fp, r3
 8000a8a:	e7b1      	b.n	80009f0 <__aeabi_fmul+0x30>
 8000a8c:	2b00      	cmp	r3, #0
 8000a8e:	d150      	bne.n	8000b32 <__aeabi_fmul+0x172>
 8000a90:	4652      	mov	r2, sl
 8000a92:	3301      	adds	r3, #1
 8000a94:	431a      	orrs	r2, r3
 8000a96:	4692      	mov	sl, r2
 8000a98:	2001      	movs	r0, #1
 8000a9a:	e7bc      	b.n	8000a16 <__aeabi_fmul+0x56>
 8000a9c:	20ff      	movs	r0, #255	; 0xff
 8000a9e:	2400      	movs	r4, #0
 8000aa0:	e7da      	b.n	8000a58 <__aeabi_fmul+0x98>
 8000aa2:	4648      	mov	r0, r9
 8000aa4:	0c26      	lsrs	r6, r4, #16
 8000aa6:	0424      	lsls	r4, r4, #16
 8000aa8:	0c22      	lsrs	r2, r4, #16
 8000aaa:	0404      	lsls	r4, r0, #16
 8000aac:	0c24      	lsrs	r4, r4, #16
 8000aae:	464b      	mov	r3, r9
 8000ab0:	0020      	movs	r0, r4
 8000ab2:	0c1b      	lsrs	r3, r3, #16
 8000ab4:	4350      	muls	r0, r2
 8000ab6:	4374      	muls	r4, r6
 8000ab8:	435a      	muls	r2, r3
 8000aba:	435e      	muls	r6, r3
 8000abc:	1912      	adds	r2, r2, r4
 8000abe:	0c03      	lsrs	r3, r0, #16
 8000ac0:	189b      	adds	r3, r3, r2
 8000ac2:	429c      	cmp	r4, r3
 8000ac4:	d903      	bls.n	8000ace <__aeabi_fmul+0x10e>
 8000ac6:	2280      	movs	r2, #128	; 0x80
 8000ac8:	0252      	lsls	r2, r2, #9
 8000aca:	4694      	mov	ip, r2
 8000acc:	4466      	add	r6, ip
 8000ace:	0400      	lsls	r0, r0, #16
 8000ad0:	041a      	lsls	r2, r3, #16
 8000ad2:	0c00      	lsrs	r0, r0, #16
 8000ad4:	1812      	adds	r2, r2, r0
 8000ad6:	0194      	lsls	r4, r2, #6
 8000ad8:	1e60      	subs	r0, r4, #1
 8000ada:	4184      	sbcs	r4, r0
 8000adc:	0c1b      	lsrs	r3, r3, #16
 8000ade:	0e92      	lsrs	r2, r2, #26
 8000ae0:	199b      	adds	r3, r3, r6
 8000ae2:	4314      	orrs	r4, r2
 8000ae4:	019b      	lsls	r3, r3, #6
 8000ae6:	431c      	orrs	r4, r3
 8000ae8:	011b      	lsls	r3, r3, #4
 8000aea:	d572      	bpl.n	8000bd2 <__aeabi_fmul+0x212>
 8000aec:	2001      	movs	r0, #1
 8000aee:	0863      	lsrs	r3, r4, #1
 8000af0:	4004      	ands	r4, r0
 8000af2:	431c      	orrs	r4, r3
 8000af4:	0008      	movs	r0, r1
 8000af6:	307f      	adds	r0, #127	; 0x7f
 8000af8:	2800      	cmp	r0, #0
 8000afa:	dd3c      	ble.n	8000b76 <__aeabi_fmul+0x1b6>
 8000afc:	0763      	lsls	r3, r4, #29
 8000afe:	d004      	beq.n	8000b0a <__aeabi_fmul+0x14a>
 8000b00:	230f      	movs	r3, #15
 8000b02:	4023      	ands	r3, r4
 8000b04:	2b04      	cmp	r3, #4
 8000b06:	d000      	beq.n	8000b0a <__aeabi_fmul+0x14a>
 8000b08:	3404      	adds	r4, #4
 8000b0a:	0123      	lsls	r3, r4, #4
 8000b0c:	d503      	bpl.n	8000b16 <__aeabi_fmul+0x156>
 8000b0e:	3180      	adds	r1, #128	; 0x80
 8000b10:	0008      	movs	r0, r1
 8000b12:	4b37      	ldr	r3, [pc, #220]	; (8000bf0 <__aeabi_fmul+0x230>)
 8000b14:	401c      	ands	r4, r3
 8000b16:	28fe      	cmp	r0, #254	; 0xfe
 8000b18:	dcc0      	bgt.n	8000a9c <__aeabi_fmul+0xdc>
 8000b1a:	01a4      	lsls	r4, r4, #6
 8000b1c:	0a64      	lsrs	r4, r4, #9
 8000b1e:	b2c0      	uxtb	r0, r0
 8000b20:	e79a      	b.n	8000a58 <__aeabi_fmul+0x98>
 8000b22:	0037      	movs	r7, r6
 8000b24:	e78e      	b.n	8000a44 <__aeabi_fmul+0x84>
 8000b26:	4652      	mov	r2, sl
 8000b28:	2303      	movs	r3, #3
 8000b2a:	431a      	orrs	r2, r3
 8000b2c:	4692      	mov	sl, r2
 8000b2e:	2003      	movs	r0, #3
 8000b30:	e771      	b.n	8000a16 <__aeabi_fmul+0x56>
 8000b32:	4648      	mov	r0, r9
 8000b34:	f001 f9e8 	bl	8001f08 <__clzsi2>
 8000b38:	464a      	mov	r2, r9
 8000b3a:	1f43      	subs	r3, r0, #5
 8000b3c:	409a      	lsls	r2, r3
 8000b3e:	1a2d      	subs	r5, r5, r0
 8000b40:	4691      	mov	r9, r2
 8000b42:	2000      	movs	r0, #0
 8000b44:	3d76      	subs	r5, #118	; 0x76
 8000b46:	e766      	b.n	8000a16 <__aeabi_fmul+0x56>
 8000b48:	230c      	movs	r3, #12
 8000b4a:	469a      	mov	sl, r3
 8000b4c:	3b09      	subs	r3, #9
 8000b4e:	25ff      	movs	r5, #255	; 0xff
 8000b50:	469b      	mov	fp, r3
 8000b52:	e74d      	b.n	80009f0 <__aeabi_fmul+0x30>
 8000b54:	0020      	movs	r0, r4
 8000b56:	f001 f9d7 	bl	8001f08 <__clzsi2>
 8000b5a:	2576      	movs	r5, #118	; 0x76
 8000b5c:	1f43      	subs	r3, r0, #5
 8000b5e:	409c      	lsls	r4, r3
 8000b60:	2300      	movs	r3, #0
 8000b62:	426d      	negs	r5, r5
 8000b64:	469a      	mov	sl, r3
 8000b66:	469b      	mov	fp, r3
 8000b68:	1a2d      	subs	r5, r5, r0
 8000b6a:	e741      	b.n	80009f0 <__aeabi_fmul+0x30>
 8000b6c:	2480      	movs	r4, #128	; 0x80
 8000b6e:	2700      	movs	r7, #0
 8000b70:	20ff      	movs	r0, #255	; 0xff
 8000b72:	03e4      	lsls	r4, r4, #15
 8000b74:	e770      	b.n	8000a58 <__aeabi_fmul+0x98>
 8000b76:	2301      	movs	r3, #1
 8000b78:	1a1b      	subs	r3, r3, r0
 8000b7a:	2b1b      	cmp	r3, #27
 8000b7c:	dd00      	ble.n	8000b80 <__aeabi_fmul+0x1c0>
 8000b7e:	e769      	b.n	8000a54 <__aeabi_fmul+0x94>
 8000b80:	319e      	adds	r1, #158	; 0x9e
 8000b82:	0020      	movs	r0, r4
 8000b84:	408c      	lsls	r4, r1
 8000b86:	40d8      	lsrs	r0, r3
 8000b88:	1e63      	subs	r3, r4, #1
 8000b8a:	419c      	sbcs	r4, r3
 8000b8c:	4304      	orrs	r4, r0
 8000b8e:	0763      	lsls	r3, r4, #29
 8000b90:	d004      	beq.n	8000b9c <__aeabi_fmul+0x1dc>
 8000b92:	230f      	movs	r3, #15
 8000b94:	4023      	ands	r3, r4
 8000b96:	2b04      	cmp	r3, #4
 8000b98:	d000      	beq.n	8000b9c <__aeabi_fmul+0x1dc>
 8000b9a:	3404      	adds	r4, #4
 8000b9c:	0163      	lsls	r3, r4, #5
 8000b9e:	d51a      	bpl.n	8000bd6 <__aeabi_fmul+0x216>
 8000ba0:	2001      	movs	r0, #1
 8000ba2:	2400      	movs	r4, #0
 8000ba4:	e758      	b.n	8000a58 <__aeabi_fmul+0x98>
 8000ba6:	2080      	movs	r0, #128	; 0x80
 8000ba8:	03c0      	lsls	r0, r0, #15
 8000baa:	4204      	tst	r4, r0
 8000bac:	d009      	beq.n	8000bc2 <__aeabi_fmul+0x202>
 8000bae:	464b      	mov	r3, r9
 8000bb0:	4203      	tst	r3, r0
 8000bb2:	d106      	bne.n	8000bc2 <__aeabi_fmul+0x202>
 8000bb4:	464c      	mov	r4, r9
 8000bb6:	4304      	orrs	r4, r0
 8000bb8:	0264      	lsls	r4, r4, #9
 8000bba:	4647      	mov	r7, r8
 8000bbc:	20ff      	movs	r0, #255	; 0xff
 8000bbe:	0a64      	lsrs	r4, r4, #9
 8000bc0:	e74a      	b.n	8000a58 <__aeabi_fmul+0x98>
 8000bc2:	2080      	movs	r0, #128	; 0x80
 8000bc4:	03c0      	lsls	r0, r0, #15
 8000bc6:	4304      	orrs	r4, r0
 8000bc8:	0264      	lsls	r4, r4, #9
 8000bca:	0037      	movs	r7, r6
 8000bcc:	20ff      	movs	r0, #255	; 0xff
 8000bce:	0a64      	lsrs	r4, r4, #9
 8000bd0:	e742      	b.n	8000a58 <__aeabi_fmul+0x98>
 8000bd2:	0029      	movs	r1, r5
 8000bd4:	e78e      	b.n	8000af4 <__aeabi_fmul+0x134>
 8000bd6:	01a4      	lsls	r4, r4, #6
 8000bd8:	2000      	movs	r0, #0
 8000bda:	0a64      	lsrs	r4, r4, #9
 8000bdc:	e73c      	b.n	8000a58 <__aeabi_fmul+0x98>
 8000bde:	2080      	movs	r0, #128	; 0x80
 8000be0:	03c0      	lsls	r0, r0, #15
 8000be2:	4304      	orrs	r4, r0
 8000be4:	0264      	lsls	r4, r4, #9
 8000be6:	20ff      	movs	r0, #255	; 0xff
 8000be8:	0a64      	lsrs	r4, r4, #9
 8000bea:	e735      	b.n	8000a58 <__aeabi_fmul+0x98>
 8000bec:	0800578c 	.word	0x0800578c
 8000bf0:	f7ffffff 	.word	0xf7ffffff

08000bf4 <__aeabi_f2iz>:
 8000bf4:	0241      	lsls	r1, r0, #9
 8000bf6:	0042      	lsls	r2, r0, #1
 8000bf8:	0fc3      	lsrs	r3, r0, #31
 8000bfa:	0a49      	lsrs	r1, r1, #9
 8000bfc:	2000      	movs	r0, #0
 8000bfe:	0e12      	lsrs	r2, r2, #24
 8000c00:	2a7e      	cmp	r2, #126	; 0x7e
 8000c02:	d903      	bls.n	8000c0c <__aeabi_f2iz+0x18>
 8000c04:	2a9d      	cmp	r2, #157	; 0x9d
 8000c06:	d902      	bls.n	8000c0e <__aeabi_f2iz+0x1a>
 8000c08:	4a09      	ldr	r2, [pc, #36]	; (8000c30 <__aeabi_f2iz+0x3c>)
 8000c0a:	1898      	adds	r0, r3, r2
 8000c0c:	4770      	bx	lr
 8000c0e:	2080      	movs	r0, #128	; 0x80
 8000c10:	0400      	lsls	r0, r0, #16
 8000c12:	4301      	orrs	r1, r0
 8000c14:	2a95      	cmp	r2, #149	; 0x95
 8000c16:	dc07      	bgt.n	8000c28 <__aeabi_f2iz+0x34>
 8000c18:	2096      	movs	r0, #150	; 0x96
 8000c1a:	1a82      	subs	r2, r0, r2
 8000c1c:	40d1      	lsrs	r1, r2
 8000c1e:	4248      	negs	r0, r1
 8000c20:	2b00      	cmp	r3, #0
 8000c22:	d1f3      	bne.n	8000c0c <__aeabi_f2iz+0x18>
 8000c24:	0008      	movs	r0, r1
 8000c26:	e7f1      	b.n	8000c0c <__aeabi_f2iz+0x18>
 8000c28:	3a96      	subs	r2, #150	; 0x96
 8000c2a:	4091      	lsls	r1, r2
 8000c2c:	e7f7      	b.n	8000c1e <__aeabi_f2iz+0x2a>
 8000c2e:	46c0      	nop			; (mov r8, r8)
 8000c30:	7fffffff 	.word	0x7fffffff

08000c34 <__aeabi_i2f>:
 8000c34:	b570      	push	{r4, r5, r6, lr}
 8000c36:	2800      	cmp	r0, #0
 8000c38:	d013      	beq.n	8000c62 <__aeabi_i2f+0x2e>
 8000c3a:	17c3      	asrs	r3, r0, #31
 8000c3c:	18c5      	adds	r5, r0, r3
 8000c3e:	405d      	eors	r5, r3
 8000c40:	0fc4      	lsrs	r4, r0, #31
 8000c42:	0028      	movs	r0, r5
 8000c44:	f001 f960 	bl	8001f08 <__clzsi2>
 8000c48:	239e      	movs	r3, #158	; 0x9e
 8000c4a:	0001      	movs	r1, r0
 8000c4c:	1a1b      	subs	r3, r3, r0
 8000c4e:	2b96      	cmp	r3, #150	; 0x96
 8000c50:	dc0f      	bgt.n	8000c72 <__aeabi_i2f+0x3e>
 8000c52:	2808      	cmp	r0, #8
 8000c54:	dd01      	ble.n	8000c5a <__aeabi_i2f+0x26>
 8000c56:	3908      	subs	r1, #8
 8000c58:	408d      	lsls	r5, r1
 8000c5a:	026d      	lsls	r5, r5, #9
 8000c5c:	0a6d      	lsrs	r5, r5, #9
 8000c5e:	b2d8      	uxtb	r0, r3
 8000c60:	e002      	b.n	8000c68 <__aeabi_i2f+0x34>
 8000c62:	2400      	movs	r4, #0
 8000c64:	2000      	movs	r0, #0
 8000c66:	2500      	movs	r5, #0
 8000c68:	05c0      	lsls	r0, r0, #23
 8000c6a:	4328      	orrs	r0, r5
 8000c6c:	07e4      	lsls	r4, r4, #31
 8000c6e:	4320      	orrs	r0, r4
 8000c70:	bd70      	pop	{r4, r5, r6, pc}
 8000c72:	2b99      	cmp	r3, #153	; 0x99
 8000c74:	dd0b      	ble.n	8000c8e <__aeabi_i2f+0x5a>
 8000c76:	2205      	movs	r2, #5
 8000c78:	002e      	movs	r6, r5
 8000c7a:	1a12      	subs	r2, r2, r0
 8000c7c:	40d6      	lsrs	r6, r2
 8000c7e:	0002      	movs	r2, r0
 8000c80:	321b      	adds	r2, #27
 8000c82:	4095      	lsls	r5, r2
 8000c84:	0028      	movs	r0, r5
 8000c86:	1e45      	subs	r5, r0, #1
 8000c88:	41a8      	sbcs	r0, r5
 8000c8a:	0035      	movs	r5, r6
 8000c8c:	4305      	orrs	r5, r0
 8000c8e:	2905      	cmp	r1, #5
 8000c90:	dd01      	ble.n	8000c96 <__aeabi_i2f+0x62>
 8000c92:	1f4a      	subs	r2, r1, #5
 8000c94:	4095      	lsls	r5, r2
 8000c96:	002a      	movs	r2, r5
 8000c98:	4e08      	ldr	r6, [pc, #32]	; (8000cbc <__aeabi_i2f+0x88>)
 8000c9a:	4032      	ands	r2, r6
 8000c9c:	0768      	lsls	r0, r5, #29
 8000c9e:	d009      	beq.n	8000cb4 <__aeabi_i2f+0x80>
 8000ca0:	200f      	movs	r0, #15
 8000ca2:	4028      	ands	r0, r5
 8000ca4:	2804      	cmp	r0, #4
 8000ca6:	d005      	beq.n	8000cb4 <__aeabi_i2f+0x80>
 8000ca8:	3204      	adds	r2, #4
 8000caa:	0150      	lsls	r0, r2, #5
 8000cac:	d502      	bpl.n	8000cb4 <__aeabi_i2f+0x80>
 8000cae:	239f      	movs	r3, #159	; 0x9f
 8000cb0:	4032      	ands	r2, r6
 8000cb2:	1a5b      	subs	r3, r3, r1
 8000cb4:	0192      	lsls	r2, r2, #6
 8000cb6:	0a55      	lsrs	r5, r2, #9
 8000cb8:	b2d8      	uxtb	r0, r3
 8000cba:	e7d5      	b.n	8000c68 <__aeabi_i2f+0x34>
 8000cbc:	fbffffff 	.word	0xfbffffff

08000cc0 <__aeabi_dadd>:
 8000cc0:	b5f0      	push	{r4, r5, r6, r7, lr}
 8000cc2:	464f      	mov	r7, r9
 8000cc4:	46d6      	mov	lr, sl
 8000cc6:	4646      	mov	r6, r8
 8000cc8:	000d      	movs	r5, r1
 8000cca:	0001      	movs	r1, r0
 8000ccc:	0018      	movs	r0, r3
 8000cce:	b5c0      	push	{r6, r7, lr}
 8000cd0:	0017      	movs	r7, r2
 8000cd2:	032b      	lsls	r3, r5, #12
 8000cd4:	0a5a      	lsrs	r2, r3, #9
 8000cd6:	0f4b      	lsrs	r3, r1, #29
 8000cd8:	4313      	orrs	r3, r2
 8000cda:	00ca      	lsls	r2, r1, #3
 8000cdc:	4691      	mov	r9, r2
 8000cde:	0302      	lsls	r2, r0, #12
 8000ce0:	006e      	lsls	r6, r5, #1
 8000ce2:	0041      	lsls	r1, r0, #1
 8000ce4:	0a52      	lsrs	r2, r2, #9
 8000ce6:	0fec      	lsrs	r4, r5, #31
 8000ce8:	0f7d      	lsrs	r5, r7, #29
 8000cea:	4315      	orrs	r5, r2
 8000cec:	0d76      	lsrs	r6, r6, #21
 8000cee:	0d49      	lsrs	r1, r1, #21
 8000cf0:	0fc0      	lsrs	r0, r0, #31
 8000cf2:	4682      	mov	sl, r0
 8000cf4:	46ac      	mov	ip, r5
 8000cf6:	00ff      	lsls	r7, r7, #3
 8000cf8:	1a72      	subs	r2, r6, r1
 8000cfa:	4284      	cmp	r4, r0
 8000cfc:	d100      	bne.n	8000d00 <__aeabi_dadd+0x40>
 8000cfe:	e098      	b.n	8000e32 <__aeabi_dadd+0x172>
 8000d00:	2a00      	cmp	r2, #0
 8000d02:	dc00      	bgt.n	8000d06 <__aeabi_dadd+0x46>
 8000d04:	e081      	b.n	8000e0a <__aeabi_dadd+0x14a>
 8000d06:	2900      	cmp	r1, #0
 8000d08:	d100      	bne.n	8000d0c <__aeabi_dadd+0x4c>
 8000d0a:	e0b6      	b.n	8000e7a <__aeabi_dadd+0x1ba>
 8000d0c:	49c9      	ldr	r1, [pc, #804]	; (8001034 <__aeabi_dadd+0x374>)
 8000d0e:	428e      	cmp	r6, r1
 8000d10:	d100      	bne.n	8000d14 <__aeabi_dadd+0x54>
 8000d12:	e172      	b.n	8000ffa <__aeabi_dadd+0x33a>
 8000d14:	2180      	movs	r1, #128	; 0x80
 8000d16:	0028      	movs	r0, r5
 8000d18:	0409      	lsls	r1, r1, #16
 8000d1a:	4308      	orrs	r0, r1
 8000d1c:	4684      	mov	ip, r0
 8000d1e:	2a38      	cmp	r2, #56	; 0x38
 8000d20:	dd00      	ble.n	8000d24 <__aeabi_dadd+0x64>
 8000d22:	e15e      	b.n	8000fe2 <__aeabi_dadd+0x322>
 8000d24:	2a1f      	cmp	r2, #31
 8000d26:	dd00      	ble.n	8000d2a <__aeabi_dadd+0x6a>
 8000d28:	e1ee      	b.n	8001108 <__aeabi_dadd+0x448>
 8000d2a:	2020      	movs	r0, #32
 8000d2c:	0039      	movs	r1, r7
 8000d2e:	4665      	mov	r5, ip
 8000d30:	1a80      	subs	r0, r0, r2
 8000d32:	4087      	lsls	r7, r0
 8000d34:	40d1      	lsrs	r1, r2
 8000d36:	4085      	lsls	r5, r0
 8000d38:	430d      	orrs	r5, r1
 8000d3a:	0039      	movs	r1, r7
 8000d3c:	1e4f      	subs	r7, r1, #1
 8000d3e:	41b9      	sbcs	r1, r7
 8000d40:	4667      	mov	r7, ip
 8000d42:	40d7      	lsrs	r7, r2
 8000d44:	4329      	orrs	r1, r5
 8000d46:	1bdb      	subs	r3, r3, r7
 8000d48:	464a      	mov	r2, r9
 8000d4a:	1a55      	subs	r5, r2, r1
 8000d4c:	45a9      	cmp	r9, r5
 8000d4e:	4189      	sbcs	r1, r1
 8000d50:	4249      	negs	r1, r1
 8000d52:	1a5b      	subs	r3, r3, r1
 8000d54:	4698      	mov	r8, r3
 8000d56:	4643      	mov	r3, r8
 8000d58:	021b      	lsls	r3, r3, #8
 8000d5a:	d400      	bmi.n	8000d5e <__aeabi_dadd+0x9e>
 8000d5c:	e0cc      	b.n	8000ef8 <__aeabi_dadd+0x238>
 8000d5e:	4643      	mov	r3, r8
 8000d60:	025b      	lsls	r3, r3, #9
 8000d62:	0a5b      	lsrs	r3, r3, #9
 8000d64:	4698      	mov	r8, r3
 8000d66:	4643      	mov	r3, r8
 8000d68:	2b00      	cmp	r3, #0
 8000d6a:	d100      	bne.n	8000d6e <__aeabi_dadd+0xae>
 8000d6c:	e12c      	b.n	8000fc8 <__aeabi_dadd+0x308>
 8000d6e:	4640      	mov	r0, r8
 8000d70:	f001 f8ca 	bl	8001f08 <__clzsi2>
 8000d74:	0001      	movs	r1, r0
 8000d76:	3908      	subs	r1, #8
 8000d78:	2220      	movs	r2, #32
 8000d7a:	0028      	movs	r0, r5
 8000d7c:	4643      	mov	r3, r8
 8000d7e:	1a52      	subs	r2, r2, r1
 8000d80:	408b      	lsls	r3, r1
 8000d82:	40d0      	lsrs	r0, r2
 8000d84:	408d      	lsls	r5, r1
 8000d86:	4303      	orrs	r3, r0
 8000d88:	428e      	cmp	r6, r1
 8000d8a:	dd00      	ble.n	8000d8e <__aeabi_dadd+0xce>
 8000d8c:	e117      	b.n	8000fbe <__aeabi_dadd+0x2fe>
 8000d8e:	1b8e      	subs	r6, r1, r6
 8000d90:	1c72      	adds	r2, r6, #1
 8000d92:	2a1f      	cmp	r2, #31
 8000d94:	dd00      	ble.n	8000d98 <__aeabi_dadd+0xd8>
 8000d96:	e1a7      	b.n	80010e8 <__aeabi_dadd+0x428>
 8000d98:	2120      	movs	r1, #32
 8000d9a:	0018      	movs	r0, r3
 8000d9c:	002e      	movs	r6, r5
 8000d9e:	1a89      	subs	r1, r1, r2
 8000da0:	408d      	lsls	r5, r1
 8000da2:	4088      	lsls	r0, r1
 8000da4:	40d6      	lsrs	r6, r2
 8000da6:	40d3      	lsrs	r3, r2
 8000da8:	1e69      	subs	r1, r5, #1
 8000daa:	418d      	sbcs	r5, r1
 8000dac:	4330      	orrs	r0, r6
 8000dae:	4698      	mov	r8, r3
 8000db0:	2600      	movs	r6, #0
 8000db2:	4305      	orrs	r5, r0
 8000db4:	076b      	lsls	r3, r5, #29
 8000db6:	d009      	beq.n	8000dcc <__aeabi_dadd+0x10c>
 8000db8:	230f      	movs	r3, #15
 8000dba:	402b      	ands	r3, r5
 8000dbc:	2b04      	cmp	r3, #4
 8000dbe:	d005      	beq.n	8000dcc <__aeabi_dadd+0x10c>
 8000dc0:	1d2b      	adds	r3, r5, #4
 8000dc2:	42ab      	cmp	r3, r5
 8000dc4:	41ad      	sbcs	r5, r5
 8000dc6:	426d      	negs	r5, r5
 8000dc8:	44a8      	add	r8, r5
 8000dca:	001d      	movs	r5, r3
 8000dcc:	4643      	mov	r3, r8
 8000dce:	021b      	lsls	r3, r3, #8
 8000dd0:	d400      	bmi.n	8000dd4 <__aeabi_dadd+0x114>
 8000dd2:	e094      	b.n	8000efe <__aeabi_dadd+0x23e>
 8000dd4:	4b97      	ldr	r3, [pc, #604]	; (8001034 <__aeabi_dadd+0x374>)
 8000dd6:	1c72      	adds	r2, r6, #1
 8000dd8:	429a      	cmp	r2, r3
 8000dda:	d100      	bne.n	8000dde <__aeabi_dadd+0x11e>
 8000ddc:	e09d      	b.n	8000f1a <__aeabi_dadd+0x25a>
 8000dde:	4641      	mov	r1, r8
 8000de0:	4b95      	ldr	r3, [pc, #596]	; (8001038 <__aeabi_dadd+0x378>)
 8000de2:	08ed      	lsrs	r5, r5, #3
 8000de4:	4019      	ands	r1, r3
 8000de6:	000b      	movs	r3, r1
 8000de8:	0552      	lsls	r2, r2, #21
 8000dea:	0749      	lsls	r1, r1, #29
 8000dec:	025b      	lsls	r3, r3, #9
 8000dee:	4329      	orrs	r1, r5
 8000df0:	0b1b      	lsrs	r3, r3, #12
 8000df2:	0d52      	lsrs	r2, r2, #21
 8000df4:	0512      	lsls	r2, r2, #20
 8000df6:	4313      	orrs	r3, r2
 8000df8:	07e4      	lsls	r4, r4, #31
 8000dfa:	4323      	orrs	r3, r4
 8000dfc:	0008      	movs	r0, r1
 8000dfe:	0019      	movs	r1, r3
 8000e00:	bce0      	pop	{r5, r6, r7}
 8000e02:	46ba      	mov	sl, r7
 8000e04:	46b1      	mov	r9, r6
 8000e06:	46a8      	mov	r8, r5
 8000e08:	bdf0      	pop	{r4, r5, r6, r7, pc}
 8000e0a:	2a00      	cmp	r2, #0
 8000e0c:	d043      	beq.n	8000e96 <__aeabi_dadd+0x1d6>
 8000e0e:	1b8a      	subs	r2, r1, r6
 8000e10:	2e00      	cmp	r6, #0
 8000e12:	d000      	beq.n	8000e16 <__aeabi_dadd+0x156>
 8000e14:	e12a      	b.n	800106c <__aeabi_dadd+0x3ac>
 8000e16:	464c      	mov	r4, r9
 8000e18:	431c      	orrs	r4, r3
 8000e1a:	d100      	bne.n	8000e1e <__aeabi_dadd+0x15e>
 8000e1c:	e1d1      	b.n	80011c2 <__aeabi_dadd+0x502>
 8000e1e:	1e54      	subs	r4, r2, #1
 8000e20:	2a01      	cmp	r2, #1
 8000e22:	d100      	bne.n	8000e26 <__aeabi_dadd+0x166>
 8000e24:	e21f      	b.n	8001266 <__aeabi_dadd+0x5a6>
 8000e26:	4d83      	ldr	r5, [pc, #524]	; (8001034 <__aeabi_dadd+0x374>)
 8000e28:	42aa      	cmp	r2, r5
 8000e2a:	d100      	bne.n	8000e2e <__aeabi_dadd+0x16e>
 8000e2c:	e272      	b.n	8001314 <__aeabi_dadd+0x654>
 8000e2e:	0022      	movs	r2, r4
 8000e30:	e123      	b.n	800107a <__aeabi_dadd+0x3ba>
 8000e32:	2a00      	cmp	r2, #0
 8000e34:	dc00      	bgt.n	8000e38 <__aeabi_dadd+0x178>
 8000e36:	e098      	b.n	8000f6a <__aeabi_dadd+0x2aa>
 8000e38:	2900      	cmp	r1, #0
 8000e3a:	d042      	beq.n	8000ec2 <__aeabi_dadd+0x202>
 8000e3c:	497d      	ldr	r1, [pc, #500]	; (8001034 <__aeabi_dadd+0x374>)
 8000e3e:	428e      	cmp	r6, r1
 8000e40:	d100      	bne.n	8000e44 <__aeabi_dadd+0x184>
 8000e42:	e0da      	b.n	8000ffa <__aeabi_dadd+0x33a>
 8000e44:	2180      	movs	r1, #128	; 0x80
 8000e46:	0028      	movs	r0, r5
 8000e48:	0409      	lsls	r1, r1, #16
 8000e4a:	4308      	orrs	r0, r1
 8000e4c:	4684      	mov	ip, r0
 8000e4e:	2a38      	cmp	r2, #56	; 0x38
 8000e50:	dd00      	ble.n	8000e54 <__aeabi_dadd+0x194>
 8000e52:	e129      	b.n	80010a8 <__aeabi_dadd+0x3e8>
 8000e54:	2a1f      	cmp	r2, #31
 8000e56:	dc00      	bgt.n	8000e5a <__aeabi_dadd+0x19a>
 8000e58:	e187      	b.n	800116a <__aeabi_dadd+0x4aa>
 8000e5a:	0011      	movs	r1, r2
 8000e5c:	4665      	mov	r5, ip
 8000e5e:	3920      	subs	r1, #32
 8000e60:	40cd      	lsrs	r5, r1
 8000e62:	2a20      	cmp	r2, #32
 8000e64:	d004      	beq.n	8000e70 <__aeabi_dadd+0x1b0>
 8000e66:	2040      	movs	r0, #64	; 0x40
 8000e68:	4661      	mov	r1, ip
 8000e6a:	1a82      	subs	r2, r0, r2
 8000e6c:	4091      	lsls	r1, r2
 8000e6e:	430f      	orrs	r7, r1
 8000e70:	0039      	movs	r1, r7
 8000e72:	1e4f      	subs	r7, r1, #1
 8000e74:	41b9      	sbcs	r1, r7
 8000e76:	430d      	orrs	r5, r1
 8000e78:	e11b      	b.n	80010b2 <__aeabi_dadd+0x3f2>
 8000e7a:	0029      	movs	r1, r5
 8000e7c:	4339      	orrs	r1, r7
 8000e7e:	d100      	bne.n	8000e82 <__aeabi_dadd+0x1c2>
 8000e80:	e0b5      	b.n	8000fee <__aeabi_dadd+0x32e>
 8000e82:	1e51      	subs	r1, r2, #1
 8000e84:	2a01      	cmp	r2, #1
 8000e86:	d100      	bne.n	8000e8a <__aeabi_dadd+0x1ca>
 8000e88:	e1ab      	b.n	80011e2 <__aeabi_dadd+0x522>
 8000e8a:	486a      	ldr	r0, [pc, #424]	; (8001034 <__aeabi_dadd+0x374>)
 8000e8c:	4282      	cmp	r2, r0
 8000e8e:	d100      	bne.n	8000e92 <__aeabi_dadd+0x1d2>
 8000e90:	e1b2      	b.n	80011f8 <__aeabi_dadd+0x538>
 8000e92:	000a      	movs	r2, r1
 8000e94:	e743      	b.n	8000d1e <__aeabi_dadd+0x5e>
 8000e96:	4969      	ldr	r1, [pc, #420]	; (800103c <__aeabi_dadd+0x37c>)
 8000e98:	1c75      	adds	r5, r6, #1
 8000e9a:	420d      	tst	r5, r1
 8000e9c:	d000      	beq.n	8000ea0 <__aeabi_dadd+0x1e0>
 8000e9e:	e0cf      	b.n	8001040 <__aeabi_dadd+0x380>
 8000ea0:	2e00      	cmp	r6, #0
 8000ea2:	d000      	beq.n	8000ea6 <__aeabi_dadd+0x1e6>
 8000ea4:	e193      	b.n	80011ce <__aeabi_dadd+0x50e>
 8000ea6:	4649      	mov	r1, r9
 8000ea8:	4319      	orrs	r1, r3
 8000eaa:	d100      	bne.n	8000eae <__aeabi_dadd+0x1ee>
 8000eac:	e1d1      	b.n	8001252 <__aeabi_dadd+0x592>
 8000eae:	4661      	mov	r1, ip
 8000eb0:	4339      	orrs	r1, r7
 8000eb2:	d000      	beq.n	8000eb6 <__aeabi_dadd+0x1f6>
 8000eb4:	e1e3      	b.n	800127e <__aeabi_dadd+0x5be>
 8000eb6:	4649      	mov	r1, r9
 8000eb8:	0758      	lsls	r0, r3, #29
 8000eba:	08c9      	lsrs	r1, r1, #3
 8000ebc:	4301      	orrs	r1, r0
 8000ebe:	08db      	lsrs	r3, r3, #3
 8000ec0:	e026      	b.n	8000f10 <__aeabi_dadd+0x250>
 8000ec2:	0029      	movs	r1, r5
 8000ec4:	4339      	orrs	r1, r7
 8000ec6:	d100      	bne.n	8000eca <__aeabi_dadd+0x20a>
 8000ec8:	e091      	b.n	8000fee <__aeabi_dadd+0x32e>
 8000eca:	1e51      	subs	r1, r2, #1
 8000ecc:	2a01      	cmp	r2, #1
 8000ece:	d005      	beq.n	8000edc <__aeabi_dadd+0x21c>
 8000ed0:	4858      	ldr	r0, [pc, #352]	; (8001034 <__aeabi_dadd+0x374>)
 8000ed2:	4282      	cmp	r2, r0
 8000ed4:	d100      	bne.n	8000ed8 <__aeabi_dadd+0x218>
 8000ed6:	e18f      	b.n	80011f8 <__aeabi_dadd+0x538>
 8000ed8:	000a      	movs	r2, r1
 8000eda:	e7b8      	b.n	8000e4e <__aeabi_dadd+0x18e>
 8000edc:	003d      	movs	r5, r7
 8000ede:	444d      	add	r5, r9
 8000ee0:	454d      	cmp	r5, r9
 8000ee2:	4189      	sbcs	r1, r1
 8000ee4:	4463      	add	r3, ip
 8000ee6:	4698      	mov	r8, r3
 8000ee8:	4249      	negs	r1, r1
 8000eea:	4488      	add	r8, r1
 8000eec:	4643      	mov	r3, r8
 8000eee:	2602      	movs	r6, #2
 8000ef0:	021b      	lsls	r3, r3, #8
 8000ef2:	d500      	bpl.n	8000ef6 <__aeabi_dadd+0x236>
 8000ef4:	e0eb      	b.n	80010ce <__aeabi_dadd+0x40e>
 8000ef6:	3e01      	subs	r6, #1
 8000ef8:	076b      	lsls	r3, r5, #29
 8000efa:	d000      	beq.n	8000efe <__aeabi_dadd+0x23e>
 8000efc:	e75c      	b.n	8000db8 <__aeabi_dadd+0xf8>
 8000efe:	4643      	mov	r3, r8
 8000f00:	08e9      	lsrs	r1, r5, #3
 8000f02:	075a      	lsls	r2, r3, #29
 8000f04:	4311      	orrs	r1, r2
 8000f06:	0032      	movs	r2, r6
 8000f08:	08db      	lsrs	r3, r3, #3
 8000f0a:	484a      	ldr	r0, [pc, #296]	; (8001034 <__aeabi_dadd+0x374>)
 8000f0c:	4282      	cmp	r2, r0
 8000f0e:	d021      	beq.n	8000f54 <__aeabi_dadd+0x294>
 8000f10:	031b      	lsls	r3, r3, #12
 8000f12:	0552      	lsls	r2, r2, #21
 8000f14:	0b1b      	lsrs	r3, r3, #12
 8000f16:	0d52      	lsrs	r2, r2, #21
 8000f18:	e76c      	b.n	8000df4 <__aeabi_dadd+0x134>
 8000f1a:	2300      	movs	r3, #0
 8000f1c:	2100      	movs	r1, #0
 8000f1e:	e769      	b.n	8000df4 <__aeabi_dadd+0x134>
 8000f20:	002a      	movs	r2, r5
 8000f22:	433a      	orrs	r2, r7
 8000f24:	d069      	beq.n	8000ffa <__aeabi_dadd+0x33a>
 8000f26:	464a      	mov	r2, r9
 8000f28:	0758      	lsls	r0, r3, #29
 8000f2a:	08d1      	lsrs	r1, r2, #3
 8000f2c:	08da      	lsrs	r2, r3, #3
 8000f2e:	2380      	movs	r3, #128	; 0x80
 8000f30:	031b      	lsls	r3, r3, #12
 8000f32:	4308      	orrs	r0, r1
 8000f34:	421a      	tst	r2, r3
 8000f36:	d007      	beq.n	8000f48 <__aeabi_dadd+0x288>
 8000f38:	0029      	movs	r1, r5
 8000f3a:	08ed      	lsrs	r5, r5, #3
 8000f3c:	421d      	tst	r5, r3
 8000f3e:	d103      	bne.n	8000f48 <__aeabi_dadd+0x288>
 8000f40:	002a      	movs	r2, r5
 8000f42:	08ff      	lsrs	r7, r7, #3
 8000f44:	0748      	lsls	r0, r1, #29
 8000f46:	4338      	orrs	r0, r7
 8000f48:	0f43      	lsrs	r3, r0, #29
 8000f4a:	00c1      	lsls	r1, r0, #3
 8000f4c:	075b      	lsls	r3, r3, #29
 8000f4e:	08c9      	lsrs	r1, r1, #3
 8000f50:	4319      	orrs	r1, r3
 8000f52:	0013      	movs	r3, r2
 8000f54:	000a      	movs	r2, r1
 8000f56:	431a      	orrs	r2, r3
 8000f58:	d100      	bne.n	8000f5c <__aeabi_dadd+0x29c>
 8000f5a:	e213      	b.n	8001384 <__aeabi_dadd+0x6c4>
 8000f5c:	2280      	movs	r2, #128	; 0x80
 8000f5e:	0312      	lsls	r2, r2, #12
 8000f60:	4313      	orrs	r3, r2
 8000f62:	031b      	lsls	r3, r3, #12
 8000f64:	4a33      	ldr	r2, [pc, #204]	; (8001034 <__aeabi_dadd+0x374>)
 8000f66:	0b1b      	lsrs	r3, r3, #12
 8000f68:	e744      	b.n	8000df4 <__aeabi_dadd+0x134>
 8000f6a:	2a00      	cmp	r2, #0
 8000f6c:	d04b      	beq.n	8001006 <__aeabi_dadd+0x346>
 8000f6e:	1b8a      	subs	r2, r1, r6
 8000f70:	2e00      	cmp	r6, #0
 8000f72:	d100      	bne.n	8000f76 <__aeabi_dadd+0x2b6>
 8000f74:	e0e7      	b.n	8001146 <__aeabi_dadd+0x486>
 8000f76:	482f      	ldr	r0, [pc, #188]	; (8001034 <__aeabi_dadd+0x374>)
 8000f78:	4281      	cmp	r1, r0
 8000f7a:	d100      	bne.n	8000f7e <__aeabi_dadd+0x2be>
 8000f7c:	e195      	b.n	80012aa <__aeabi_dadd+0x5ea>
 8000f7e:	2080      	movs	r0, #128	; 0x80
 8000f80:	0400      	lsls	r0, r0, #16
 8000f82:	4303      	orrs	r3, r0
 8000f84:	2a38      	cmp	r2, #56	; 0x38
 8000f86:	dd00      	ble.n	8000f8a <__aeabi_dadd+0x2ca>
 8000f88:	e143      	b.n	8001212 <__aeabi_dadd+0x552>
 8000f8a:	2a1f      	cmp	r2, #31
 8000f8c:	dd00      	ble.n	8000f90 <__aeabi_dadd+0x2d0>
 8000f8e:	e1db      	b.n	8001348 <__aeabi_dadd+0x688>
 8000f90:	2020      	movs	r0, #32
 8000f92:	001d      	movs	r5, r3
 8000f94:	464e      	mov	r6, r9
 8000f96:	1a80      	subs	r0, r0, r2
 8000f98:	4085      	lsls	r5, r0
 8000f9a:	40d6      	lsrs	r6, r2
 8000f9c:	4335      	orrs	r5, r6
 8000f9e:	464e      	mov	r6, r9
 8000fa0:	4086      	lsls	r6, r0
 8000fa2:	0030      	movs	r0, r6
 8000fa4:	40d3      	lsrs	r3, r2
 8000fa6:	1e46      	subs	r6, r0, #1
 8000fa8:	41b0      	sbcs	r0, r6
 8000faa:	449c      	add	ip, r3
 8000fac:	4305      	orrs	r5, r0
 8000fae:	19ed      	adds	r5, r5, r7
 8000fb0:	42bd      	cmp	r5, r7
 8000fb2:	419b      	sbcs	r3, r3
 8000fb4:	425b      	negs	r3, r3
 8000fb6:	4463      	add	r3, ip
 8000fb8:	4698      	mov	r8, r3
 8000fba:	000e      	movs	r6, r1
 8000fbc:	e07f      	b.n	80010be <__aeabi_dadd+0x3fe>
 8000fbe:	4a1e      	ldr	r2, [pc, #120]	; (8001038 <__aeabi_dadd+0x378>)
 8000fc0:	1a76      	subs	r6, r6, r1
 8000fc2:	4013      	ands	r3, r2
 8000fc4:	4698      	mov	r8, r3
 8000fc6:	e6f5      	b.n	8000db4 <__aeabi_dadd+0xf4>
 8000fc8:	0028      	movs	r0, r5
 8000fca:	f000 ff9d 	bl	8001f08 <__clzsi2>
 8000fce:	0001      	movs	r1, r0
 8000fd0:	3118      	adds	r1, #24
 8000fd2:	291f      	cmp	r1, #31
 8000fd4:	dc00      	bgt.n	8000fd8 <__aeabi_dadd+0x318>
 8000fd6:	e6cf      	b.n	8000d78 <__aeabi_dadd+0xb8>
 8000fd8:	002b      	movs	r3, r5
 8000fda:	3808      	subs	r0, #8
 8000fdc:	4083      	lsls	r3, r0
 8000fde:	2500      	movs	r5, #0
 8000fe0:	e6d2      	b.n	8000d88 <__aeabi_dadd+0xc8>
 8000fe2:	4662      	mov	r2, ip
 8000fe4:	433a      	orrs	r2, r7
 8000fe6:	0011      	movs	r1, r2
 8000fe8:	1e4f      	subs	r7, r1, #1
 8000fea:	41b9      	sbcs	r1, r7
 8000fec:	e6ac      	b.n	8000d48 <__aeabi_dadd+0x88>
 8000fee:	4649      	mov	r1, r9
 8000ff0:	0758      	lsls	r0, r3, #29
 8000ff2:	08c9      	lsrs	r1, r1, #3
 8000ff4:	4301      	orrs	r1, r0
 8000ff6:	08db      	lsrs	r3, r3, #3
 8000ff8:	e787      	b.n	8000f0a <__aeabi_dadd+0x24a>
 8000ffa:	4649      	mov	r1, r9
 8000ffc:	075a      	lsls	r2, r3, #29
 8000ffe:	08c9      	lsrs	r1, r1, #3
 8001000:	4311      	orrs	r1, r2
 8001002:	08db      	lsrs	r3, r3, #3
 8001004:	e7a6      	b.n	8000f54 <__aeabi_dadd+0x294>
 8001006:	490d      	ldr	r1, [pc, #52]	; (800103c <__aeabi_dadd+0x37c>)
 8001008:	1c70      	adds	r0, r6, #1
 800100a:	4208      	tst	r0, r1
 800100c:	d000      	beq.n	8001010 <__aeabi_dadd+0x350>
 800100e:	e0bb      	b.n	8001188 <__aeabi_dadd+0x4c8>
 8001010:	2e00      	cmp	r6, #0
 8001012:	d000      	beq.n	8001016 <__aeabi_dadd+0x356>
 8001014:	e114      	b.n	8001240 <__aeabi_dadd+0x580>
 8001016:	4649      	mov	r1, r9
 8001018:	4319      	orrs	r1, r3
 800101a:	d100      	bne.n	800101e <__aeabi_dadd+0x35e>
 800101c:	e175      	b.n	800130a <__aeabi_dadd+0x64a>
 800101e:	0029      	movs	r1, r5
 8001020:	4339      	orrs	r1, r7
 8001022:	d000      	beq.n	8001026 <__aeabi_dadd+0x366>
 8001024:	e17e      	b.n	8001324 <__aeabi_dadd+0x664>
 8001026:	4649      	mov	r1, r9
 8001028:	0758      	lsls	r0, r3, #29
 800102a:	08c9      	lsrs	r1, r1, #3
 800102c:	4301      	orrs	r1, r0
 800102e:	08db      	lsrs	r3, r3, #3
 8001030:	e76e      	b.n	8000f10 <__aeabi_dadd+0x250>
 8001032:	46c0      	nop			; (mov r8, r8)
 8001034:	000007ff 	.word	0x000007ff
 8001038:	ff7fffff 	.word	0xff7fffff
 800103c:	000007fe 	.word	0x000007fe
 8001040:	4649      	mov	r1, r9
 8001042:	1bcd      	subs	r5, r1, r7
 8001044:	4661      	mov	r1, ip
 8001046:	1a58      	subs	r0, r3, r1
 8001048:	45a9      	cmp	r9, r5
 800104a:	4189      	sbcs	r1, r1
 800104c:	4249      	negs	r1, r1
 800104e:	4688      	mov	r8, r1
 8001050:	0001      	movs	r1, r0
 8001052:	4640      	mov	r0, r8
 8001054:	1a09      	subs	r1, r1, r0
 8001056:	4688      	mov	r8, r1
 8001058:	0209      	lsls	r1, r1, #8
 800105a:	d500      	bpl.n	800105e <__aeabi_dadd+0x39e>
 800105c:	e0a6      	b.n	80011ac <__aeabi_dadd+0x4ec>
 800105e:	4641      	mov	r1, r8
 8001060:	4329      	orrs	r1, r5
 8001062:	d000      	beq.n	8001066 <__aeabi_dadd+0x3a6>
 8001064:	e67f      	b.n	8000d66 <__aeabi_dadd+0xa6>
 8001066:	2300      	movs	r3, #0
 8001068:	2400      	movs	r4, #0
 800106a:	e751      	b.n	8000f10 <__aeabi_dadd+0x250>
 800106c:	4cc7      	ldr	r4, [pc, #796]	; (800138c <__aeabi_dadd+0x6cc>)
 800106e:	42a1      	cmp	r1, r4
 8001070:	d100      	bne.n	8001074 <__aeabi_dadd+0x3b4>
 8001072:	e0c7      	b.n	8001204 <__aeabi_dadd+0x544>
 8001074:	2480      	movs	r4, #128	; 0x80
 8001076:	0424      	lsls	r4, r4, #16
 8001078:	4323      	orrs	r3, r4
 800107a:	2a38      	cmp	r2, #56	; 0x38
 800107c:	dc54      	bgt.n	8001128 <__aeabi_dadd+0x468>
 800107e:	2a1f      	cmp	r2, #31
 8001080:	dd00      	ble.n	8001084 <__aeabi_dadd+0x3c4>
 8001082:	e0cc      	b.n	800121e <__aeabi_dadd+0x55e>
 8001084:	2420      	movs	r4, #32
 8001086:	4648      	mov	r0, r9
 8001088:	1aa4      	subs	r4, r4, r2
 800108a:	001d      	movs	r5, r3
 800108c:	464e      	mov	r6, r9
 800108e:	40a0      	lsls	r0, r4
 8001090:	40d6      	lsrs	r6, r2
 8001092:	40a5      	lsls	r5, r4
 8001094:	0004      	movs	r4, r0
 8001096:	40d3      	lsrs	r3, r2
 8001098:	4662      	mov	r2, ip
 800109a:	4335      	orrs	r5, r6
 800109c:	1e66      	subs	r6, r4, #1
 800109e:	41b4      	sbcs	r4, r6
 80010a0:	1ad3      	subs	r3, r2, r3
 80010a2:	469c      	mov	ip, r3
 80010a4:	4325      	orrs	r5, r4
 80010a6:	e044      	b.n	8001132 <__aeabi_dadd+0x472>
 80010a8:	4662      	mov	r2, ip
 80010aa:	433a      	orrs	r2, r7
 80010ac:	0015      	movs	r5, r2
 80010ae:	1e6f      	subs	r7, r5, #1
 80010b0:	41bd      	sbcs	r5, r7
 80010b2:	444d      	add	r5, r9
 80010b4:	454d      	cmp	r5, r9
 80010b6:	4189      	sbcs	r1, r1
 80010b8:	4249      	negs	r1, r1
 80010ba:	4688      	mov	r8, r1
 80010bc:	4498      	add	r8, r3
 80010be:	4643      	mov	r3, r8
 80010c0:	021b      	lsls	r3, r3, #8
 80010c2:	d400      	bmi.n	80010c6 <__aeabi_dadd+0x406>
 80010c4:	e718      	b.n	8000ef8 <__aeabi_dadd+0x238>
 80010c6:	4bb1      	ldr	r3, [pc, #708]	; (800138c <__aeabi_dadd+0x6cc>)
 80010c8:	3601      	adds	r6, #1
 80010ca:	429e      	cmp	r6, r3
 80010cc:	d049      	beq.n	8001162 <__aeabi_dadd+0x4a2>
 80010ce:	4642      	mov	r2, r8
 80010d0:	4baf      	ldr	r3, [pc, #700]	; (8001390 <__aeabi_dadd+0x6d0>)
 80010d2:	2101      	movs	r1, #1
 80010d4:	401a      	ands	r2, r3
 80010d6:	0013      	movs	r3, r2
 80010d8:	086a      	lsrs	r2, r5, #1
 80010da:	400d      	ands	r5, r1
 80010dc:	4315      	orrs	r5, r2
 80010de:	07d9      	lsls	r1, r3, #31
 80010e0:	085b      	lsrs	r3, r3, #1
 80010e2:	4698      	mov	r8, r3
 80010e4:	430d      	orrs	r5, r1
 80010e6:	e665      	b.n	8000db4 <__aeabi_dadd+0xf4>
 80010e8:	0018      	movs	r0, r3
 80010ea:	3e1f      	subs	r6, #31
 80010ec:	40f0      	lsrs	r0, r6
 80010ee:	2a20      	cmp	r2, #32
 80010f0:	d003      	beq.n	80010fa <__aeabi_dadd+0x43a>
 80010f2:	2140      	movs	r1, #64	; 0x40
 80010f4:	1a8a      	subs	r2, r1, r2
 80010f6:	4093      	lsls	r3, r2
 80010f8:	431d      	orrs	r5, r3
 80010fa:	1e69      	subs	r1, r5, #1
 80010fc:	418d      	sbcs	r5, r1
 80010fe:	2300      	movs	r3, #0
 8001100:	2600      	movs	r6, #0
 8001102:	4698      	mov	r8, r3
 8001104:	4305      	orrs	r5, r0
 8001106:	e6f7      	b.n	8000ef8 <__aeabi_dadd+0x238>
 8001108:	0011      	movs	r1, r2
 800110a:	4665      	mov	r5, ip
 800110c:	3920      	subs	r1, #32
 800110e:	40cd      	lsrs	r5, r1
 8001110:	2a20      	cmp	r2, #32
 8001112:	d004      	beq.n	800111e <__aeabi_dadd+0x45e>
 8001114:	2040      	movs	r0, #64	; 0x40
 8001116:	4661      	mov	r1, ip
 8001118:	1a82      	subs	r2, r0, r2
 800111a:	4091      	lsls	r1, r2
 800111c:	430f      	orrs	r7, r1
 800111e:	0039      	movs	r1, r7
 8001120:	1e4f      	subs	r7, r1, #1
 8001122:	41b9      	sbcs	r1, r7
 8001124:	4329      	orrs	r1, r5
 8001126:	e60f      	b.n	8000d48 <__aeabi_dadd+0x88>
 8001128:	464a      	mov	r2, r9
 800112a:	4313      	orrs	r3, r2
 800112c:	001d      	movs	r5, r3
 800112e:	1e6b      	subs	r3, r5, #1
 8001130:	419d      	sbcs	r5, r3
 8001132:	1b7d      	subs	r5, r7, r5
 8001134:	42af      	cmp	r7, r5
 8001136:	419b      	sbcs	r3, r3
 8001138:	4662      	mov	r2, ip
 800113a:	425b      	negs	r3, r3
 800113c:	1ad3      	subs	r3, r2, r3
 800113e:	4698      	mov	r8, r3
 8001140:	4654      	mov	r4, sl
 8001142:	000e      	movs	r6, r1
 8001144:	e607      	b.n	8000d56 <__aeabi_dadd+0x96>
 8001146:	4648      	mov	r0, r9
 8001148:	4318      	orrs	r0, r3
 800114a:	d100      	bne.n	800114e <__aeabi_dadd+0x48e>
 800114c:	e0b3      	b.n	80012b6 <__aeabi_dadd+0x5f6>
 800114e:	1e50      	subs	r0, r2, #1
 8001150:	2a01      	cmp	r2, #1
 8001152:	d100      	bne.n	8001156 <__aeabi_dadd+0x496>
 8001154:	e10d      	b.n	8001372 <__aeabi_dadd+0x6b2>
 8001156:	4d8d      	ldr	r5, [pc, #564]	; (800138c <__aeabi_dadd+0x6cc>)
 8001158:	42aa      	cmp	r2, r5
 800115a:	d100      	bne.n	800115e <__aeabi_dadd+0x49e>
 800115c:	e0a5      	b.n	80012aa <__aeabi_dadd+0x5ea>
 800115e:	0002      	movs	r2, r0
 8001160:	e710      	b.n	8000f84 <__aeabi_dadd+0x2c4>
 8001162:	0032      	movs	r2, r6
 8001164:	2300      	movs	r3, #0
 8001166:	2100      	movs	r1, #0
 8001168:	e644      	b.n	8000df4 <__aeabi_dadd+0x134>
 800116a:	2120      	movs	r1, #32
 800116c:	0038      	movs	r0, r7
 800116e:	1a89      	subs	r1, r1, r2
 8001170:	4665      	mov	r5, ip
 8001172:	408f      	lsls	r7, r1
 8001174:	408d      	lsls	r5, r1
 8001176:	40d0      	lsrs	r0, r2
 8001178:	1e79      	subs	r1, r7, #1
 800117a:	418f      	sbcs	r7, r1
 800117c:	4305      	orrs	r5, r0
 800117e:	433d      	orrs	r5, r7
 8001180:	4667      	mov	r7, ip
 8001182:	40d7      	lsrs	r7, r2
 8001184:	19db      	adds	r3, r3, r7
 8001186:	e794      	b.n	80010b2 <__aeabi_dadd+0x3f2>
 8001188:	4a80      	ldr	r2, [pc, #512]	; (800138c <__aeabi_dadd+0x6cc>)
 800118a:	4290      	cmp	r0, r2
 800118c:	d100      	bne.n	8001190 <__aeabi_dadd+0x4d0>
 800118e:	e0ec      	b.n	800136a <__aeabi_dadd+0x6aa>
 8001190:	0039      	movs	r1, r7
 8001192:	4449      	add	r1, r9
 8001194:	4549      	cmp	r1, r9
 8001196:	4192      	sbcs	r2, r2
 8001198:	4463      	add	r3, ip
 800119a:	4252      	negs	r2, r2
 800119c:	189b      	adds	r3, r3, r2
 800119e:	07dd      	lsls	r5, r3, #31
 80011a0:	0849      	lsrs	r1, r1, #1
 80011a2:	085b      	lsrs	r3, r3, #1
 80011a4:	4698      	mov	r8, r3
 80011a6:	0006      	movs	r6, r0
 80011a8:	430d      	orrs	r5, r1
 80011aa:	e6a5      	b.n	8000ef8 <__aeabi_dadd+0x238>
 80011ac:	464a      	mov	r2, r9
 80011ae:	1abd      	subs	r5, r7, r2
 80011b0:	42af      	cmp	r7, r5
 80011b2:	4189      	sbcs	r1, r1
 80011b4:	4662      	mov	r2, ip
 80011b6:	4249      	negs	r1, r1
 80011b8:	1ad3      	subs	r3, r2, r3
 80011ba:	1a5b      	subs	r3, r3, r1
 80011bc:	4698      	mov	r8, r3
 80011be:	4654      	mov	r4, sl
 80011c0:	e5d1      	b.n	8000d66 <__aeabi_dadd+0xa6>
 80011c2:	076c      	lsls	r4, r5, #29
 80011c4:	08f9      	lsrs	r1, r7, #3
 80011c6:	4321      	orrs	r1, r4
 80011c8:	08eb      	lsrs	r3, r5, #3
 80011ca:	0004      	movs	r4, r0
 80011cc:	e69d      	b.n	8000f0a <__aeabi_dadd+0x24a>
 80011ce:	464a      	mov	r2, r9
 80011d0:	431a      	orrs	r2, r3
 80011d2:	d175      	bne.n	80012c0 <__aeabi_dadd+0x600>
 80011d4:	4661      	mov	r1, ip
 80011d6:	4339      	orrs	r1, r7
 80011d8:	d114      	bne.n	8001204 <__aeabi_dadd+0x544>
 80011da:	2380      	movs	r3, #128	; 0x80
 80011dc:	2400      	movs	r4, #0
 80011de:	031b      	lsls	r3, r3, #12
 80011e0:	e6bc      	b.n	8000f5c <__aeabi_dadd+0x29c>
 80011e2:	464a      	mov	r2, r9
 80011e4:	1bd5      	subs	r5, r2, r7
 80011e6:	45a9      	cmp	r9, r5
 80011e8:	4189      	sbcs	r1, r1
 80011ea:	4662      	mov	r2, ip
 80011ec:	4249      	negs	r1, r1
 80011ee:	1a9b      	subs	r3, r3, r2
 80011f0:	1a5b      	subs	r3, r3, r1
 80011f2:	4698      	mov	r8, r3
 80011f4:	2601      	movs	r6, #1
 80011f6:	e5ae      	b.n	8000d56 <__aeabi_dadd+0x96>
 80011f8:	464a      	mov	r2, r9
 80011fa:	08d1      	lsrs	r1, r2, #3
 80011fc:	075a      	lsls	r2, r3, #29
 80011fe:	4311      	orrs	r1, r2
 8001200:	08db      	lsrs	r3, r3, #3
 8001202:	e6a7      	b.n	8000f54 <__aeabi_dadd+0x294>
 8001204:	4663      	mov	r3, ip
 8001206:	08f9      	lsrs	r1, r7, #3
 8001208:	075a      	lsls	r2, r3, #29
 800120a:	4654      	mov	r4, sl
 800120c:	4311      	orrs	r1, r2
 800120e:	08db      	lsrs	r3, r3, #3
 8001210:	e6a0      	b.n	8000f54 <__aeabi_dadd+0x294>
 8001212:	464a      	mov	r2, r9
 8001214:	4313      	orrs	r3, r2
 8001216:	001d      	movs	r5, r3
 8001218:	1e6b      	subs	r3, r5, #1
 800121a:	419d      	sbcs	r5, r3
 800121c:	e6c7      	b.n	8000fae <__aeabi_dadd+0x2ee>
 800121e:	0014      	movs	r4, r2
 8001220:	001e      	movs	r6, r3
 8001222:	3c20      	subs	r4, #32
 8001224:	40e6      	lsrs	r6, r4
 8001226:	2a20      	cmp	r2, #32
 8001228:	d005      	beq.n	8001236 <__aeabi_dadd+0x576>
 800122a:	2440      	movs	r4, #64	; 0x40
 800122c:	1aa2      	subs	r2, r4, r2
 800122e:	4093      	lsls	r3, r2
 8001230:	464a      	mov	r2, r9
 8001232:	431a      	orrs	r2, r3
 8001234:	4691      	mov	r9, r2
 8001236:	464d      	mov	r5, r9
 8001238:	1e6b      	subs	r3, r5, #1
 800123a:	419d      	sbcs	r5, r3
 800123c:	4335      	orrs	r5, r6
 800123e:	e778      	b.n	8001132 <__aeabi_dadd+0x472>
 8001240:	464a      	mov	r2, r9
 8001242:	431a      	orrs	r2, r3
 8001244:	d000      	beq.n	8001248 <__aeabi_dadd+0x588>
 8001246:	e66b      	b.n	8000f20 <__aeabi_dadd+0x260>
 8001248:	076b      	lsls	r3, r5, #29
 800124a:	08f9      	lsrs	r1, r7, #3
 800124c:	4319      	orrs	r1, r3
 800124e:	08eb      	lsrs	r3, r5, #3
 8001250:	e680      	b.n	8000f54 <__aeabi_dadd+0x294>
 8001252:	4661      	mov	r1, ip
 8001254:	4339      	orrs	r1, r7
 8001256:	d054      	beq.n	8001302 <__aeabi_dadd+0x642>
 8001258:	4663      	mov	r3, ip
 800125a:	08f9      	lsrs	r1, r7, #3
 800125c:	075c      	lsls	r4, r3, #29
 800125e:	4321      	orrs	r1, r4
 8001260:	08db      	lsrs	r3, r3, #3
 8001262:	0004      	movs	r4, r0
 8001264:	e654      	b.n	8000f10 <__aeabi_dadd+0x250>
 8001266:	464a      	mov	r2, r9
 8001268:	1abd      	subs	r5, r7, r2
 800126a:	42af      	cmp	r7, r5
 800126c:	4189      	sbcs	r1, r1
 800126e:	4662      	mov	r2, ip
 8001270:	4249      	negs	r1, r1
 8001272:	1ad3      	subs	r3, r2, r3
 8001274:	1a5b      	subs	r3, r3, r1
 8001276:	4698      	mov	r8, r3
 8001278:	0004      	movs	r4, r0
 800127a:	2601      	movs	r6, #1
 800127c:	e56b      	b.n	8000d56 <__aeabi_dadd+0x96>
 800127e:	464a      	mov	r2, r9
 8001280:	1bd5      	subs	r5, r2, r7
 8001282:	45a9      	cmp	r9, r5
 8001284:	4189      	sbcs	r1, r1
 8001286:	4662      	mov	r2, ip
 8001288:	4249      	negs	r1, r1
 800128a:	1a9a      	subs	r2, r3, r2
 800128c:	1a52      	subs	r2, r2, r1
 800128e:	4690      	mov	r8, r2
 8001290:	0212      	lsls	r2, r2, #8
 8001292:	d532      	bpl.n	80012fa <__aeabi_dadd+0x63a>
 8001294:	464a      	mov	r2, r9
 8001296:	1abd      	subs	r5, r7, r2
 8001298:	42af      	cmp	r7, r5
 800129a:	4189      	sbcs	r1, r1
 800129c:	4662      	mov	r2, ip
 800129e:	4249      	negs	r1, r1
 80012a0:	1ad3      	subs	r3, r2, r3
 80012a2:	1a5b      	subs	r3, r3, r1
 80012a4:	4698      	mov	r8, r3
 80012a6:	0004      	movs	r4, r0
 80012a8:	e584      	b.n	8000db4 <__aeabi_dadd+0xf4>
 80012aa:	4663      	mov	r3, ip
 80012ac:	08f9      	lsrs	r1, r7, #3
 80012ae:	075a      	lsls	r2, r3, #29
 80012b0:	4311      	orrs	r1, r2
 80012b2:	08db      	lsrs	r3, r3, #3
 80012b4:	e64e      	b.n	8000f54 <__aeabi_dadd+0x294>
 80012b6:	08f9      	lsrs	r1, r7, #3
 80012b8:	0768      	lsls	r0, r5, #29
 80012ba:	4301      	orrs	r1, r0
 80012bc:	08eb      	lsrs	r3, r5, #3
 80012be:	e624      	b.n	8000f0a <__aeabi_dadd+0x24a>
 80012c0:	4662      	mov	r2, ip
 80012c2:	433a      	orrs	r2, r7
 80012c4:	d100      	bne.n	80012c8 <__aeabi_dadd+0x608>
 80012c6:	e698      	b.n	8000ffa <__aeabi_dadd+0x33a>
 80012c8:	464a      	mov	r2, r9
 80012ca:	08d1      	lsrs	r1, r2, #3
 80012cc:	075a      	lsls	r2, r3, #29
 80012ce:	4311      	orrs	r1, r2
 80012d0:	08da      	lsrs	r2, r3, #3
 80012d2:	2380      	movs	r3, #128	; 0x80
 80012d4:	031b      	lsls	r3, r3, #12
 80012d6:	421a      	tst	r2, r3
 80012d8:	d008      	beq.n	80012ec <__aeabi_dadd+0x62c>
 80012da:	4660      	mov	r0, ip
 80012dc:	08c5      	lsrs	r5, r0, #3
 80012de:	421d      	tst	r5, r3
 80012e0:	d104      	bne.n	80012ec <__aeabi_dadd+0x62c>
 80012e2:	4654      	mov	r4, sl
 80012e4:	002a      	movs	r2, r5
 80012e6:	08f9      	lsrs	r1, r7, #3
 80012e8:	0743      	lsls	r3, r0, #29
 80012ea:	4319      	orrs	r1, r3
 80012ec:	0f4b      	lsrs	r3, r1, #29
 80012ee:	00c9      	lsls	r1, r1, #3
 80012f0:	075b      	lsls	r3, r3, #29
 80012f2:	08c9      	lsrs	r1, r1, #3
 80012f4:	4319      	orrs	r1, r3
 80012f6:	0013      	movs	r3, r2
 80012f8:	e62c      	b.n	8000f54 <__aeabi_dadd+0x294>
 80012fa:	4641      	mov	r1, r8
 80012fc:	4329      	orrs	r1, r5
 80012fe:	d000      	beq.n	8001302 <__aeabi_dadd+0x642>
 8001300:	e5fa      	b.n	8000ef8 <__aeabi_dadd+0x238>
 8001302:	2300      	movs	r3, #0
 8001304:	000a      	movs	r2, r1
 8001306:	2400      	movs	r4, #0
 8001308:	e602      	b.n	8000f10 <__aeabi_dadd+0x250>
 800130a:	076b      	lsls	r3, r5, #29
 800130c:	08f9      	lsrs	r1, r7, #3
 800130e:	4319      	orrs	r1, r3
 8001310:	08eb      	lsrs	r3, r5, #3
 8001312:	e5fd      	b.n	8000f10 <__aeabi_dadd+0x250>
 8001314:	4663      	mov	r3, ip
 8001316:	08f9      	lsrs	r1, r7, #3
 8001318:	075b      	lsls	r3, r3, #29
 800131a:	4319      	orrs	r1, r3
 800131c:	4663      	mov	r3, ip
 800131e:	0004      	movs	r4, r0
 8001320:	08db      	lsrs	r3, r3, #3
 8001322:	e617      	b.n	8000f54 <__aeabi_dadd+0x294>
 8001324:	003d      	movs	r5, r7
 8001326:	444d      	add	r5, r9
 8001328:	4463      	add	r3, ip
 800132a:	454d      	cmp	r5, r9
 800132c:	4189      	sbcs	r1, r1
 800132e:	4698      	mov	r8, r3
 8001330:	4249      	negs	r1, r1
 8001332:	4488      	add	r8, r1
 8001334:	4643      	mov	r3, r8
 8001336:	021b      	lsls	r3, r3, #8
 8001338:	d400      	bmi.n	800133c <__aeabi_dadd+0x67c>
 800133a:	e5dd      	b.n	8000ef8 <__aeabi_dadd+0x238>
 800133c:	4642      	mov	r2, r8
 800133e:	4b14      	ldr	r3, [pc, #80]	; (8001390 <__aeabi_dadd+0x6d0>)
 8001340:	2601      	movs	r6, #1
 8001342:	401a      	ands	r2, r3
 8001344:	4690      	mov	r8, r2
 8001346:	e5d7      	b.n	8000ef8 <__aeabi_dadd+0x238>
 8001348:	0010      	movs	r0, r2
 800134a:	001e      	movs	r6, r3
 800134c:	3820      	subs	r0, #32
 800134e:	40c6      	lsrs	r6, r0
 8001350:	2a20      	cmp	r2, #32
 8001352:	d005      	beq.n	8001360 <__aeabi_dadd+0x6a0>
 8001354:	2040      	movs	r0, #64	; 0x40
 8001356:	1a82      	subs	r2, r0, r2
 8001358:	4093      	lsls	r3, r2
 800135a:	464a      	mov	r2, r9
 800135c:	431a      	orrs	r2, r3
 800135e:	4691      	mov	r9, r2
 8001360:	464d      	mov	r5, r9
 8001362:	1e6b      	subs	r3, r5, #1
 8001364:	419d      	sbcs	r5, r3
 8001366:	4335      	orrs	r5, r6
 8001368:	e621      	b.n	8000fae <__aeabi_dadd+0x2ee>
 800136a:	0002      	movs	r2, r0
 800136c:	2300      	movs	r3, #0
 800136e:	2100      	movs	r1, #0
 8001370:	e540      	b.n	8000df4 <__aeabi_dadd+0x134>
 8001372:	464a      	mov	r2, r9
 8001374:	19d5      	adds	r5, r2, r7
 8001376:	42bd      	cmp	r5, r7
 8001378:	4189      	sbcs	r1, r1
 800137a:	4463      	add	r3, ip
 800137c:	4698      	mov	r8, r3
 800137e:	4249      	negs	r1, r1
 8001380:	4488      	add	r8, r1
 8001382:	e5b3      	b.n	8000eec <__aeabi_dadd+0x22c>
 8001384:	2100      	movs	r1, #0
 8001386:	4a01      	ldr	r2, [pc, #4]	; (800138c <__aeabi_dadd+0x6cc>)
 8001388:	000b      	movs	r3, r1
 800138a:	e533      	b.n	8000df4 <__aeabi_dadd+0x134>
 800138c:	000007ff 	.word	0x000007ff
 8001390:	ff7fffff 	.word	0xff7fffff

08001394 <__aeabi_ddiv>:
 8001394:	b5f0      	push	{r4, r5, r6, r7, lr}
 8001396:	4657      	mov	r7, sl
 8001398:	464e      	mov	r6, r9
 800139a:	4645      	mov	r5, r8
 800139c:	46de      	mov	lr, fp
 800139e:	b5e0      	push	{r5, r6, r7, lr}
 80013a0:	4681      	mov	r9, r0
 80013a2:	0005      	movs	r5, r0
 80013a4:	030c      	lsls	r4, r1, #12
 80013a6:	0048      	lsls	r0, r1, #1
 80013a8:	4692      	mov	sl, r2
 80013aa:	001f      	movs	r7, r3
 80013ac:	b085      	sub	sp, #20
 80013ae:	0b24      	lsrs	r4, r4, #12
 80013b0:	0d40      	lsrs	r0, r0, #21
 80013b2:	0fce      	lsrs	r6, r1, #31
 80013b4:	2800      	cmp	r0, #0
 80013b6:	d059      	beq.n	800146c <__aeabi_ddiv+0xd8>
 80013b8:	4b87      	ldr	r3, [pc, #540]	; (80015d8 <__aeabi_ddiv+0x244>)
 80013ba:	4298      	cmp	r0, r3
 80013bc:	d100      	bne.n	80013c0 <__aeabi_ddiv+0x2c>
 80013be:	e098      	b.n	80014f2 <__aeabi_ddiv+0x15e>
 80013c0:	0f6b      	lsrs	r3, r5, #29
 80013c2:	00e4      	lsls	r4, r4, #3
 80013c4:	431c      	orrs	r4, r3
 80013c6:	2380      	movs	r3, #128	; 0x80
 80013c8:	041b      	lsls	r3, r3, #16
 80013ca:	4323      	orrs	r3, r4
 80013cc:	4698      	mov	r8, r3
 80013ce:	4b83      	ldr	r3, [pc, #524]	; (80015dc <__aeabi_ddiv+0x248>)
 80013d0:	00ed      	lsls	r5, r5, #3
 80013d2:	469b      	mov	fp, r3
 80013d4:	2300      	movs	r3, #0
 80013d6:	4699      	mov	r9, r3
 80013d8:	4483      	add	fp, r0
 80013da:	9300      	str	r3, [sp, #0]
 80013dc:	033c      	lsls	r4, r7, #12
 80013de:	007b      	lsls	r3, r7, #1
 80013e0:	4650      	mov	r0, sl
 80013e2:	0b24      	lsrs	r4, r4, #12
 80013e4:	0d5b      	lsrs	r3, r3, #21
 80013e6:	0fff      	lsrs	r7, r7, #31
 80013e8:	2b00      	cmp	r3, #0
 80013ea:	d067      	beq.n	80014bc <__aeabi_ddiv+0x128>
 80013ec:	4a7a      	ldr	r2, [pc, #488]	; (80015d8 <__aeabi_ddiv+0x244>)
 80013ee:	4293      	cmp	r3, r2
 80013f0:	d018      	beq.n	8001424 <__aeabi_ddiv+0x90>
 80013f2:	497a      	ldr	r1, [pc, #488]	; (80015dc <__aeabi_ddiv+0x248>)
 80013f4:	0f42      	lsrs	r2, r0, #29
 80013f6:	468c      	mov	ip, r1
 80013f8:	00e4      	lsls	r4, r4, #3
 80013fa:	4659      	mov	r1, fp
 80013fc:	4314      	orrs	r4, r2
 80013fe:	2280      	movs	r2, #128	; 0x80
 8001400:	4463      	add	r3, ip
 8001402:	0412      	lsls	r2, r2, #16
 8001404:	1acb      	subs	r3, r1, r3
 8001406:	4314      	orrs	r4, r2
 8001408:	469b      	mov	fp, r3
 800140a:	00c2      	lsls	r2, r0, #3
 800140c:	2000      	movs	r0, #0
 800140e:	0033      	movs	r3, r6
 8001410:	407b      	eors	r3, r7
 8001412:	469a      	mov	sl, r3
 8001414:	464b      	mov	r3, r9
 8001416:	2b0f      	cmp	r3, #15
 8001418:	d900      	bls.n	800141c <__aeabi_ddiv+0x88>
 800141a:	e0ef      	b.n	80015fc <__aeabi_ddiv+0x268>
 800141c:	4970      	ldr	r1, [pc, #448]	; (80015e0 <__aeabi_ddiv+0x24c>)
 800141e:	009b      	lsls	r3, r3, #2
 8001420:	58cb      	ldr	r3, [r1, r3]
 8001422:	469f      	mov	pc, r3
 8001424:	4b6f      	ldr	r3, [pc, #444]	; (80015e4 <__aeabi_ddiv+0x250>)
 8001426:	4652      	mov	r2, sl
 8001428:	469c      	mov	ip, r3
 800142a:	4322      	orrs	r2, r4
 800142c:	44e3      	add	fp, ip
 800142e:	2a00      	cmp	r2, #0
 8001430:	d000      	beq.n	8001434 <__aeabi_ddiv+0xa0>
 8001432:	e095      	b.n	8001560 <__aeabi_ddiv+0x1cc>
 8001434:	4649      	mov	r1, r9
 8001436:	2302      	movs	r3, #2
 8001438:	4319      	orrs	r1, r3
 800143a:	4689      	mov	r9, r1
 800143c:	2400      	movs	r4, #0
 800143e:	2002      	movs	r0, #2
 8001440:	e7e5      	b.n	800140e <__aeabi_ddiv+0x7a>
 8001442:	2300      	movs	r3, #0
 8001444:	2400      	movs	r4, #0
 8001446:	2500      	movs	r5, #0
 8001448:	4652      	mov	r2, sl
 800144a:	051b      	lsls	r3, r3, #20
 800144c:	4323      	orrs	r3, r4
 800144e:	07d2      	lsls	r2, r2, #31
 8001450:	4313      	orrs	r3, r2
 8001452:	0028      	movs	r0, r5
 8001454:	0019      	movs	r1, r3
 8001456:	b005      	add	sp, #20
 8001458:	bcf0      	pop	{r4, r5, r6, r7}
 800145a:	46bb      	mov	fp, r7
 800145c:	46b2      	mov	sl, r6
 800145e:	46a9      	mov	r9, r5
 8001460:	46a0      	mov	r8, r4
 8001462:	bdf0      	pop	{r4, r5, r6, r7, pc}
 8001464:	2400      	movs	r4, #0
 8001466:	2500      	movs	r5, #0
 8001468:	4b5b      	ldr	r3, [pc, #364]	; (80015d8 <__aeabi_ddiv+0x244>)
 800146a:	e7ed      	b.n	8001448 <__aeabi_ddiv+0xb4>
 800146c:	464b      	mov	r3, r9
 800146e:	4323      	orrs	r3, r4
 8001470:	4698      	mov	r8, r3
 8001472:	d100      	bne.n	8001476 <__aeabi_ddiv+0xe2>
 8001474:	e089      	b.n	800158a <__aeabi_ddiv+0x1f6>
 8001476:	2c00      	cmp	r4, #0
 8001478:	d100      	bne.n	800147c <__aeabi_ddiv+0xe8>
 800147a:	e1e0      	b.n	800183e <__aeabi_ddiv+0x4aa>
 800147c:	0020      	movs	r0, r4
 800147e:	f000 fd43 	bl	8001f08 <__clzsi2>
 8001482:	0001      	movs	r1, r0
 8001484:	0002      	movs	r2, r0
 8001486:	390b      	subs	r1, #11
 8001488:	231d      	movs	r3, #29
 800148a:	1a5b      	subs	r3, r3, r1
 800148c:	4649      	mov	r1, r9
 800148e:	0010      	movs	r0, r2
 8001490:	40d9      	lsrs	r1, r3
 8001492:	3808      	subs	r0, #8
 8001494:	4084      	lsls	r4, r0
 8001496:	000b      	movs	r3, r1
 8001498:	464d      	mov	r5, r9
 800149a:	4323      	orrs	r3, r4
 800149c:	4698      	mov	r8, r3
 800149e:	4085      	lsls	r5, r0
 80014a0:	4851      	ldr	r0, [pc, #324]	; (80015e8 <__aeabi_ddiv+0x254>)
 80014a2:	033c      	lsls	r4, r7, #12
 80014a4:	1a83      	subs	r3, r0, r2
 80014a6:	469b      	mov	fp, r3
 80014a8:	2300      	movs	r3, #0
 80014aa:	4699      	mov	r9, r3
 80014ac:	9300      	str	r3, [sp, #0]
 80014ae:	007b      	lsls	r3, r7, #1
 80014b0:	4650      	mov	r0, sl
 80014b2:	0b24      	lsrs	r4, r4, #12
 80014b4:	0d5b      	lsrs	r3, r3, #21
 80014b6:	0fff      	lsrs	r7, r7, #31
 80014b8:	2b00      	cmp	r3, #0
 80014ba:	d197      	bne.n	80013ec <__aeabi_ddiv+0x58>
 80014bc:	4652      	mov	r2, sl
 80014be:	4322      	orrs	r2, r4
 80014c0:	d055      	beq.n	800156e <__aeabi_ddiv+0x1da>
 80014c2:	2c00      	cmp	r4, #0
 80014c4:	d100      	bne.n	80014c8 <__aeabi_ddiv+0x134>
 80014c6:	e1ca      	b.n	800185e <__aeabi_ddiv+0x4ca>
 80014c8:	0020      	movs	r0, r4
 80014ca:	f000 fd1d 	bl	8001f08 <__clzsi2>
 80014ce:	0002      	movs	r2, r0
 80014d0:	3a0b      	subs	r2, #11
 80014d2:	231d      	movs	r3, #29
 80014d4:	0001      	movs	r1, r0
 80014d6:	1a9b      	subs	r3, r3, r2
 80014d8:	4652      	mov	r2, sl
 80014da:	3908      	subs	r1, #8
 80014dc:	40da      	lsrs	r2, r3
 80014de:	408c      	lsls	r4, r1
 80014e0:	4314      	orrs	r4, r2
 80014e2:	4652      	mov	r2, sl
 80014e4:	408a      	lsls	r2, r1
 80014e6:	4b41      	ldr	r3, [pc, #260]	; (80015ec <__aeabi_ddiv+0x258>)
 80014e8:	4458      	add	r0, fp
 80014ea:	469b      	mov	fp, r3
 80014ec:	4483      	add	fp, r0
 80014ee:	2000      	movs	r0, #0
 80014f0:	e78d      	b.n	800140e <__aeabi_ddiv+0x7a>
 80014f2:	464b      	mov	r3, r9
 80014f4:	4323      	orrs	r3, r4
 80014f6:	4698      	mov	r8, r3
 80014f8:	d140      	bne.n	800157c <__aeabi_ddiv+0x1e8>
 80014fa:	2308      	movs	r3, #8
 80014fc:	4699      	mov	r9, r3
 80014fe:	3b06      	subs	r3, #6
 8001500:	2500      	movs	r5, #0
 8001502:	4683      	mov	fp, r0
 8001504:	9300      	str	r3, [sp, #0]
 8001506:	e769      	b.n	80013dc <__aeabi_ddiv+0x48>
 8001508:	46b2      	mov	sl, r6
 800150a:	9b00      	ldr	r3, [sp, #0]
 800150c:	2b02      	cmp	r3, #2
 800150e:	d0a9      	beq.n	8001464 <__aeabi_ddiv+0xd0>
 8001510:	2b03      	cmp	r3, #3
 8001512:	d100      	bne.n	8001516 <__aeabi_ddiv+0x182>
 8001514:	e211      	b.n	800193a <__aeabi_ddiv+0x5a6>
 8001516:	2b01      	cmp	r3, #1
 8001518:	d093      	beq.n	8001442 <__aeabi_ddiv+0xae>
 800151a:	4a35      	ldr	r2, [pc, #212]	; (80015f0 <__aeabi_ddiv+0x25c>)
 800151c:	445a      	add	r2, fp
 800151e:	2a00      	cmp	r2, #0
 8001520:	dc00      	bgt.n	8001524 <__aeabi_ddiv+0x190>
 8001522:	e13c      	b.n	800179e <__aeabi_ddiv+0x40a>
 8001524:	076b      	lsls	r3, r5, #29
 8001526:	d000      	beq.n	800152a <__aeabi_ddiv+0x196>
 8001528:	e1a7      	b.n	800187a <__aeabi_ddiv+0x4e6>
 800152a:	08ed      	lsrs	r5, r5, #3
 800152c:	4643      	mov	r3, r8
 800152e:	01db      	lsls	r3, r3, #7
 8001530:	d506      	bpl.n	8001540 <__aeabi_ddiv+0x1ac>
 8001532:	4642      	mov	r2, r8
 8001534:	4b2f      	ldr	r3, [pc, #188]	; (80015f4 <__aeabi_ddiv+0x260>)
 8001536:	401a      	ands	r2, r3
 8001538:	4690      	mov	r8, r2
 800153a:	2280      	movs	r2, #128	; 0x80
 800153c:	00d2      	lsls	r2, r2, #3
 800153e:	445a      	add	r2, fp
 8001540:	4b2d      	ldr	r3, [pc, #180]	; (80015f8 <__aeabi_ddiv+0x264>)
 8001542:	429a      	cmp	r2, r3
 8001544:	dc8e      	bgt.n	8001464 <__aeabi_ddiv+0xd0>
 8001546:	4643      	mov	r3, r8
 8001548:	0552      	lsls	r2, r2, #21
 800154a:	0758      	lsls	r0, r3, #29
 800154c:	025c      	lsls	r4, r3, #9
 800154e:	4305      	orrs	r5, r0
 8001550:	0b24      	lsrs	r4, r4, #12
 8001552:	0d53      	lsrs	r3, r2, #21
 8001554:	e778      	b.n	8001448 <__aeabi_ddiv+0xb4>
 8001556:	46ba      	mov	sl, r7
 8001558:	46a0      	mov	r8, r4
 800155a:	0015      	movs	r5, r2
 800155c:	9000      	str	r0, [sp, #0]
 800155e:	e7d4      	b.n	800150a <__aeabi_ddiv+0x176>
 8001560:	464a      	mov	r2, r9
 8001562:	2303      	movs	r3, #3
 8001564:	431a      	orrs	r2, r3
 8001566:	4691      	mov	r9, r2
 8001568:	2003      	movs	r0, #3
 800156a:	4652      	mov	r2, sl
 800156c:	e74f      	b.n	800140e <__aeabi_ddiv+0x7a>
 800156e:	4649      	mov	r1, r9
 8001570:	2301      	movs	r3, #1
 8001572:	4319      	orrs	r1, r3
 8001574:	4689      	mov	r9, r1
 8001576:	2400      	movs	r4, #0
 8001578:	2001      	movs	r0, #1
 800157a:	e748      	b.n	800140e <__aeabi_ddiv+0x7a>
 800157c:	230c      	movs	r3, #12
 800157e:	4699      	mov	r9, r3
 8001580:	3b09      	subs	r3, #9
 8001582:	46a0      	mov	r8, r4
 8001584:	4683      	mov	fp, r0
 8001586:	9300      	str	r3, [sp, #0]
 8001588:	e728      	b.n	80013dc <__aeabi_ddiv+0x48>
 800158a:	2304      	movs	r3, #4
 800158c:	4699      	mov	r9, r3
 800158e:	2300      	movs	r3, #0
 8001590:	469b      	mov	fp, r3
 8001592:	3301      	adds	r3, #1
 8001594:	2500      	movs	r5, #0
 8001596:	9300      	str	r3, [sp, #0]
 8001598:	e720      	b.n	80013dc <__aeabi_ddiv+0x48>
 800159a:	2300      	movs	r3, #0
 800159c:	2480      	movs	r4, #128	; 0x80
 800159e:	469a      	mov	sl, r3
 80015a0:	2500      	movs	r5, #0
 80015a2:	4b0d      	ldr	r3, [pc, #52]	; (80015d8 <__aeabi_ddiv+0x244>)
 80015a4:	0324      	lsls	r4, r4, #12
 80015a6:	e74f      	b.n	8001448 <__aeabi_ddiv+0xb4>
 80015a8:	2380      	movs	r3, #128	; 0x80
 80015aa:	4641      	mov	r1, r8
 80015ac:	031b      	lsls	r3, r3, #12
 80015ae:	4219      	tst	r1, r3
 80015b0:	d008      	beq.n	80015c4 <__aeabi_ddiv+0x230>
 80015b2:	421c      	tst	r4, r3
 80015b4:	d106      	bne.n	80015c4 <__aeabi_ddiv+0x230>
 80015b6:	431c      	orrs	r4, r3
 80015b8:	0324      	lsls	r4, r4, #12
 80015ba:	46ba      	mov	sl, r7
 80015bc:	0015      	movs	r5, r2
 80015be:	4b06      	ldr	r3, [pc, #24]	; (80015d8 <__aeabi_ddiv+0x244>)
 80015c0:	0b24      	lsrs	r4, r4, #12
 80015c2:	e741      	b.n	8001448 <__aeabi_ddiv+0xb4>
 80015c4:	2480      	movs	r4, #128	; 0x80
 80015c6:	4643      	mov	r3, r8
 80015c8:	0324      	lsls	r4, r4, #12
 80015ca:	431c      	orrs	r4, r3
 80015cc:	0324      	lsls	r4, r4, #12
 80015ce:	46b2      	mov	sl, r6
 80015d0:	4b01      	ldr	r3, [pc, #4]	; (80015d8 <__aeabi_ddiv+0x244>)
 80015d2:	0b24      	lsrs	r4, r4, #12
 80015d4:	e738      	b.n	8001448 <__aeabi_ddiv+0xb4>
 80015d6:	46c0      	nop			; (mov r8, r8)
 80015d8:	000007ff 	.word	0x000007ff
 80015dc:	fffffc01 	.word	0xfffffc01
 80015e0:	080057cc 	.word	0x080057cc
 80015e4:	fffff801 	.word	0xfffff801
 80015e8:	fffffc0d 	.word	0xfffffc0d
 80015ec:	000003f3 	.word	0x000003f3
 80015f0:	000003ff 	.word	0x000003ff
 80015f4:	feffffff 	.word	0xfeffffff
 80015f8:	000007fe 	.word	0x000007fe
 80015fc:	4544      	cmp	r4, r8
 80015fe:	d200      	bcs.n	8001602 <__aeabi_ddiv+0x26e>
 8001600:	e116      	b.n	8001830 <__aeabi_ddiv+0x49c>
 8001602:	d100      	bne.n	8001606 <__aeabi_ddiv+0x272>
 8001604:	e111      	b.n	800182a <__aeabi_ddiv+0x496>
 8001606:	2301      	movs	r3, #1
 8001608:	425b      	negs	r3, r3
 800160a:	469c      	mov	ip, r3
 800160c:	002e      	movs	r6, r5
 800160e:	4640      	mov	r0, r8
 8001610:	2500      	movs	r5, #0
 8001612:	44e3      	add	fp, ip
 8001614:	0223      	lsls	r3, r4, #8
 8001616:	0e14      	lsrs	r4, r2, #24
 8001618:	431c      	orrs	r4, r3
 800161a:	0c1b      	lsrs	r3, r3, #16
 800161c:	4699      	mov	r9, r3
 800161e:	0423      	lsls	r3, r4, #16
 8001620:	0c1f      	lsrs	r7, r3, #16
 8001622:	0212      	lsls	r2, r2, #8
 8001624:	4649      	mov	r1, r9
 8001626:	9200      	str	r2, [sp, #0]
 8001628:	9701      	str	r7, [sp, #4]
 800162a:	f7fe fe07 	bl	800023c <__aeabi_uidivmod>
 800162e:	0002      	movs	r2, r0
 8001630:	437a      	muls	r2, r7
 8001632:	040b      	lsls	r3, r1, #16
 8001634:	0c31      	lsrs	r1, r6, #16
 8001636:	4680      	mov	r8, r0
 8001638:	4319      	orrs	r1, r3
 800163a:	428a      	cmp	r2, r1
 800163c:	d90b      	bls.n	8001656 <__aeabi_ddiv+0x2c2>
 800163e:	2301      	movs	r3, #1
 8001640:	425b      	negs	r3, r3
 8001642:	469c      	mov	ip, r3
 8001644:	1909      	adds	r1, r1, r4
 8001646:	44e0      	add	r8, ip
 8001648:	428c      	cmp	r4, r1
 800164a:	d804      	bhi.n	8001656 <__aeabi_ddiv+0x2c2>
 800164c:	428a      	cmp	r2, r1
 800164e:	d902      	bls.n	8001656 <__aeabi_ddiv+0x2c2>
 8001650:	1e83      	subs	r3, r0, #2
 8001652:	4698      	mov	r8, r3
 8001654:	1909      	adds	r1, r1, r4
 8001656:	1a88      	subs	r0, r1, r2
 8001658:	4649      	mov	r1, r9
 800165a:	f7fe fdef 	bl	800023c <__aeabi_uidivmod>
 800165e:	0409      	lsls	r1, r1, #16
 8001660:	468c      	mov	ip, r1
 8001662:	0431      	lsls	r1, r6, #16
 8001664:	4666      	mov	r6, ip
 8001666:	9a01      	ldr	r2, [sp, #4]
 8001668:	0c09      	lsrs	r1, r1, #16
 800166a:	4342      	muls	r2, r0
 800166c:	0003      	movs	r3, r0
 800166e:	4331      	orrs	r1, r6
 8001670:	428a      	cmp	r2, r1
 8001672:	d904      	bls.n	800167e <__aeabi_ddiv+0x2ea>
 8001674:	1909      	adds	r1, r1, r4
 8001676:	3b01      	subs	r3, #1
 8001678:	428c      	cmp	r4, r1
 800167a:	d800      	bhi.n	800167e <__aeabi_ddiv+0x2ea>
 800167c:	e111      	b.n	80018a2 <__aeabi_ddiv+0x50e>
 800167e:	1a89      	subs	r1, r1, r2
 8001680:	4642      	mov	r2, r8
 8001682:	9e00      	ldr	r6, [sp, #0]
 8001684:	0412      	lsls	r2, r2, #16
 8001686:	431a      	orrs	r2, r3
 8001688:	0c33      	lsrs	r3, r6, #16
 800168a:	001f      	movs	r7, r3
 800168c:	0c10      	lsrs	r0, r2, #16
 800168e:	4690      	mov	r8, r2
 8001690:	9302      	str	r3, [sp, #8]
 8001692:	0413      	lsls	r3, r2, #16
 8001694:	0432      	lsls	r2, r6, #16
 8001696:	0c16      	lsrs	r6, r2, #16
 8001698:	0032      	movs	r2, r6
 800169a:	0c1b      	lsrs	r3, r3, #16
 800169c:	435a      	muls	r2, r3
 800169e:	9603      	str	r6, [sp, #12]
 80016a0:	437b      	muls	r3, r7
 80016a2:	4346      	muls	r6, r0
 80016a4:	4378      	muls	r0, r7
 80016a6:	0c17      	lsrs	r7, r2, #16
 80016a8:	46bc      	mov	ip, r7
 80016aa:	199b      	adds	r3, r3, r6
 80016ac:	4463      	add	r3, ip
 80016ae:	429e      	cmp	r6, r3
 80016b0:	d903      	bls.n	80016ba <__aeabi_ddiv+0x326>
 80016b2:	2680      	movs	r6, #128	; 0x80
 80016b4:	0276      	lsls	r6, r6, #9
 80016b6:	46b4      	mov	ip, r6
 80016b8:	4460      	add	r0, ip
 80016ba:	0c1e      	lsrs	r6, r3, #16
 80016bc:	1830      	adds	r0, r6, r0
 80016be:	0416      	lsls	r6, r2, #16
 80016c0:	041b      	lsls	r3, r3, #16
 80016c2:	0c36      	lsrs	r6, r6, #16
 80016c4:	199e      	adds	r6, r3, r6
 80016c6:	4281      	cmp	r1, r0
 80016c8:	d200      	bcs.n	80016cc <__aeabi_ddiv+0x338>
 80016ca:	e09c      	b.n	8001806 <__aeabi_ddiv+0x472>
 80016cc:	d100      	bne.n	80016d0 <__aeabi_ddiv+0x33c>
 80016ce:	e097      	b.n	8001800 <__aeabi_ddiv+0x46c>
 80016d0:	1bae      	subs	r6, r5, r6
 80016d2:	1a09      	subs	r1, r1, r0
 80016d4:	42b5      	cmp	r5, r6
 80016d6:	4180      	sbcs	r0, r0
 80016d8:	4240      	negs	r0, r0
 80016da:	1a08      	subs	r0, r1, r0
 80016dc:	4284      	cmp	r4, r0
 80016de:	d100      	bne.n	80016e2 <__aeabi_ddiv+0x34e>
 80016e0:	e111      	b.n	8001906 <__aeabi_ddiv+0x572>
 80016e2:	4649      	mov	r1, r9
 80016e4:	f7fe fdaa 	bl	800023c <__aeabi_uidivmod>
 80016e8:	9a01      	ldr	r2, [sp, #4]
 80016ea:	040b      	lsls	r3, r1, #16
 80016ec:	4342      	muls	r2, r0
 80016ee:	0c31      	lsrs	r1, r6, #16
 80016f0:	0005      	movs	r5, r0
 80016f2:	4319      	orrs	r1, r3
 80016f4:	428a      	cmp	r2, r1
 80016f6:	d907      	bls.n	8001708 <__aeabi_ddiv+0x374>
 80016f8:	1909      	adds	r1, r1, r4
 80016fa:	3d01      	subs	r5, #1
 80016fc:	428c      	cmp	r4, r1
 80016fe:	d803      	bhi.n	8001708 <__aeabi_ddiv+0x374>
 8001700:	428a      	cmp	r2, r1
 8001702:	d901      	bls.n	8001708 <__aeabi_ddiv+0x374>
 8001704:	1e85      	subs	r5, r0, #2
 8001706:	1909      	adds	r1, r1, r4
 8001708:	1a88      	subs	r0, r1, r2
 800170a:	4649      	mov	r1, r9
 800170c:	f7fe fd96 	bl	800023c <__aeabi_uidivmod>
 8001710:	0409      	lsls	r1, r1, #16
 8001712:	468c      	mov	ip, r1
 8001714:	0431      	lsls	r1, r6, #16
 8001716:	4666      	mov	r6, ip
 8001718:	9a01      	ldr	r2, [sp, #4]
 800171a:	0c09      	lsrs	r1, r1, #16
 800171c:	4342      	muls	r2, r0
 800171e:	0003      	movs	r3, r0
 8001720:	4331      	orrs	r1, r6
 8001722:	428a      	cmp	r2, r1
 8001724:	d907      	bls.n	8001736 <__aeabi_ddiv+0x3a2>
 8001726:	1909      	adds	r1, r1, r4
 8001728:	3b01      	subs	r3, #1
 800172a:	428c      	cmp	r4, r1
 800172c:	d803      	bhi.n	8001736 <__aeabi_ddiv+0x3a2>
 800172e:	428a      	cmp	r2, r1
 8001730:	d901      	bls.n	8001736 <__aeabi_ddiv+0x3a2>
 8001732:	1e83      	subs	r3, r0, #2
 8001734:	1909      	adds	r1, r1, r4
 8001736:	9e03      	ldr	r6, [sp, #12]
 8001738:	1a89      	subs	r1, r1, r2
 800173a:	0032      	movs	r2, r6
 800173c:	042d      	lsls	r5, r5, #16
 800173e:	431d      	orrs	r5, r3
 8001740:	9f02      	ldr	r7, [sp, #8]
 8001742:	042b      	lsls	r3, r5, #16
 8001744:	0c1b      	lsrs	r3, r3, #16
 8001746:	435a      	muls	r2, r3
 8001748:	437b      	muls	r3, r7
 800174a:	469c      	mov	ip, r3
 800174c:	0c28      	lsrs	r0, r5, #16
 800174e:	4346      	muls	r6, r0
 8001750:	0c13      	lsrs	r3, r2, #16
 8001752:	44b4      	add	ip, r6
 8001754:	4463      	add	r3, ip
 8001756:	4378      	muls	r0, r7
 8001758:	429e      	cmp	r6, r3
 800175a:	d903      	bls.n	8001764 <__aeabi_ddiv+0x3d0>
 800175c:	2680      	movs	r6, #128	; 0x80
 800175e:	0276      	lsls	r6, r6, #9
 8001760:	46b4      	mov	ip, r6
 8001762:	4460      	add	r0, ip
 8001764:	0c1e      	lsrs	r6, r3, #16
 8001766:	0412      	lsls	r2, r2, #16
 8001768:	041b      	lsls	r3, r3, #16
 800176a:	0c12      	lsrs	r2, r2, #16
 800176c:	1830      	adds	r0, r6, r0
 800176e:	189b      	adds	r3, r3, r2
 8001770:	4281      	cmp	r1, r0
 8001772:	d306      	bcc.n	8001782 <__aeabi_ddiv+0x3ee>
 8001774:	d002      	beq.n	800177c <__aeabi_ddiv+0x3e8>
 8001776:	2301      	movs	r3, #1
 8001778:	431d      	orrs	r5, r3
 800177a:	e6ce      	b.n	800151a <__aeabi_ddiv+0x186>
 800177c:	2b00      	cmp	r3, #0
 800177e:	d100      	bne.n	8001782 <__aeabi_ddiv+0x3ee>
 8001780:	e6cb      	b.n	800151a <__aeabi_ddiv+0x186>
 8001782:	1861      	adds	r1, r4, r1
 8001784:	1e6e      	subs	r6, r5, #1
 8001786:	42a1      	cmp	r1, r4
 8001788:	d200      	bcs.n	800178c <__aeabi_ddiv+0x3f8>
 800178a:	e0a4      	b.n	80018d6 <__aeabi_ddiv+0x542>
 800178c:	4281      	cmp	r1, r0
 800178e:	d200      	bcs.n	8001792 <__aeabi_ddiv+0x3fe>
 8001790:	e0c9      	b.n	8001926 <__aeabi_ddiv+0x592>
 8001792:	d100      	bne.n	8001796 <__aeabi_ddiv+0x402>
 8001794:	e0d9      	b.n	800194a <__aeabi_ddiv+0x5b6>
 8001796:	0035      	movs	r5, r6
 8001798:	e7ed      	b.n	8001776 <__aeabi_ddiv+0x3e2>
 800179a:	2501      	movs	r5, #1
 800179c:	426d      	negs	r5, r5
 800179e:	2101      	movs	r1, #1
 80017a0:	1a89      	subs	r1, r1, r2
 80017a2:	2938      	cmp	r1, #56	; 0x38
 80017a4:	dd00      	ble.n	80017a8 <__aeabi_ddiv+0x414>
 80017a6:	e64c      	b.n	8001442 <__aeabi_ddiv+0xae>
 80017a8:	291f      	cmp	r1, #31
 80017aa:	dc00      	bgt.n	80017ae <__aeabi_ddiv+0x41a>
 80017ac:	e07f      	b.n	80018ae <__aeabi_ddiv+0x51a>
 80017ae:	231f      	movs	r3, #31
 80017b0:	425b      	negs	r3, r3
 80017b2:	1a9a      	subs	r2, r3, r2
 80017b4:	4643      	mov	r3, r8
 80017b6:	40d3      	lsrs	r3, r2
 80017b8:	2920      	cmp	r1, #32
 80017ba:	d004      	beq.n	80017c6 <__aeabi_ddiv+0x432>
 80017bc:	4644      	mov	r4, r8
 80017be:	4a65      	ldr	r2, [pc, #404]	; (8001954 <__aeabi_ddiv+0x5c0>)
 80017c0:	445a      	add	r2, fp
 80017c2:	4094      	lsls	r4, r2
 80017c4:	4325      	orrs	r5, r4
 80017c6:	1e6a      	subs	r2, r5, #1
 80017c8:	4195      	sbcs	r5, r2
 80017ca:	2207      	movs	r2, #7
 80017cc:	432b      	orrs	r3, r5
 80017ce:	0015      	movs	r5, r2
 80017d0:	2400      	movs	r4, #0
 80017d2:	401d      	ands	r5, r3
 80017d4:	421a      	tst	r2, r3
 80017d6:	d100      	bne.n	80017da <__aeabi_ddiv+0x446>
 80017d8:	e0a1      	b.n	800191e <__aeabi_ddiv+0x58a>
 80017da:	220f      	movs	r2, #15
 80017dc:	2400      	movs	r4, #0
 80017de:	401a      	ands	r2, r3
 80017e0:	2a04      	cmp	r2, #4
 80017e2:	d100      	bne.n	80017e6 <__aeabi_ddiv+0x452>
 80017e4:	e098      	b.n	8001918 <__aeabi_ddiv+0x584>
 80017e6:	1d1a      	adds	r2, r3, #4
 80017e8:	429a      	cmp	r2, r3
 80017ea:	419b      	sbcs	r3, r3
 80017ec:	425b      	negs	r3, r3
 80017ee:	18e4      	adds	r4, r4, r3
 80017f0:	0013      	movs	r3, r2
 80017f2:	0222      	lsls	r2, r4, #8
 80017f4:	d400      	bmi.n	80017f8 <__aeabi_ddiv+0x464>
 80017f6:	e08f      	b.n	8001918 <__aeabi_ddiv+0x584>
 80017f8:	2301      	movs	r3, #1
 80017fa:	2400      	movs	r4, #0
 80017fc:	2500      	movs	r5, #0
 80017fe:	e623      	b.n	8001448 <__aeabi_ddiv+0xb4>
 8001800:	42b5      	cmp	r5, r6
 8001802:	d300      	bcc.n	8001806 <__aeabi_ddiv+0x472>
 8001804:	e764      	b.n	80016d0 <__aeabi_ddiv+0x33c>
 8001806:	4643      	mov	r3, r8
 8001808:	1e5a      	subs	r2, r3, #1
 800180a:	9b00      	ldr	r3, [sp, #0]
 800180c:	469c      	mov	ip, r3
 800180e:	4465      	add	r5, ip
 8001810:	001f      	movs	r7, r3
 8001812:	429d      	cmp	r5, r3
 8001814:	419b      	sbcs	r3, r3
 8001816:	425b      	negs	r3, r3
 8001818:	191b      	adds	r3, r3, r4
 800181a:	18c9      	adds	r1, r1, r3
 800181c:	428c      	cmp	r4, r1
 800181e:	d23a      	bcs.n	8001896 <__aeabi_ddiv+0x502>
 8001820:	4288      	cmp	r0, r1
 8001822:	d863      	bhi.n	80018ec <__aeabi_ddiv+0x558>
 8001824:	d060      	beq.n	80018e8 <__aeabi_ddiv+0x554>
 8001826:	4690      	mov	r8, r2
 8001828:	e752      	b.n	80016d0 <__aeabi_ddiv+0x33c>
 800182a:	42aa      	cmp	r2, r5
 800182c:	d900      	bls.n	8001830 <__aeabi_ddiv+0x49c>
 800182e:	e6ea      	b.n	8001606 <__aeabi_ddiv+0x272>
 8001830:	4643      	mov	r3, r8
 8001832:	07de      	lsls	r6, r3, #31
 8001834:	0858      	lsrs	r0, r3, #1
 8001836:	086b      	lsrs	r3, r5, #1
 8001838:	431e      	orrs	r6, r3
 800183a:	07ed      	lsls	r5, r5, #31
 800183c:	e6ea      	b.n	8001614 <__aeabi_ddiv+0x280>
 800183e:	4648      	mov	r0, r9
 8001840:	f000 fb62 	bl	8001f08 <__clzsi2>
 8001844:	0001      	movs	r1, r0
 8001846:	0002      	movs	r2, r0
 8001848:	3115      	adds	r1, #21
 800184a:	3220      	adds	r2, #32
 800184c:	291c      	cmp	r1, #28
 800184e:	dc00      	bgt.n	8001852 <__aeabi_ddiv+0x4be>
 8001850:	e61a      	b.n	8001488 <__aeabi_ddiv+0xf4>
 8001852:	464b      	mov	r3, r9
 8001854:	3808      	subs	r0, #8
 8001856:	4083      	lsls	r3, r0
 8001858:	2500      	movs	r5, #0
 800185a:	4698      	mov	r8, r3
 800185c:	e620      	b.n	80014a0 <__aeabi_ddiv+0x10c>
 800185e:	f000 fb53 	bl	8001f08 <__clzsi2>
 8001862:	0003      	movs	r3, r0
 8001864:	001a      	movs	r2, r3
 8001866:	3215      	adds	r2, #21
 8001868:	3020      	adds	r0, #32
 800186a:	2a1c      	cmp	r2, #28
 800186c:	dc00      	bgt.n	8001870 <__aeabi_ddiv+0x4dc>
 800186e:	e630      	b.n	80014d2 <__aeabi_ddiv+0x13e>
 8001870:	4654      	mov	r4, sl
 8001872:	3b08      	subs	r3, #8
 8001874:	2200      	movs	r2, #0
 8001876:	409c      	lsls	r4, r3
 8001878:	e635      	b.n	80014e6 <__aeabi_ddiv+0x152>
 800187a:	230f      	movs	r3, #15
 800187c:	402b      	ands	r3, r5
 800187e:	2b04      	cmp	r3, #4
 8001880:	d100      	bne.n	8001884 <__aeabi_ddiv+0x4f0>
 8001882:	e652      	b.n	800152a <__aeabi_ddiv+0x196>
 8001884:	2305      	movs	r3, #5
 8001886:	425b      	negs	r3, r3
 8001888:	42ab      	cmp	r3, r5
 800188a:	419b      	sbcs	r3, r3
 800188c:	3504      	adds	r5, #4
 800188e:	425b      	negs	r3, r3
 8001890:	08ed      	lsrs	r5, r5, #3
 8001892:	4498      	add	r8, r3
 8001894:	e64a      	b.n	800152c <__aeabi_ddiv+0x198>
 8001896:	428c      	cmp	r4, r1
 8001898:	d1c5      	bne.n	8001826 <__aeabi_ddiv+0x492>
 800189a:	42af      	cmp	r7, r5
 800189c:	d9c0      	bls.n	8001820 <__aeabi_ddiv+0x48c>
 800189e:	4690      	mov	r8, r2
 80018a0:	e716      	b.n	80016d0 <__aeabi_ddiv+0x33c>
 80018a2:	428a      	cmp	r2, r1
 80018a4:	d800      	bhi.n	80018a8 <__aeabi_ddiv+0x514>
 80018a6:	e6ea      	b.n	800167e <__aeabi_ddiv+0x2ea>
 80018a8:	1e83      	subs	r3, r0, #2
 80018aa:	1909      	adds	r1, r1, r4
 80018ac:	e6e7      	b.n	800167e <__aeabi_ddiv+0x2ea>
 80018ae:	4a2a      	ldr	r2, [pc, #168]	; (8001958 <__aeabi_ddiv+0x5c4>)
 80018b0:	0028      	movs	r0, r5
 80018b2:	445a      	add	r2, fp
 80018b4:	4643      	mov	r3, r8
 80018b6:	4095      	lsls	r5, r2
 80018b8:	4093      	lsls	r3, r2
 80018ba:	40c8      	lsrs	r0, r1
 80018bc:	1e6a      	subs	r2, r5, #1
 80018be:	4195      	sbcs	r5, r2
 80018c0:	4644      	mov	r4, r8
 80018c2:	4303      	orrs	r3, r0
 80018c4:	432b      	orrs	r3, r5
 80018c6:	40cc      	lsrs	r4, r1
 80018c8:	075a      	lsls	r2, r3, #29
 80018ca:	d092      	beq.n	80017f2 <__aeabi_ddiv+0x45e>
 80018cc:	220f      	movs	r2, #15
 80018ce:	401a      	ands	r2, r3
 80018d0:	2a04      	cmp	r2, #4
 80018d2:	d188      	bne.n	80017e6 <__aeabi_ddiv+0x452>
 80018d4:	e78d      	b.n	80017f2 <__aeabi_ddiv+0x45e>
 80018d6:	0035      	movs	r5, r6
 80018d8:	4281      	cmp	r1, r0
 80018da:	d000      	beq.n	80018de <__aeabi_ddiv+0x54a>
 80018dc:	e74b      	b.n	8001776 <__aeabi_ddiv+0x3e2>
 80018de:	9a00      	ldr	r2, [sp, #0]
 80018e0:	4293      	cmp	r3, r2
 80018e2:	d000      	beq.n	80018e6 <__aeabi_ddiv+0x552>
 80018e4:	e747      	b.n	8001776 <__aeabi_ddiv+0x3e2>
 80018e6:	e618      	b.n	800151a <__aeabi_ddiv+0x186>
 80018e8:	42ae      	cmp	r6, r5
 80018ea:	d99c      	bls.n	8001826 <__aeabi_ddiv+0x492>
 80018ec:	2302      	movs	r3, #2
 80018ee:	425b      	negs	r3, r3
 80018f0:	469c      	mov	ip, r3
 80018f2:	9b00      	ldr	r3, [sp, #0]
 80018f4:	44e0      	add	r8, ip
 80018f6:	469c      	mov	ip, r3
 80018f8:	4465      	add	r5, ip
 80018fa:	429d      	cmp	r5, r3
 80018fc:	419b      	sbcs	r3, r3
 80018fe:	425b      	negs	r3, r3
 8001900:	191b      	adds	r3, r3, r4
 8001902:	18c9      	adds	r1, r1, r3
 8001904:	e6e4      	b.n	80016d0 <__aeabi_ddiv+0x33c>
 8001906:	4a15      	ldr	r2, [pc, #84]	; (800195c <__aeabi_ddiv+0x5c8>)
 8001908:	445a      	add	r2, fp
 800190a:	2a00      	cmp	r2, #0
 800190c:	dc00      	bgt.n	8001910 <__aeabi_ddiv+0x57c>
 800190e:	e744      	b.n	800179a <__aeabi_ddiv+0x406>
 8001910:	2301      	movs	r3, #1
 8001912:	2500      	movs	r5, #0
 8001914:	4498      	add	r8, r3
 8001916:	e609      	b.n	800152c <__aeabi_ddiv+0x198>
 8001918:	0765      	lsls	r5, r4, #29
 800191a:	0264      	lsls	r4, r4, #9
 800191c:	0b24      	lsrs	r4, r4, #12
 800191e:	08db      	lsrs	r3, r3, #3
 8001920:	431d      	orrs	r5, r3
 8001922:	2300      	movs	r3, #0
 8001924:	e590      	b.n	8001448 <__aeabi_ddiv+0xb4>
 8001926:	9e00      	ldr	r6, [sp, #0]
 8001928:	3d02      	subs	r5, #2
 800192a:	0072      	lsls	r2, r6, #1
 800192c:	42b2      	cmp	r2, r6
 800192e:	41bf      	sbcs	r7, r7
 8001930:	427f      	negs	r7, r7
 8001932:	193c      	adds	r4, r7, r4
 8001934:	1909      	adds	r1, r1, r4
 8001936:	9200      	str	r2, [sp, #0]
 8001938:	e7ce      	b.n	80018d8 <__aeabi_ddiv+0x544>
 800193a:	2480      	movs	r4, #128	; 0x80
 800193c:	4643      	mov	r3, r8
 800193e:	0324      	lsls	r4, r4, #12
 8001940:	431c      	orrs	r4, r3
 8001942:	0324      	lsls	r4, r4, #12
 8001944:	4b06      	ldr	r3, [pc, #24]	; (8001960 <__aeabi_ddiv+0x5cc>)
 8001946:	0b24      	lsrs	r4, r4, #12
 8001948:	e57e      	b.n	8001448 <__aeabi_ddiv+0xb4>
 800194a:	9a00      	ldr	r2, [sp, #0]
 800194c:	429a      	cmp	r2, r3
 800194e:	d3ea      	bcc.n	8001926 <__aeabi_ddiv+0x592>
 8001950:	0035      	movs	r5, r6
 8001952:	e7c4      	b.n	80018de <__aeabi_ddiv+0x54a>
 8001954:	0000043e 	.word	0x0000043e
 8001958:	0000041e 	.word	0x0000041e
 800195c:	000003ff 	.word	0x000003ff
 8001960:	000007ff 	.word	0x000007ff

08001964 <__aeabi_dmul>:
 8001964:	b5f0      	push	{r4, r5, r6, r7, lr}
 8001966:	4657      	mov	r7, sl
 8001968:	464e      	mov	r6, r9
 800196a:	4645      	mov	r5, r8
 800196c:	46de      	mov	lr, fp
 800196e:	b5e0      	push	{r5, r6, r7, lr}
 8001970:	4698      	mov	r8, r3
 8001972:	030c      	lsls	r4, r1, #12
 8001974:	004b      	lsls	r3, r1, #1
 8001976:	0006      	movs	r6, r0
 8001978:	4692      	mov	sl, r2
 800197a:	b087      	sub	sp, #28
 800197c:	0b24      	lsrs	r4, r4, #12
 800197e:	0d5b      	lsrs	r3, r3, #21
 8001980:	0fcf      	lsrs	r7, r1, #31
 8001982:	2b00      	cmp	r3, #0
 8001984:	d06c      	beq.n	8001a60 <__aeabi_dmul+0xfc>
 8001986:	4add      	ldr	r2, [pc, #884]	; (8001cfc <__aeabi_dmul+0x398>)
 8001988:	4293      	cmp	r3, r2
 800198a:	d100      	bne.n	800198e <__aeabi_dmul+0x2a>
 800198c:	e086      	b.n	8001a9c <__aeabi_dmul+0x138>
 800198e:	0f42      	lsrs	r2, r0, #29
 8001990:	00e4      	lsls	r4, r4, #3
 8001992:	4314      	orrs	r4, r2
 8001994:	2280      	movs	r2, #128	; 0x80
 8001996:	0412      	lsls	r2, r2, #16
 8001998:	4314      	orrs	r4, r2
 800199a:	4ad9      	ldr	r2, [pc, #868]	; (8001d00 <__aeabi_dmul+0x39c>)
 800199c:	00c5      	lsls	r5, r0, #3
 800199e:	4694      	mov	ip, r2
 80019a0:	4463      	add	r3, ip
 80019a2:	9300      	str	r3, [sp, #0]
 80019a4:	2300      	movs	r3, #0
 80019a6:	4699      	mov	r9, r3
 80019a8:	469b      	mov	fp, r3
 80019aa:	4643      	mov	r3, r8
 80019ac:	4642      	mov	r2, r8
 80019ae:	031e      	lsls	r6, r3, #12
 80019b0:	0fd2      	lsrs	r2, r2, #31
 80019b2:	005b      	lsls	r3, r3, #1
 80019b4:	4650      	mov	r0, sl
 80019b6:	4690      	mov	r8, r2
 80019b8:	0b36      	lsrs	r6, r6, #12
 80019ba:	0d5b      	lsrs	r3, r3, #21
 80019bc:	d100      	bne.n	80019c0 <__aeabi_dmul+0x5c>
 80019be:	e078      	b.n	8001ab2 <__aeabi_dmul+0x14e>
 80019c0:	4ace      	ldr	r2, [pc, #824]	; (8001cfc <__aeabi_dmul+0x398>)
 80019c2:	4293      	cmp	r3, r2
 80019c4:	d01d      	beq.n	8001a02 <__aeabi_dmul+0x9e>
 80019c6:	49ce      	ldr	r1, [pc, #824]	; (8001d00 <__aeabi_dmul+0x39c>)
 80019c8:	0f42      	lsrs	r2, r0, #29
 80019ca:	468c      	mov	ip, r1
 80019cc:	9900      	ldr	r1, [sp, #0]
 80019ce:	4463      	add	r3, ip
 80019d0:	00f6      	lsls	r6, r6, #3
 80019d2:	468c      	mov	ip, r1
 80019d4:	4316      	orrs	r6, r2
 80019d6:	2280      	movs	r2, #128	; 0x80
 80019d8:	449c      	add	ip, r3
 80019da:	0412      	lsls	r2, r2, #16
 80019dc:	4663      	mov	r3, ip
 80019de:	4316      	orrs	r6, r2
 80019e0:	00c2      	lsls	r2, r0, #3
 80019e2:	2000      	movs	r0, #0
 80019e4:	9300      	str	r3, [sp, #0]
 80019e6:	9900      	ldr	r1, [sp, #0]
 80019e8:	4643      	mov	r3, r8
 80019ea:	3101      	adds	r1, #1
 80019ec:	468c      	mov	ip, r1
 80019ee:	4649      	mov	r1, r9
 80019f0:	407b      	eors	r3, r7
 80019f2:	9301      	str	r3, [sp, #4]
 80019f4:	290f      	cmp	r1, #15
 80019f6:	d900      	bls.n	80019fa <__aeabi_dmul+0x96>
 80019f8:	e07e      	b.n	8001af8 <__aeabi_dmul+0x194>
 80019fa:	4bc2      	ldr	r3, [pc, #776]	; (8001d04 <__aeabi_dmul+0x3a0>)
 80019fc:	0089      	lsls	r1, r1, #2
 80019fe:	5859      	ldr	r1, [r3, r1]
 8001a00:	468f      	mov	pc, r1
 8001a02:	4652      	mov	r2, sl
 8001a04:	9b00      	ldr	r3, [sp, #0]
 8001a06:	4332      	orrs	r2, r6
 8001a08:	d000      	beq.n	8001a0c <__aeabi_dmul+0xa8>
 8001a0a:	e156      	b.n	8001cba <__aeabi_dmul+0x356>
 8001a0c:	49bb      	ldr	r1, [pc, #748]	; (8001cfc <__aeabi_dmul+0x398>)
 8001a0e:	2600      	movs	r6, #0
 8001a10:	468c      	mov	ip, r1
 8001a12:	4463      	add	r3, ip
 8001a14:	4649      	mov	r1, r9
 8001a16:	9300      	str	r3, [sp, #0]
 8001a18:	2302      	movs	r3, #2
 8001a1a:	4319      	orrs	r1, r3
 8001a1c:	4689      	mov	r9, r1
 8001a1e:	2002      	movs	r0, #2
 8001a20:	e7e1      	b.n	80019e6 <__aeabi_dmul+0x82>
 8001a22:	4643      	mov	r3, r8
 8001a24:	9301      	str	r3, [sp, #4]
 8001a26:	0034      	movs	r4, r6
 8001a28:	0015      	movs	r5, r2
 8001a2a:	4683      	mov	fp, r0
 8001a2c:	465b      	mov	r3, fp
 8001a2e:	2b02      	cmp	r3, #2
 8001a30:	d05e      	beq.n	8001af0 <__aeabi_dmul+0x18c>
 8001a32:	2b03      	cmp	r3, #3
 8001a34:	d100      	bne.n	8001a38 <__aeabi_dmul+0xd4>
 8001a36:	e1f3      	b.n	8001e20 <__aeabi_dmul+0x4bc>
 8001a38:	2b01      	cmp	r3, #1
 8001a3a:	d000      	beq.n	8001a3e <__aeabi_dmul+0xda>
 8001a3c:	e118      	b.n	8001c70 <__aeabi_dmul+0x30c>
 8001a3e:	2200      	movs	r2, #0
 8001a40:	2400      	movs	r4, #0
 8001a42:	2500      	movs	r5, #0
 8001a44:	9b01      	ldr	r3, [sp, #4]
 8001a46:	0512      	lsls	r2, r2, #20
 8001a48:	4322      	orrs	r2, r4
 8001a4a:	07db      	lsls	r3, r3, #31
 8001a4c:	431a      	orrs	r2, r3
 8001a4e:	0028      	movs	r0, r5
 8001a50:	0011      	movs	r1, r2
 8001a52:	b007      	add	sp, #28
 8001a54:	bcf0      	pop	{r4, r5, r6, r7}
 8001a56:	46bb      	mov	fp, r7
 8001a58:	46b2      	mov	sl, r6
 8001a5a:	46a9      	mov	r9, r5
 8001a5c:	46a0      	mov	r8, r4
 8001a5e:	bdf0      	pop	{r4, r5, r6, r7, pc}
 8001a60:	0025      	movs	r5, r4
 8001a62:	4305      	orrs	r5, r0
 8001a64:	d100      	bne.n	8001a68 <__aeabi_dmul+0x104>
 8001a66:	e141      	b.n	8001cec <__aeabi_dmul+0x388>
 8001a68:	2c00      	cmp	r4, #0
 8001a6a:	d100      	bne.n	8001a6e <__aeabi_dmul+0x10a>
 8001a6c:	e1ad      	b.n	8001dca <__aeabi_dmul+0x466>
 8001a6e:	0020      	movs	r0, r4
 8001a70:	f000 fa4a 	bl	8001f08 <__clzsi2>
 8001a74:	0001      	movs	r1, r0
 8001a76:	0002      	movs	r2, r0
 8001a78:	390b      	subs	r1, #11
 8001a7a:	231d      	movs	r3, #29
 8001a7c:	0010      	movs	r0, r2
 8001a7e:	1a5b      	subs	r3, r3, r1
 8001a80:	0031      	movs	r1, r6
 8001a82:	0035      	movs	r5, r6
 8001a84:	3808      	subs	r0, #8
 8001a86:	4084      	lsls	r4, r0
 8001a88:	40d9      	lsrs	r1, r3
 8001a8a:	4085      	lsls	r5, r0
 8001a8c:	430c      	orrs	r4, r1
 8001a8e:	489e      	ldr	r0, [pc, #632]	; (8001d08 <__aeabi_dmul+0x3a4>)
 8001a90:	1a83      	subs	r3, r0, r2
 8001a92:	9300      	str	r3, [sp, #0]
 8001a94:	2300      	movs	r3, #0
 8001a96:	4699      	mov	r9, r3
 8001a98:	469b      	mov	fp, r3
 8001a9a:	e786      	b.n	80019aa <__aeabi_dmul+0x46>
 8001a9c:	0005      	movs	r5, r0
 8001a9e:	4325      	orrs	r5, r4
 8001aa0:	d000      	beq.n	8001aa4 <__aeabi_dmul+0x140>
 8001aa2:	e11c      	b.n	8001cde <__aeabi_dmul+0x37a>
 8001aa4:	2208      	movs	r2, #8
 8001aa6:	9300      	str	r3, [sp, #0]
 8001aa8:	2302      	movs	r3, #2
 8001aaa:	2400      	movs	r4, #0
 8001aac:	4691      	mov	r9, r2
 8001aae:	469b      	mov	fp, r3
 8001ab0:	e77b      	b.n	80019aa <__aeabi_dmul+0x46>
 8001ab2:	4652      	mov	r2, sl
 8001ab4:	4332      	orrs	r2, r6
 8001ab6:	d100      	bne.n	8001aba <__aeabi_dmul+0x156>
 8001ab8:	e10a      	b.n	8001cd0 <__aeabi_dmul+0x36c>
 8001aba:	2e00      	cmp	r6, #0
 8001abc:	d100      	bne.n	8001ac0 <__aeabi_dmul+0x15c>
 8001abe:	e176      	b.n	8001dae <__aeabi_dmul+0x44a>
 8001ac0:	0030      	movs	r0, r6
 8001ac2:	f000 fa21 	bl	8001f08 <__clzsi2>
 8001ac6:	0002      	movs	r2, r0
 8001ac8:	3a0b      	subs	r2, #11
 8001aca:	231d      	movs	r3, #29
 8001acc:	0001      	movs	r1, r0
 8001ace:	1a9b      	subs	r3, r3, r2
 8001ad0:	4652      	mov	r2, sl
 8001ad2:	3908      	subs	r1, #8
 8001ad4:	40da      	lsrs	r2, r3
 8001ad6:	408e      	lsls	r6, r1
 8001ad8:	4316      	orrs	r6, r2
 8001ada:	4652      	mov	r2, sl
 8001adc:	408a      	lsls	r2, r1
 8001ade:	9b00      	ldr	r3, [sp, #0]
 8001ae0:	4989      	ldr	r1, [pc, #548]	; (8001d08 <__aeabi_dmul+0x3a4>)
 8001ae2:	1a18      	subs	r0, r3, r0
 8001ae4:	0003      	movs	r3, r0
 8001ae6:	468c      	mov	ip, r1
 8001ae8:	4463      	add	r3, ip
 8001aea:	2000      	movs	r0, #0
 8001aec:	9300      	str	r3, [sp, #0]
 8001aee:	e77a      	b.n	80019e6 <__aeabi_dmul+0x82>
 8001af0:	2400      	movs	r4, #0
 8001af2:	2500      	movs	r5, #0
 8001af4:	4a81      	ldr	r2, [pc, #516]	; (8001cfc <__aeabi_dmul+0x398>)
 8001af6:	e7a5      	b.n	8001a44 <__aeabi_dmul+0xe0>
 8001af8:	0c2f      	lsrs	r7, r5, #16
 8001afa:	042d      	lsls	r5, r5, #16
 8001afc:	0c2d      	lsrs	r5, r5, #16
 8001afe:	002b      	movs	r3, r5
 8001b00:	0c11      	lsrs	r1, r2, #16
 8001b02:	0412      	lsls	r2, r2, #16
 8001b04:	0c12      	lsrs	r2, r2, #16
 8001b06:	4353      	muls	r3, r2
 8001b08:	4698      	mov	r8, r3
 8001b0a:	0013      	movs	r3, r2
 8001b0c:	0028      	movs	r0, r5
 8001b0e:	437b      	muls	r3, r7
 8001b10:	4699      	mov	r9, r3
 8001b12:	4348      	muls	r0, r1
 8001b14:	4448      	add	r0, r9
 8001b16:	4683      	mov	fp, r0
 8001b18:	4640      	mov	r0, r8
 8001b1a:	000b      	movs	r3, r1
 8001b1c:	0c00      	lsrs	r0, r0, #16
 8001b1e:	4682      	mov	sl, r0
 8001b20:	4658      	mov	r0, fp
 8001b22:	437b      	muls	r3, r7
 8001b24:	4450      	add	r0, sl
 8001b26:	9302      	str	r3, [sp, #8]
 8001b28:	4581      	cmp	r9, r0
 8001b2a:	d906      	bls.n	8001b3a <__aeabi_dmul+0x1d6>
 8001b2c:	469a      	mov	sl, r3
 8001b2e:	2380      	movs	r3, #128	; 0x80
 8001b30:	025b      	lsls	r3, r3, #9
 8001b32:	4699      	mov	r9, r3
 8001b34:	44ca      	add	sl, r9
 8001b36:	4653      	mov	r3, sl
 8001b38:	9302      	str	r3, [sp, #8]
 8001b3a:	0c03      	lsrs	r3, r0, #16
 8001b3c:	469b      	mov	fp, r3
 8001b3e:	4643      	mov	r3, r8
 8001b40:	041b      	lsls	r3, r3, #16
 8001b42:	0400      	lsls	r0, r0, #16
 8001b44:	0c1b      	lsrs	r3, r3, #16
 8001b46:	4698      	mov	r8, r3
 8001b48:	0003      	movs	r3, r0
 8001b4a:	4443      	add	r3, r8
 8001b4c:	9304      	str	r3, [sp, #16]
 8001b4e:	0c33      	lsrs	r3, r6, #16
 8001b50:	4699      	mov	r9, r3
 8001b52:	002b      	movs	r3, r5
 8001b54:	0436      	lsls	r6, r6, #16
 8001b56:	0c36      	lsrs	r6, r6, #16
 8001b58:	4373      	muls	r3, r6
 8001b5a:	4698      	mov	r8, r3
 8001b5c:	0033      	movs	r3, r6
 8001b5e:	437b      	muls	r3, r7
 8001b60:	469a      	mov	sl, r3
 8001b62:	464b      	mov	r3, r9
 8001b64:	435d      	muls	r5, r3
 8001b66:	435f      	muls	r7, r3
 8001b68:	4643      	mov	r3, r8
 8001b6a:	4455      	add	r5, sl
 8001b6c:	0c18      	lsrs	r0, r3, #16
 8001b6e:	1940      	adds	r0, r0, r5
 8001b70:	4582      	cmp	sl, r0
 8001b72:	d903      	bls.n	8001b7c <__aeabi_dmul+0x218>
 8001b74:	2380      	movs	r3, #128	; 0x80
 8001b76:	025b      	lsls	r3, r3, #9
 8001b78:	469a      	mov	sl, r3
 8001b7a:	4457      	add	r7, sl
 8001b7c:	0c05      	lsrs	r5, r0, #16
 8001b7e:	19eb      	adds	r3, r5, r7
 8001b80:	9305      	str	r3, [sp, #20]
 8001b82:	4643      	mov	r3, r8
 8001b84:	041d      	lsls	r5, r3, #16
 8001b86:	0c2d      	lsrs	r5, r5, #16
 8001b88:	0400      	lsls	r0, r0, #16
 8001b8a:	1940      	adds	r0, r0, r5
 8001b8c:	0c25      	lsrs	r5, r4, #16
 8001b8e:	0424      	lsls	r4, r4, #16
 8001b90:	0c24      	lsrs	r4, r4, #16
 8001b92:	0027      	movs	r7, r4
 8001b94:	4357      	muls	r7, r2
 8001b96:	436a      	muls	r2, r5
 8001b98:	4690      	mov	r8, r2
 8001b9a:	002a      	movs	r2, r5
 8001b9c:	0c3b      	lsrs	r3, r7, #16
 8001b9e:	469a      	mov	sl, r3
 8001ba0:	434a      	muls	r2, r1
 8001ba2:	4361      	muls	r1, r4
 8001ba4:	4441      	add	r1, r8
 8001ba6:	4451      	add	r1, sl
 8001ba8:	4483      	add	fp, r0
 8001baa:	4588      	cmp	r8, r1
 8001bac:	d903      	bls.n	8001bb6 <__aeabi_dmul+0x252>
 8001bae:	2380      	movs	r3, #128	; 0x80
 8001bb0:	025b      	lsls	r3, r3, #9
 8001bb2:	4698      	mov	r8, r3
 8001bb4:	4442      	add	r2, r8
 8001bb6:	043f      	lsls	r7, r7, #16
 8001bb8:	0c0b      	lsrs	r3, r1, #16
 8001bba:	0c3f      	lsrs	r7, r7, #16
 8001bbc:	0409      	lsls	r1, r1, #16
 8001bbe:	19c9      	adds	r1, r1, r7
 8001bc0:	0027      	movs	r7, r4
 8001bc2:	4698      	mov	r8, r3
 8001bc4:	464b      	mov	r3, r9
 8001bc6:	4377      	muls	r7, r6
 8001bc8:	435c      	muls	r4, r3
 8001bca:	436e      	muls	r6, r5
 8001bcc:	435d      	muls	r5, r3
 8001bce:	0c3b      	lsrs	r3, r7, #16
 8001bd0:	4699      	mov	r9, r3
 8001bd2:	19a4      	adds	r4, r4, r6
 8001bd4:	444c      	add	r4, r9
 8001bd6:	4442      	add	r2, r8
 8001bd8:	9503      	str	r5, [sp, #12]
 8001bda:	42a6      	cmp	r6, r4
 8001bdc:	d904      	bls.n	8001be8 <__aeabi_dmul+0x284>
 8001bde:	2380      	movs	r3, #128	; 0x80
 8001be0:	025b      	lsls	r3, r3, #9
 8001be2:	4698      	mov	r8, r3
 8001be4:	4445      	add	r5, r8
 8001be6:	9503      	str	r5, [sp, #12]
 8001be8:	9b02      	ldr	r3, [sp, #8]
 8001bea:	043f      	lsls	r7, r7, #16
 8001bec:	445b      	add	r3, fp
 8001bee:	001e      	movs	r6, r3
 8001bf0:	4283      	cmp	r3, r0
 8001bf2:	4180      	sbcs	r0, r0
 8001bf4:	0423      	lsls	r3, r4, #16
 8001bf6:	4698      	mov	r8, r3
 8001bf8:	9b05      	ldr	r3, [sp, #20]
 8001bfa:	0c3f      	lsrs	r7, r7, #16
 8001bfc:	4447      	add	r7, r8
 8001bfe:	4698      	mov	r8, r3
 8001c00:	1876      	adds	r6, r6, r1
 8001c02:	428e      	cmp	r6, r1
 8001c04:	4189      	sbcs	r1, r1
 8001c06:	4447      	add	r7, r8
 8001c08:	4240      	negs	r0, r0
 8001c0a:	183d      	adds	r5, r7, r0
 8001c0c:	46a8      	mov	r8, r5
 8001c0e:	4693      	mov	fp, r2
 8001c10:	4249      	negs	r1, r1
 8001c12:	468a      	mov	sl, r1
 8001c14:	44c3      	add	fp, r8
 8001c16:	429f      	cmp	r7, r3
 8001c18:	41bf      	sbcs	r7, r7
 8001c1a:	4580      	cmp	r8, r0
 8001c1c:	4180      	sbcs	r0, r0
 8001c1e:	9b03      	ldr	r3, [sp, #12]
 8001c20:	44da      	add	sl, fp
 8001c22:	4698      	mov	r8, r3
 8001c24:	4653      	mov	r3, sl
 8001c26:	4240      	negs	r0, r0
 8001c28:	427f      	negs	r7, r7
 8001c2a:	4307      	orrs	r7, r0
 8001c2c:	0c24      	lsrs	r4, r4, #16
 8001c2e:	4593      	cmp	fp, r2
 8001c30:	4192      	sbcs	r2, r2
 8001c32:	458a      	cmp	sl, r1
 8001c34:	4189      	sbcs	r1, r1
 8001c36:	193f      	adds	r7, r7, r4
 8001c38:	0ddc      	lsrs	r4, r3, #23
 8001c3a:	9b04      	ldr	r3, [sp, #16]
 8001c3c:	0275      	lsls	r5, r6, #9
 8001c3e:	431d      	orrs	r5, r3
 8001c40:	1e68      	subs	r0, r5, #1
 8001c42:	4185      	sbcs	r5, r0
 8001c44:	4653      	mov	r3, sl
 8001c46:	4252      	negs	r2, r2
 8001c48:	4249      	negs	r1, r1
 8001c4a:	430a      	orrs	r2, r1
 8001c4c:	18bf      	adds	r7, r7, r2
 8001c4e:	4447      	add	r7, r8
 8001c50:	0df6      	lsrs	r6, r6, #23
 8001c52:	027f      	lsls	r7, r7, #9
 8001c54:	4335      	orrs	r5, r6
 8001c56:	025a      	lsls	r2, r3, #9
 8001c58:	433c      	orrs	r4, r7
 8001c5a:	4315      	orrs	r5, r2
 8001c5c:	01fb      	lsls	r3, r7, #7
 8001c5e:	d400      	bmi.n	8001c62 <__aeabi_dmul+0x2fe>
 8001c60:	e0c1      	b.n	8001de6 <__aeabi_dmul+0x482>
 8001c62:	2101      	movs	r1, #1
 8001c64:	086a      	lsrs	r2, r5, #1
 8001c66:	400d      	ands	r5, r1
 8001c68:	4315      	orrs	r5, r2
 8001c6a:	07e2      	lsls	r2, r4, #31
 8001c6c:	4315      	orrs	r5, r2
 8001c6e:	0864      	lsrs	r4, r4, #1
 8001c70:	4926      	ldr	r1, [pc, #152]	; (8001d0c <__aeabi_dmul+0x3a8>)
 8001c72:	4461      	add	r1, ip
 8001c74:	2900      	cmp	r1, #0
 8001c76:	dd56      	ble.n	8001d26 <__aeabi_dmul+0x3c2>
 8001c78:	076b      	lsls	r3, r5, #29
 8001c7a:	d009      	beq.n	8001c90 <__aeabi_dmul+0x32c>
 8001c7c:	220f      	movs	r2, #15
 8001c7e:	402a      	ands	r2, r5
 8001c80:	2a04      	cmp	r2, #4
 8001c82:	d005      	beq.n	8001c90 <__aeabi_dmul+0x32c>
 8001c84:	1d2a      	adds	r2, r5, #4
 8001c86:	42aa      	cmp	r2, r5
 8001c88:	41ad      	sbcs	r5, r5
 8001c8a:	426d      	negs	r5, r5
 8001c8c:	1964      	adds	r4, r4, r5
 8001c8e:	0015      	movs	r5, r2
 8001c90:	01e3      	lsls	r3, r4, #7
 8001c92:	d504      	bpl.n	8001c9e <__aeabi_dmul+0x33a>
 8001c94:	2180      	movs	r1, #128	; 0x80
 8001c96:	4a1e      	ldr	r2, [pc, #120]	; (8001d10 <__aeabi_dmul+0x3ac>)
 8001c98:	00c9      	lsls	r1, r1, #3
 8001c9a:	4014      	ands	r4, r2
 8001c9c:	4461      	add	r1, ip
 8001c9e:	4a1d      	ldr	r2, [pc, #116]	; (8001d14 <__aeabi_dmul+0x3b0>)
 8001ca0:	4291      	cmp	r1, r2
 8001ca2:	dd00      	ble.n	8001ca6 <__aeabi_dmul+0x342>
 8001ca4:	e724      	b.n	8001af0 <__aeabi_dmul+0x18c>
 8001ca6:	0762      	lsls	r2, r4, #29
 8001ca8:	08ed      	lsrs	r5, r5, #3
 8001caa:	0264      	lsls	r4, r4, #9
 8001cac:	0549      	lsls	r1, r1, #21
 8001cae:	4315      	orrs	r5, r2
 8001cb0:	0b24      	lsrs	r4, r4, #12
 8001cb2:	0d4a      	lsrs	r2, r1, #21
 8001cb4:	e6c6      	b.n	8001a44 <__aeabi_dmul+0xe0>
 8001cb6:	9701      	str	r7, [sp, #4]
 8001cb8:	e6b8      	b.n	8001a2c <__aeabi_dmul+0xc8>
 8001cba:	4a10      	ldr	r2, [pc, #64]	; (8001cfc <__aeabi_dmul+0x398>)
 8001cbc:	2003      	movs	r0, #3
 8001cbe:	4694      	mov	ip, r2
 8001cc0:	4463      	add	r3, ip
 8001cc2:	464a      	mov	r2, r9
 8001cc4:	9300      	str	r3, [sp, #0]
 8001cc6:	2303      	movs	r3, #3
 8001cc8:	431a      	orrs	r2, r3
 8001cca:	4691      	mov	r9, r2
 8001ccc:	4652      	mov	r2, sl
 8001cce:	e68a      	b.n	80019e6 <__aeabi_dmul+0x82>
 8001cd0:	4649      	mov	r1, r9
 8001cd2:	2301      	movs	r3, #1
 8001cd4:	4319      	orrs	r1, r3
 8001cd6:	4689      	mov	r9, r1
 8001cd8:	2600      	movs	r6, #0
 8001cda:	2001      	movs	r0, #1
 8001cdc:	e683      	b.n	80019e6 <__aeabi_dmul+0x82>
 8001cde:	220c      	movs	r2, #12
 8001ce0:	9300      	str	r3, [sp, #0]
 8001ce2:	2303      	movs	r3, #3
 8001ce4:	0005      	movs	r5, r0
 8001ce6:	4691      	mov	r9, r2
 8001ce8:	469b      	mov	fp, r3
 8001cea:	e65e      	b.n	80019aa <__aeabi_dmul+0x46>
 8001cec:	2304      	movs	r3, #4
 8001cee:	4699      	mov	r9, r3
 8001cf0:	2300      	movs	r3, #0
 8001cf2:	9300      	str	r3, [sp, #0]
 8001cf4:	3301      	adds	r3, #1
 8001cf6:	2400      	movs	r4, #0
 8001cf8:	469b      	mov	fp, r3
 8001cfa:	e656      	b.n	80019aa <__aeabi_dmul+0x46>
 8001cfc:	000007ff 	.word	0x000007ff
 8001d00:	fffffc01 	.word	0xfffffc01
 8001d04:	0800580c 	.word	0x0800580c
 8001d08:	fffffc0d 	.word	0xfffffc0d
 8001d0c:	000003ff 	.word	0x000003ff
 8001d10:	feffffff 	.word	0xfeffffff
 8001d14:	000007fe 	.word	0x000007fe
 8001d18:	2300      	movs	r3, #0
 8001d1a:	2480      	movs	r4, #128	; 0x80
 8001d1c:	2500      	movs	r5, #0
 8001d1e:	4a44      	ldr	r2, [pc, #272]	; (8001e30 <__aeabi_dmul+0x4cc>)
 8001d20:	9301      	str	r3, [sp, #4]
 8001d22:	0324      	lsls	r4, r4, #12
 8001d24:	e68e      	b.n	8001a44 <__aeabi_dmul+0xe0>
 8001d26:	2001      	movs	r0, #1
 8001d28:	1a40      	subs	r0, r0, r1
 8001d2a:	2838      	cmp	r0, #56	; 0x38
 8001d2c:	dd00      	ble.n	8001d30 <__aeabi_dmul+0x3cc>
 8001d2e:	e686      	b.n	8001a3e <__aeabi_dmul+0xda>
 8001d30:	281f      	cmp	r0, #31
 8001d32:	dd5b      	ble.n	8001dec <__aeabi_dmul+0x488>
 8001d34:	221f      	movs	r2, #31
 8001d36:	0023      	movs	r3, r4
 8001d38:	4252      	negs	r2, r2
 8001d3a:	1a51      	subs	r1, r2, r1
 8001d3c:	40cb      	lsrs	r3, r1
 8001d3e:	0019      	movs	r1, r3
 8001d40:	2820      	cmp	r0, #32
 8001d42:	d003      	beq.n	8001d4c <__aeabi_dmul+0x3e8>
 8001d44:	4a3b      	ldr	r2, [pc, #236]	; (8001e34 <__aeabi_dmul+0x4d0>)
 8001d46:	4462      	add	r2, ip
 8001d48:	4094      	lsls	r4, r2
 8001d4a:	4325      	orrs	r5, r4
 8001d4c:	1e6a      	subs	r2, r5, #1
 8001d4e:	4195      	sbcs	r5, r2
 8001d50:	002a      	movs	r2, r5
 8001d52:	430a      	orrs	r2, r1
 8001d54:	2107      	movs	r1, #7
 8001d56:	000d      	movs	r5, r1
 8001d58:	2400      	movs	r4, #0
 8001d5a:	4015      	ands	r5, r2
 8001d5c:	4211      	tst	r1, r2
 8001d5e:	d05b      	beq.n	8001e18 <__aeabi_dmul+0x4b4>
 8001d60:	210f      	movs	r1, #15
 8001d62:	2400      	movs	r4, #0
 8001d64:	4011      	ands	r1, r2
 8001d66:	2904      	cmp	r1, #4
 8001d68:	d053      	beq.n	8001e12 <__aeabi_dmul+0x4ae>
 8001d6a:	1d11      	adds	r1, r2, #4
 8001d6c:	4291      	cmp	r1, r2
 8001d6e:	4192      	sbcs	r2, r2
 8001d70:	4252      	negs	r2, r2
 8001d72:	18a4      	adds	r4, r4, r2
 8001d74:	000a      	movs	r2, r1
 8001d76:	0223      	lsls	r3, r4, #8
 8001d78:	d54b      	bpl.n	8001e12 <__aeabi_dmul+0x4ae>
 8001d7a:	2201      	movs	r2, #1
 8001d7c:	2400      	movs	r4, #0
 8001d7e:	2500      	movs	r5, #0
 8001d80:	e660      	b.n	8001a44 <__aeabi_dmul+0xe0>
 8001d82:	2380      	movs	r3, #128	; 0x80
 8001d84:	031b      	lsls	r3, r3, #12
 8001d86:	421c      	tst	r4, r3
 8001d88:	d009      	beq.n	8001d9e <__aeabi_dmul+0x43a>
 8001d8a:	421e      	tst	r6, r3
 8001d8c:	d107      	bne.n	8001d9e <__aeabi_dmul+0x43a>
 8001d8e:	4333      	orrs	r3, r6
 8001d90:	031c      	lsls	r4, r3, #12
 8001d92:	4643      	mov	r3, r8
 8001d94:	0015      	movs	r5, r2
 8001d96:	0b24      	lsrs	r4, r4, #12
 8001d98:	4a25      	ldr	r2, [pc, #148]	; (8001e30 <__aeabi_dmul+0x4cc>)
 8001d9a:	9301      	str	r3, [sp, #4]
 8001d9c:	e652      	b.n	8001a44 <__aeabi_dmul+0xe0>
 8001d9e:	2280      	movs	r2, #128	; 0x80
 8001da0:	0312      	lsls	r2, r2, #12
 8001da2:	4314      	orrs	r4, r2
 8001da4:	0324      	lsls	r4, r4, #12
 8001da6:	4a22      	ldr	r2, [pc, #136]	; (8001e30 <__aeabi_dmul+0x4cc>)
 8001da8:	0b24      	lsrs	r4, r4, #12
 8001daa:	9701      	str	r7, [sp, #4]
 8001dac:	e64a      	b.n	8001a44 <__aeabi_dmul+0xe0>
 8001dae:	f000 f8ab 	bl	8001f08 <__clzsi2>
 8001db2:	0003      	movs	r3, r0
 8001db4:	001a      	movs	r2, r3
 8001db6:	3215      	adds	r2, #21
 8001db8:	3020      	adds	r0, #32
 8001dba:	2a1c      	cmp	r2, #28
 8001dbc:	dc00      	bgt.n	8001dc0 <__aeabi_dmul+0x45c>
 8001dbe:	e684      	b.n	8001aca <__aeabi_dmul+0x166>
 8001dc0:	4656      	mov	r6, sl
 8001dc2:	3b08      	subs	r3, #8
 8001dc4:	2200      	movs	r2, #0
 8001dc6:	409e      	lsls	r6, r3
 8001dc8:	e689      	b.n	8001ade <__aeabi_dmul+0x17a>
 8001dca:	f000 f89d 	bl	8001f08 <__clzsi2>
 8001dce:	0001      	movs	r1, r0
 8001dd0:	0002      	movs	r2, r0
 8001dd2:	3115      	adds	r1, #21
 8001dd4:	3220      	adds	r2, #32
 8001dd6:	291c      	cmp	r1, #28
 8001dd8:	dc00      	bgt.n	8001ddc <__aeabi_dmul+0x478>
 8001dda:	e64e      	b.n	8001a7a <__aeabi_dmul+0x116>
 8001ddc:	0034      	movs	r4, r6
 8001dde:	3808      	subs	r0, #8
 8001de0:	2500      	movs	r5, #0
 8001de2:	4084      	lsls	r4, r0
 8001de4:	e653      	b.n	8001a8e <__aeabi_dmul+0x12a>
 8001de6:	9b00      	ldr	r3, [sp, #0]
 8001de8:	469c      	mov	ip, r3
 8001dea:	e741      	b.n	8001c70 <__aeabi_dmul+0x30c>
 8001dec:	4912      	ldr	r1, [pc, #72]	; (8001e38 <__aeabi_dmul+0x4d4>)
 8001dee:	0022      	movs	r2, r4
 8001df0:	4461      	add	r1, ip
 8001df2:	002e      	movs	r6, r5
 8001df4:	408d      	lsls	r5, r1
 8001df6:	408a      	lsls	r2, r1
 8001df8:	40c6      	lsrs	r6, r0
 8001dfa:	1e69      	subs	r1, r5, #1
 8001dfc:	418d      	sbcs	r5, r1
 8001dfe:	4332      	orrs	r2, r6
 8001e00:	432a      	orrs	r2, r5
 8001e02:	40c4      	lsrs	r4, r0
 8001e04:	0753      	lsls	r3, r2, #29
 8001e06:	d0b6      	beq.n	8001d76 <__aeabi_dmul+0x412>
 8001e08:	210f      	movs	r1, #15
 8001e0a:	4011      	ands	r1, r2
 8001e0c:	2904      	cmp	r1, #4
 8001e0e:	d1ac      	bne.n	8001d6a <__aeabi_dmul+0x406>
 8001e10:	e7b1      	b.n	8001d76 <__aeabi_dmul+0x412>
 8001e12:	0765      	lsls	r5, r4, #29
 8001e14:	0264      	lsls	r4, r4, #9
 8001e16:	0b24      	lsrs	r4, r4, #12
 8001e18:	08d2      	lsrs	r2, r2, #3
 8001e1a:	4315      	orrs	r5, r2
 8001e1c:	2200      	movs	r2, #0
 8001e1e:	e611      	b.n	8001a44 <__aeabi_dmul+0xe0>
 8001e20:	2280      	movs	r2, #128	; 0x80
 8001e22:	0312      	lsls	r2, r2, #12
 8001e24:	4314      	orrs	r4, r2
 8001e26:	0324      	lsls	r4, r4, #12
 8001e28:	4a01      	ldr	r2, [pc, #4]	; (8001e30 <__aeabi_dmul+0x4cc>)
 8001e2a:	0b24      	lsrs	r4, r4, #12
 8001e2c:	e60a      	b.n	8001a44 <__aeabi_dmul+0xe0>
 8001e2e:	46c0      	nop			; (mov r8, r8)
 8001e30:	000007ff 	.word	0x000007ff
 8001e34:	0000043e 	.word	0x0000043e
 8001e38:	0000041e 	.word	0x0000041e

08001e3c <__aeabi_d2iz>:
 8001e3c:	000a      	movs	r2, r1
 8001e3e:	b530      	push	{r4, r5, lr}
 8001e40:	4c13      	ldr	r4, [pc, #76]	; (8001e90 <__aeabi_d2iz+0x54>)
 8001e42:	0053      	lsls	r3, r2, #1
 8001e44:	0309      	lsls	r1, r1, #12
 8001e46:	0005      	movs	r5, r0
 8001e48:	0b09      	lsrs	r1, r1, #12
 8001e4a:	2000      	movs	r0, #0
 8001e4c:	0d5b      	lsrs	r3, r3, #21
 8001e4e:	0fd2      	lsrs	r2, r2, #31
 8001e50:	42a3      	cmp	r3, r4
 8001e52:	dd04      	ble.n	8001e5e <__aeabi_d2iz+0x22>
 8001e54:	480f      	ldr	r0, [pc, #60]	; (8001e94 <__aeabi_d2iz+0x58>)
 8001e56:	4283      	cmp	r3, r0
 8001e58:	dd02      	ble.n	8001e60 <__aeabi_d2iz+0x24>
 8001e5a:	4b0f      	ldr	r3, [pc, #60]	; (8001e98 <__aeabi_d2iz+0x5c>)
 8001e5c:	18d0      	adds	r0, r2, r3
 8001e5e:	bd30      	pop	{r4, r5, pc}
 8001e60:	2080      	movs	r0, #128	; 0x80
 8001e62:	0340      	lsls	r0, r0, #13
 8001e64:	4301      	orrs	r1, r0
 8001e66:	480d      	ldr	r0, [pc, #52]	; (8001e9c <__aeabi_d2iz+0x60>)
 8001e68:	1ac0      	subs	r0, r0, r3
 8001e6a:	281f      	cmp	r0, #31
 8001e6c:	dd08      	ble.n	8001e80 <__aeabi_d2iz+0x44>
 8001e6e:	480c      	ldr	r0, [pc, #48]	; (8001ea0 <__aeabi_d2iz+0x64>)
 8001e70:	1ac3      	subs	r3, r0, r3
 8001e72:	40d9      	lsrs	r1, r3
 8001e74:	000b      	movs	r3, r1
 8001e76:	4258      	negs	r0, r3
 8001e78:	2a00      	cmp	r2, #0
 8001e7a:	d1f0      	bne.n	8001e5e <__aeabi_d2iz+0x22>
 8001e7c:	0018      	movs	r0, r3
 8001e7e:	e7ee      	b.n	8001e5e <__aeabi_d2iz+0x22>
 8001e80:	4c08      	ldr	r4, [pc, #32]	; (8001ea4 <__aeabi_d2iz+0x68>)
 8001e82:	40c5      	lsrs	r5, r0
 8001e84:	46a4      	mov	ip, r4
 8001e86:	4463      	add	r3, ip
 8001e88:	4099      	lsls	r1, r3
 8001e8a:	000b      	movs	r3, r1
 8001e8c:	432b      	orrs	r3, r5
 8001e8e:	e7f2      	b.n	8001e76 <__aeabi_d2iz+0x3a>
 8001e90:	000003fe 	.word	0x000003fe
 8001e94:	0000041d 	.word	0x0000041d
 8001e98:	7fffffff 	.word	0x7fffffff
 8001e9c:	00000433 	.word	0x00000433
 8001ea0:	00000413 	.word	0x00000413
 8001ea4:	fffffbed 	.word	0xfffffbed

08001ea8 <__aeabi_i2d>:
 8001ea8:	b570      	push	{r4, r5, r6, lr}
 8001eaa:	2800      	cmp	r0, #0
 8001eac:	d016      	beq.n	8001edc <__aeabi_i2d+0x34>
 8001eae:	17c3      	asrs	r3, r0, #31
 8001eb0:	18c5      	adds	r5, r0, r3
 8001eb2:	405d      	eors	r5, r3
 8001eb4:	0fc4      	lsrs	r4, r0, #31
 8001eb6:	0028      	movs	r0, r5
 8001eb8:	f000 f826 	bl	8001f08 <__clzsi2>
 8001ebc:	4a11      	ldr	r2, [pc, #68]	; (8001f04 <__aeabi_i2d+0x5c>)
 8001ebe:	1a12      	subs	r2, r2, r0
 8001ec0:	280a      	cmp	r0, #10
 8001ec2:	dc16      	bgt.n	8001ef2 <__aeabi_i2d+0x4a>
 8001ec4:	0003      	movs	r3, r0
 8001ec6:	002e      	movs	r6, r5
 8001ec8:	3315      	adds	r3, #21
 8001eca:	409e      	lsls	r6, r3
 8001ecc:	230b      	movs	r3, #11
 8001ece:	1a18      	subs	r0, r3, r0
 8001ed0:	40c5      	lsrs	r5, r0
 8001ed2:	0553      	lsls	r3, r2, #21
 8001ed4:	032d      	lsls	r5, r5, #12
 8001ed6:	0b2d      	lsrs	r5, r5, #12
 8001ed8:	0d5b      	lsrs	r3, r3, #21
 8001eda:	e003      	b.n	8001ee4 <__aeabi_i2d+0x3c>
 8001edc:	2400      	movs	r4, #0
 8001ede:	2300      	movs	r3, #0
 8001ee0:	2500      	movs	r5, #0
 8001ee2:	2600      	movs	r6, #0
 8001ee4:	051b      	lsls	r3, r3, #20
 8001ee6:	432b      	orrs	r3, r5
 8001ee8:	07e4      	lsls	r4, r4, #31
 8001eea:	4323      	orrs	r3, r4
 8001eec:	0030      	movs	r0, r6
 8001eee:	0019      	movs	r1, r3
 8001ef0:	bd70      	pop	{r4, r5, r6, pc}
 8001ef2:	380b      	subs	r0, #11
 8001ef4:	4085      	lsls	r5, r0
 8001ef6:	0553      	lsls	r3, r2, #21
 8001ef8:	032d      	lsls	r5, r5, #12
 8001efa:	2600      	movs	r6, #0
 8001efc:	0b2d      	lsrs	r5, r5, #12
 8001efe:	0d5b      	lsrs	r3, r3, #21
 8001f00:	e7f0      	b.n	8001ee4 <__aeabi_i2d+0x3c>
 8001f02:	46c0      	nop			; (mov r8, r8)
 8001f04:	0000041e 	.word	0x0000041e

08001f08 <__clzsi2>:
 8001f08:	211c      	movs	r1, #28
 8001f0a:	2301      	movs	r3, #1
 8001f0c:	041b      	lsls	r3, r3, #16
 8001f0e:	4298      	cmp	r0, r3
 8001f10:	d301      	bcc.n	8001f16 <__clzsi2+0xe>
 8001f12:	0c00      	lsrs	r0, r0, #16
 8001f14:	3910      	subs	r1, #16
 8001f16:	0a1b      	lsrs	r3, r3, #8
 8001f18:	4298      	cmp	r0, r3
 8001f1a:	d301      	bcc.n	8001f20 <__clzsi2+0x18>
 8001f1c:	0a00      	lsrs	r0, r0, #8
 8001f1e:	3908      	subs	r1, #8
 8001f20:	091b      	lsrs	r3, r3, #4
 8001f22:	4298      	cmp	r0, r3
 8001f24:	d301      	bcc.n	8001f2a <__clzsi2+0x22>
 8001f26:	0900      	lsrs	r0, r0, #4
 8001f28:	3904      	subs	r1, #4
 8001f2a:	a202      	add	r2, pc, #8	; (adr r2, 8001f34 <__clzsi2+0x2c>)
 8001f2c:	5c10      	ldrb	r0, [r2, r0]
 8001f2e:	1840      	adds	r0, r0, r1
 8001f30:	4770      	bx	lr
 8001f32:	46c0      	nop			; (mov r8, r8)
 8001f34:	02020304 	.word	0x02020304
 8001f38:	01010101 	.word	0x01010101
	...

08001f44 <__clzdi2>:
 8001f44:	b510      	push	{r4, lr}
 8001f46:	2900      	cmp	r1, #0
 8001f48:	d103      	bne.n	8001f52 <__clzdi2+0xe>
 8001f4a:	f7ff ffdd 	bl	8001f08 <__clzsi2>
 8001f4e:	3020      	adds	r0, #32
 8001f50:	e002      	b.n	8001f58 <__clzdi2+0x14>
 8001f52:	1c08      	adds	r0, r1, #0
 8001f54:	f7ff ffd8 	bl	8001f08 <__clzsi2>
 8001f58:	bd10      	pop	{r4, pc}
 8001f5a:	46c0      	nop			; (mov r8, r8)

08001f5c <BQ27441_readWord>:
 8001f5c:	2301      	movs	r3, #1
 8001f5e:	b510      	push	{r4, lr}
 8001f60:	425b      	negs	r3, r3
 8001f62:	b086      	sub	sp, #24
 8001f64:	ac05      	add	r4, sp, #20
 8001f66:	9302      	str	r3, [sp, #8]
 8001f68:	3303      	adds	r3, #3
 8001f6a:	0002      	movs	r2, r0
 8001f6c:	9301      	str	r3, [sp, #4]
 8001f6e:	21aa      	movs	r1, #170	; 0xaa
 8001f70:	9400      	str	r4, [sp, #0]
 8001f72:	3b01      	subs	r3, #1
 8001f74:	4804      	ldr	r0, [pc, #16]	; (8001f88 <BQ27441_readWord+0x2c>)
 8001f76:	f001 f9f5 	bl	8003364 <HAL_I2C_Mem_Read>
 8001f7a:	7863      	ldrb	r3, [r4, #1]
 8001f7c:	7820      	ldrb	r0, [r4, #0]
 8001f7e:	021b      	lsls	r3, r3, #8
 8001f80:	4318      	orrs	r0, r3
 8001f82:	b006      	add	sp, #24
 8001f84:	bd10      	pop	{r4, pc}
 8001f86:	46c0      	nop			; (mov r8, r8)
 8001f88:	20000098 	.word	0x20000098

08001f8c <BQ27441_voltage>:
 8001f8c:	b510      	push	{r4, lr}
 8001f8e:	2004      	movs	r0, #4
 8001f90:	f7ff ffe4 	bl	8001f5c <BQ27441_readWord>
 8001f94:	bd10      	pop	{r4, pc}

08001f96 <BQ27441_current>:
 8001f96:	0003      	movs	r3, r0
 8001f98:	b510      	push	{r4, lr}
 8001f9a:	2801      	cmp	r0, #1
 8001f9c:	d009      	beq.n	8001fb2 <BQ27441_current+0x1c>
 8001f9e:	2802      	cmp	r0, #2
 8001fa0:	d009      	beq.n	8001fb6 <BQ27441_current+0x20>
 8001fa2:	2000      	movs	r0, #0
 8001fa4:	4283      	cmp	r3, r0
 8001fa6:	d103      	bne.n	8001fb0 <BQ27441_current+0x1a>
 8001fa8:	3010      	adds	r0, #16
 8001faa:	f7ff ffd7 	bl	8001f5c <BQ27441_readWord>
 8001fae:	b200      	sxth	r0, r0
 8001fb0:	bd10      	pop	{r4, pc}
 8001fb2:	2012      	movs	r0, #18
 8001fb4:	e7f9      	b.n	8001faa <BQ27441_current+0x14>
 8001fb6:	2014      	movs	r0, #20
 8001fb8:	e7f7      	b.n	8001faa <BQ27441_current+0x14>

08001fba <BQ27441_capacity>:
 8001fba:	0003      	movs	r3, r0
 8001fbc:	b510      	push	{r4, lr}
 8001fbe:	2000      	movs	r0, #0
 8001fc0:	2b08      	cmp	r3, #8
 8001fc2:	d80a      	bhi.n	8001fda <BQ27441_capacity+0x20>
 8001fc4:	0018      	movs	r0, r3
 8001fc6:	f7fe f89f 	bl	8000108 <__gnu_thumb1_case_uqi>
 8001fca:	0905      	.short	0x0905
 8001fcc:	110f0d0b 	.word	0x110f0d0b
 8001fd0:	1513      	.short	0x1513
 8001fd2:	17          	.byte	0x17
 8001fd3:	00          	.byte	0x00
 8001fd4:	200c      	movs	r0, #12
 8001fd6:	f7ff ffc1 	bl	8001f5c <BQ27441_readWord>
 8001fda:	bd10      	pop	{r4, pc}
 8001fdc:	200e      	movs	r0, #14
 8001fde:	e7fa      	b.n	8001fd6 <BQ27441_capacity+0x1c>
 8001fe0:	2008      	movs	r0, #8
 8001fe2:	e7f8      	b.n	8001fd6 <BQ27441_capacity+0x1c>
 8001fe4:	200a      	movs	r0, #10
 8001fe6:	e7f6      	b.n	8001fd6 <BQ27441_capacity+0x1c>
 8001fe8:	202a      	movs	r0, #42	; 0x2a
 8001fea:	e7f4      	b.n	8001fd6 <BQ27441_capacity+0x1c>
 8001fec:	2028      	movs	r0, #40	; 0x28
 8001fee:	e7f2      	b.n	8001fd6 <BQ27441_capacity+0x1c>
 8001ff0:	202e      	movs	r0, #46	; 0x2e
 8001ff2:	e7f0      	b.n	8001fd6 <BQ27441_capacity+0x1c>
 8001ff4:	202c      	movs	r0, #44	; 0x2c
 8001ff6:	e7ee      	b.n	8001fd6 <BQ27441_capacity+0x1c>
 8001ff8:	203c      	movs	r0, #60	; 0x3c
 8001ffa:	e7ec      	b.n	8001fd6 <BQ27441_capacity+0x1c>

08001ffc <BQ27441_power>:
 8001ffc:	b510      	push	{r4, lr}
 8001ffe:	2018      	movs	r0, #24
 8002000:	f7ff ffac 	bl	8001f5c <BQ27441_readWord>
 8002004:	b200      	sxth	r0, r0
 8002006:	bd10      	pop	{r4, pc}

08002008 <BQ27441_soc>:
 8002008:	b510      	push	{r4, lr}
 800200a:	2800      	cmp	r0, #0
 800200c:	d003      	beq.n	8002016 <BQ27441_soc+0xe>
 800200e:	2801      	cmp	r0, #1
 8002010:	d005      	beq.n	800201e <BQ27441_soc+0x16>
 8002012:	2000      	movs	r0, #0
 8002014:	bd10      	pop	{r4, pc}
 8002016:	201c      	movs	r0, #28
 8002018:	f7ff ffa0 	bl	8001f5c <BQ27441_readWord>
 800201c:	e7fa      	b.n	8002014 <BQ27441_soc+0xc>
 800201e:	2030      	movs	r0, #48	; 0x30
 8002020:	e7fa      	b.n	8002018 <BQ27441_soc+0x10>

08002022 <BQ27441_soh>:
 8002022:	b510      	push	{r4, lr}
 8002024:	0004      	movs	r4, r0
 8002026:	2020      	movs	r0, #32
 8002028:	f7ff ff98 	bl	8001f5c <BQ27441_readWord>
 800202c:	2c00      	cmp	r4, #0
 800202e:	d001      	beq.n	8002034 <BQ27441_soh+0x12>
 8002030:	0a00      	lsrs	r0, r0, #8
 8002032:	b280      	uxth	r0, r0
 8002034:	b2c0      	uxtb	r0, r0
 8002036:	bd10      	pop	{r4, pc}

08002038 <BQ27441_temperature>:
 8002038:	b510      	push	{r4, lr}
 800203a:	2800      	cmp	r0, #0
 800203c:	d003      	beq.n	8002046 <BQ27441_temperature+0xe>
 800203e:	2801      	cmp	r0, #1
 8002040:	d005      	beq.n	800204e <BQ27441_temperature+0x16>
 8002042:	2000      	movs	r0, #0
 8002044:	bd10      	pop	{r4, pc}
 8002046:	2002      	movs	r0, #2
 8002048:	f7ff ff88 	bl	8001f5c <BQ27441_readWord>
 800204c:	e7fa      	b.n	8002044 <BQ27441_temperature+0xc>
 800204e:	201e      	movs	r0, #30
 8002050:	e7fa      	b.n	8002048 <BQ27441_temperature+0x10>
	...

08002054 <BQ27441_blockDataControl>:
 8002054:	b57f      	push	{r0, r1, r2, r3, r4, r5, r6, lr}
 8002056:	2217      	movs	r2, #23
 8002058:	2300      	movs	r3, #0
 800205a:	446a      	add	r2, sp
 800205c:	7013      	strb	r3, [r2, #0]
 800205e:	3b01      	subs	r3, #1
 8002060:	9302      	str	r3, [sp, #8]
 8002062:	3302      	adds	r3, #2
 8002064:	9200      	str	r2, [sp, #0]
 8002066:	21aa      	movs	r1, #170	; 0xaa
 8002068:	2261      	movs	r2, #97	; 0x61
 800206a:	9301      	str	r3, [sp, #4]
 800206c:	4802      	ldr	r0, [pc, #8]	; (8002078 <BQ27441_blockDataControl+0x24>)
 800206e:	f001 f8bf 	bl	80031f0 <HAL_I2C_Mem_Write>
 8002072:	b007      	add	sp, #28
 8002074:	bd00      	pop	{pc}
 8002076:	46c0      	nop			; (mov r8, r8)
 8002078:	20000098 	.word	0x20000098

0800207c <BQ27441_blockDataClass>:
 800207c:	b57f      	push	{r0, r1, r2, r3, r4, r5, r6, lr}
 800207e:	2217      	movs	r2, #23
 8002080:	2301      	movs	r3, #1
 8002082:	446a      	add	r2, sp
 8002084:	425b      	negs	r3, r3
 8002086:	7010      	strb	r0, [r2, #0]
 8002088:	9302      	str	r3, [sp, #8]
 800208a:	3302      	adds	r3, #2
 800208c:	9200      	str	r2, [sp, #0]
 800208e:	21aa      	movs	r1, #170	; 0xaa
 8002090:	223e      	movs	r2, #62	; 0x3e
 8002092:	9301      	str	r3, [sp, #4]
 8002094:	4802      	ldr	r0, [pc, #8]	; (80020a0 <BQ27441_blockDataClass+0x24>)
 8002096:	f001 f8ab 	bl	80031f0 <HAL_I2C_Mem_Write>
 800209a:	b007      	add	sp, #28
 800209c:	bd00      	pop	{pc}
 800209e:	46c0      	nop			; (mov r8, r8)
 80020a0:	20000098 	.word	0x20000098

080020a4 <BQ27441_blockDataOffset>:
 80020a4:	b57f      	push	{r0, r1, r2, r3, r4, r5, r6, lr}
 80020a6:	2217      	movs	r2, #23
 80020a8:	2301      	movs	r3, #1
 80020aa:	446a      	add	r2, sp
 80020ac:	425b      	negs	r3, r3
 80020ae:	7010      	strb	r0, [r2, #0]
 80020b0:	9302      	str	r3, [sp, #8]
 80020b2:	3302      	adds	r3, #2
 80020b4:	9200      	str	r2, [sp, #0]
 80020b6:	21aa      	movs	r1, #170	; 0xaa
 80020b8:	223f      	movs	r2, #63	; 0x3f
 80020ba:	9301      	str	r3, [sp, #4]
 80020bc:	4802      	ldr	r0, [pc, #8]	; (80020c8 <BQ27441_blockDataOffset+0x24>)
 80020be:	f001 f897 	bl	80031f0 <HAL_I2C_Mem_Write>
 80020c2:	b007      	add	sp, #28
 80020c4:	bd00      	pop	{pc}
 80020c6:	46c0      	nop			; (mov r8, r8)
 80020c8:	20000098 	.word	0x20000098

080020cc <BQ27441_blockDataChecksum>:
 80020cc:	2301      	movs	r3, #1
 80020ce:	b510      	push	{r4, lr}
 80020d0:	2417      	movs	r4, #23
 80020d2:	b086      	sub	sp, #24
 80020d4:	425b      	negs	r3, r3
 80020d6:	9302      	str	r3, [sp, #8]
 80020d8:	446c      	add	r4, sp
 80020da:	3302      	adds	r3, #2
 80020dc:	2260      	movs	r2, #96	; 0x60
 80020de:	21aa      	movs	r1, #170	; 0xaa
 80020e0:	9301      	str	r3, [sp, #4]
 80020e2:	9400      	str	r4, [sp, #0]
 80020e4:	4802      	ldr	r0, [pc, #8]	; (80020f0 <BQ27441_blockDataChecksum+0x24>)
 80020e6:	f001 f93d 	bl	8003364 <HAL_I2C_Mem_Read>
 80020ea:	7820      	ldrb	r0, [r4, #0]
 80020ec:	b006      	add	sp, #24
 80020ee:	bd10      	pop	{r4, pc}
 80020f0:	20000098 	.word	0x20000098

080020f4 <BQ27441_computeBlockChecksum>:
 80020f4:	2301      	movs	r3, #1
 80020f6:	b510      	push	{r4, lr}
 80020f8:	425b      	negs	r3, r3
 80020fa:	b08c      	sub	sp, #48	; 0x30
 80020fc:	9302      	str	r3, [sp, #8]
 80020fe:	ac04      	add	r4, sp, #16
 8002100:	3321      	adds	r3, #33	; 0x21
 8002102:	9301      	str	r3, [sp, #4]
 8002104:	2260      	movs	r2, #96	; 0x60
 8002106:	3b1f      	subs	r3, #31
 8002108:	21aa      	movs	r1, #170	; 0xaa
 800210a:	4808      	ldr	r0, [pc, #32]	; (800212c <BQ27441_computeBlockChecksum+0x38>)
 800210c:	9400      	str	r4, [sp, #0]
 800210e:	f001 f929 	bl	8003364 <HAL_I2C_Mem_Read>
 8002112:	2300      	movs	r3, #0
 8002114:	0018      	movs	r0, r3
 8002116:	5ce2      	ldrb	r2, [r4, r3]
 8002118:	3301      	adds	r3, #1
 800211a:	1880      	adds	r0, r0, r2
 800211c:	b2c0      	uxtb	r0, r0
 800211e:	2b20      	cmp	r3, #32
 8002120:	d1f9      	bne.n	8002116 <BQ27441_computeBlockChecksum+0x22>
 8002122:	43c0      	mvns	r0, r0
 8002124:	b2c0      	uxtb	r0, r0
 8002126:	b00c      	add	sp, #48	; 0x30
 8002128:	bd10      	pop	{r4, pc}
 800212a:	46c0      	nop			; (mov r8, r8)
 800212c:	20000098 	.word	0x20000098

08002130 <BQ27441_writeBlockChecksum>:
 8002130:	b57f      	push	{r0, r1, r2, r3, r4, r5, r6, lr}
 8002132:	2217      	movs	r2, #23
 8002134:	2301      	movs	r3, #1
 8002136:	446a      	add	r2, sp
 8002138:	425b      	negs	r3, r3
 800213a:	7010      	strb	r0, [r2, #0]
 800213c:	9302      	str	r3, [sp, #8]
 800213e:	3302      	adds	r3, #2
 8002140:	9200      	str	r2, [sp, #0]
 8002142:	21aa      	movs	r1, #170	; 0xaa
 8002144:	2260      	movs	r2, #96	; 0x60
 8002146:	9301      	str	r3, [sp, #4]
 8002148:	4802      	ldr	r0, [pc, #8]	; (8002154 <BQ27441_writeBlockChecksum+0x24>)
 800214a:	f001 f851 	bl	80031f0 <HAL_I2C_Mem_Write>
 800214e:	b007      	add	sp, #28
 8002150:	bd00      	pop	{pc}
 8002152:	46c0      	nop			; (mov r8, r8)
 8002154:	20000098 	.word	0x20000098

08002158 <BQ27441_writeBlockData>:
 8002158:	b510      	push	{r4, lr}
 800215a:	2301      	movs	r3, #1
 800215c:	2417      	movs	r4, #23
 800215e:	0002      	movs	r2, r0
 8002160:	b086      	sub	sp, #24
 8002162:	446c      	add	r4, sp
 8002164:	425b      	negs	r3, r3
 8002166:	7021      	strb	r1, [r4, #0]
 8002168:	3240      	adds	r2, #64	; 0x40
 800216a:	9302      	str	r3, [sp, #8]
 800216c:	3302      	adds	r3, #2
 800216e:	21aa      	movs	r1, #170	; 0xaa
 8002170:	b2d2      	uxtb	r2, r2
 8002172:	9301      	str	r3, [sp, #4]
 8002174:	9400      	str	r4, [sp, #0]
 8002176:	4802      	ldr	r0, [pc, #8]	; (8002180 <BQ27441_writeBlockData+0x28>)
 8002178:	f001 f83a 	bl	80031f0 <HAL_I2C_Mem_Write>
 800217c:	b006      	add	sp, #24
 800217e:	bd10      	pop	{r4, pc}
 8002180:	20000098 	.word	0x20000098

08002184 <BQ27441_writeExtendedData>:
 8002184:	b5f7      	push	{r0, r1, r2, r4, r5, r6, r7, lr}
 8002186:	0004      	movs	r4, r0
 8002188:	000e      	movs	r6, r1
 800218a:	001d      	movs	r5, r3
 800218c:	9201      	str	r2, [sp, #4]
 800218e:	2b20      	cmp	r3, #32
 8002190:	d902      	bls.n	8002198 <BQ27441_writeExtendedData+0x14>
 8002192:	2001      	movs	r0, #1
 8002194:	4240      	negs	r0, r0
 8002196:	bdfe      	pop	{r1, r2, r3, r4, r5, r6, r7, pc}
 8002198:	f7ff ff5c 	bl	8002054 <BQ27441_blockDataControl>
 800219c:	2800      	cmp	r0, #0
 800219e:	d1f8      	bne.n	8002192 <BQ27441_writeExtendedData+0xe>
 80021a0:	0020      	movs	r0, r4
 80021a2:	f7ff ff6b 	bl	800207c <BQ27441_blockDataClass>
 80021a6:	1e04      	subs	r4, r0, #0
 80021a8:	d1f3      	bne.n	8002192 <BQ27441_writeExtendedData+0xe>
 80021aa:	0970      	lsrs	r0, r6, #5
 80021ac:	f7ff ff7a 	bl	80020a4 <BQ27441_blockDataOffset>
 80021b0:	271f      	movs	r7, #31
 80021b2:	f7ff ff9f 	bl	80020f4 <BQ27441_computeBlockChecksum>
 80021b6:	f7ff ff89 	bl	80020cc <BQ27441_blockDataChecksum>
 80021ba:	42ac      	cmp	r4, r5
 80021bc:	db05      	blt.n	80021ca <BQ27441_writeExtendedData+0x46>
 80021be:	f7ff ff99 	bl	80020f4 <BQ27441_computeBlockChecksum>
 80021c2:	f7ff ffb5 	bl	8002130 <BQ27441_writeBlockChecksum>
 80021c6:	2001      	movs	r0, #1
 80021c8:	e7e5      	b.n	8002196 <BQ27441_writeExtendedData+0x12>
 80021ca:	0030      	movs	r0, r6
 80021cc:	9b01      	ldr	r3, [sp, #4]
 80021ce:	4038      	ands	r0, r7
 80021d0:	1900      	adds	r0, r0, r4
 80021d2:	5d19      	ldrb	r1, [r3, r4]
 80021d4:	b2c0      	uxtb	r0, r0
 80021d6:	f7ff ffbf 	bl	8002158 <BQ27441_writeBlockData>
 80021da:	3401      	adds	r4, #1
 80021dc:	e7ed      	b.n	80021ba <BQ27441_writeExtendedData+0x36>

080021de <BQ27441_setCapacity>:
 80021de:	b507      	push	{r0, r1, r2, lr}
 80021e0:	aa01      	add	r2, sp, #4
 80021e2:	8010      	strh	r0, [r2, #0]
 80021e4:	2302      	movs	r3, #2
 80021e6:	210a      	movs	r1, #10
 80021e8:	2052      	movs	r0, #82	; 0x52
 80021ea:	f7ff ffcb 	bl	8002184 <BQ27441_writeExtendedData>
 80021ee:	bd0e      	pop	{r1, r2, r3, pc}

080021f0 <BQ27441_setDesignEnergy>:
 80021f0:	b507      	push	{r0, r1, r2, lr}
 80021f2:	aa01      	add	r2, sp, #4
 80021f4:	8010      	strh	r0, [r2, #0]
 80021f6:	2302      	movs	r3, #2
 80021f8:	210c      	movs	r1, #12
 80021fa:	2052      	movs	r0, #82	; 0x52
 80021fc:	f7ff ffc2 	bl	8002184 <BQ27441_writeExtendedData>
 8002200:	bd0e      	pop	{r1, r2, r3, pc}
	...

08002204 <bq_init>:
 8002204:	b510      	push	{r4, lr}
 8002206:	4806      	ldr	r0, [pc, #24]	; (8002220 <bq_init+0x1c>)
 8002208:	f7ff ffe9 	bl	80021de <BQ27441_setCapacity>
 800220c:	2801      	cmp	r0, #1
 800220e:	d104      	bne.n	800221a <bq_init+0x16>
 8002210:	4804      	ldr	r0, [pc, #16]	; (8002224 <bq_init+0x20>)
 8002212:	f7ff ffed 	bl	80021f0 <BQ27441_setDesignEnergy>
 8002216:	2801      	cmp	r0, #1
 8002218:	d001      	beq.n	800221e <bq_init+0x1a>
 800221a:	2001      	movs	r0, #1
 800221c:	4240      	negs	r0, r0
 800221e:	bd10      	pop	{r4, pc}
 8002220:	000009c4 	.word	0x000009c4
 8002224:	00002422 	.word	0x00002422

08002228 <MX_GPIO_Init>:
 8002228:	2001      	movs	r0, #1
 800222a:	4b09      	ldr	r3, [pc, #36]	; (8002250 <MX_GPIO_Init+0x28>)
 800222c:	b082      	sub	sp, #8
 800222e:	6ad9      	ldr	r1, [r3, #44]	; 0x2c
 8002230:	4301      	orrs	r1, r0
 8002232:	62d9      	str	r1, [r3, #44]	; 0x2c
 8002234:	2102      	movs	r1, #2
 8002236:	6ada      	ldr	r2, [r3, #44]	; 0x2c
 8002238:	4002      	ands	r2, r0
 800223a:	9200      	str	r2, [sp, #0]
 800223c:	9a00      	ldr	r2, [sp, #0]
 800223e:	6ada      	ldr	r2, [r3, #44]	; 0x2c
 8002240:	430a      	orrs	r2, r1
 8002242:	62da      	str	r2, [r3, #44]	; 0x2c
 8002244:	6adb      	ldr	r3, [r3, #44]	; 0x2c
 8002246:	400b      	ands	r3, r1
 8002248:	9301      	str	r3, [sp, #4]
 800224a:	9b01      	ldr	r3, [sp, #4]
 800224c:	b002      	add	sp, #8
 800224e:	4770      	bx	lr
 8002250:	40021000 	.word	0x40021000

08002254 <hts221_init>:
 8002254:	b5f0      	push	{r4, r5, r6, r7, lr}
 8002256:	2701      	movs	r7, #1
 8002258:	2384      	movs	r3, #132	; 0x84
 800225a:	2501      	movs	r5, #1
 800225c:	b08f      	sub	sp, #60	; 0x3c
 800225e:	4e8d      	ldr	r6, [pc, #564]	; (8002494 <hts221_init+0x240>)
 8002260:	ac0a      	add	r4, sp, #40	; 0x28
 8002262:	427f      	negs	r7, r7
 8002264:	7023      	strb	r3, [r4, #0]
 8002266:	2220      	movs	r2, #32
 8002268:	002b      	movs	r3, r5
 800226a:	21be      	movs	r1, #190	; 0xbe
 800226c:	0030      	movs	r0, r6
 800226e:	9702      	str	r7, [sp, #8]
 8002270:	9501      	str	r5, [sp, #4]
 8002272:	9400      	str	r4, [sp, #0]
 8002274:	f000 ffbc 	bl	80031f0 <HAL_I2C_Mem_Write>
 8002278:	2800      	cmp	r0, #0
 800227a:	d003      	beq.n	8002284 <hts221_init+0x30>
 800227c:	2400      	movs	r4, #0
 800227e:	0020      	movs	r0, r4
 8002280:	b00f      	add	sp, #60	; 0x3c
 8002282:	bdf0      	pop	{r4, r5, r6, r7, pc}
 8002284:	002b      	movs	r3, r5
 8002286:	2232      	movs	r2, #50	; 0x32
 8002288:	21be      	movs	r1, #190	; 0xbe
 800228a:	0030      	movs	r0, r6
 800228c:	9702      	str	r7, [sp, #8]
 800228e:	9501      	str	r5, [sp, #4]
 8002290:	9400      	str	r4, [sp, #0]
 8002292:	f001 f867 	bl	8003364 <HAL_I2C_Mem_Read>
 8002296:	2800      	cmp	r0, #0
 8002298:	d1f0      	bne.n	800227c <hts221_init+0x28>
 800229a:	2311      	movs	r3, #17
 800229c:	aa06      	add	r2, sp, #24
 800229e:	189b      	adds	r3, r3, r2
 80022a0:	9300      	str	r3, [sp, #0]
 80022a2:	2233      	movs	r2, #51	; 0x33
 80022a4:	002b      	movs	r3, r5
 80022a6:	21be      	movs	r1, #190	; 0xbe
 80022a8:	0030      	movs	r0, r6
 80022aa:	9702      	str	r7, [sp, #8]
 80022ac:	9501      	str	r5, [sp, #4]
 80022ae:	f001 f859 	bl	8003364 <HAL_I2C_Mem_Read>
 80022b2:	2800      	cmp	r0, #0
 80022b4:	d1e2      	bne.n	800227c <hts221_init+0x28>
 80022b6:	2312      	movs	r3, #18
 80022b8:	aa06      	add	r2, sp, #24
 80022ba:	189b      	adds	r3, r3, r2
 80022bc:	9300      	str	r3, [sp, #0]
 80022be:	2235      	movs	r2, #53	; 0x35
 80022c0:	002b      	movs	r3, r5
 80022c2:	21be      	movs	r1, #190	; 0xbe
 80022c4:	0030      	movs	r0, r6
 80022c6:	9702      	str	r7, [sp, #8]
 80022c8:	9501      	str	r5, [sp, #4]
 80022ca:	f001 f84b 	bl	8003364 <HAL_I2C_Mem_Read>
 80022ce:	2800      	cmp	r0, #0
 80022d0:	d1d4      	bne.n	800227c <hts221_init+0x28>
 80022d2:	2313      	movs	r3, #19
 80022d4:	aa06      	add	r2, sp, #24
 80022d6:	189b      	adds	r3, r3, r2
 80022d8:	9300      	str	r3, [sp, #0]
 80022da:	223c      	movs	r2, #60	; 0x3c
 80022dc:	002b      	movs	r3, r5
 80022de:	21be      	movs	r1, #190	; 0xbe
 80022e0:	0030      	movs	r0, r6
 80022e2:	9702      	str	r7, [sp, #8]
 80022e4:	9501      	str	r5, [sp, #4]
 80022e6:	f001 f83d 	bl	8003364 <HAL_I2C_Mem_Read>
 80022ea:	2800      	cmp	r0, #0
 80022ec:	d1c6      	bne.n	800227c <hts221_init+0x28>
 80022ee:	ab0b      	add	r3, sp, #44	; 0x2c
 80022f0:	9300      	str	r3, [sp, #0]
 80022f2:	223d      	movs	r2, #61	; 0x3d
 80022f4:	002b      	movs	r3, r5
 80022f6:	21be      	movs	r1, #190	; 0xbe
 80022f8:	0030      	movs	r0, r6
 80022fa:	9702      	str	r7, [sp, #8]
 80022fc:	9501      	str	r5, [sp, #4]
 80022fe:	f001 f831 	bl	8003364 <HAL_I2C_Mem_Read>
 8002302:	2800      	cmp	r0, #0
 8002304:	d1ba      	bne.n	800227c <hts221_init+0x28>
 8002306:	2315      	movs	r3, #21
 8002308:	aa06      	add	r2, sp, #24
 800230a:	189b      	adds	r3, r3, r2
 800230c:	9300      	str	r3, [sp, #0]
 800230e:	223e      	movs	r2, #62	; 0x3e
 8002310:	002b      	movs	r3, r5
 8002312:	21be      	movs	r1, #190	; 0xbe
 8002314:	0030      	movs	r0, r6
 8002316:	9702      	str	r7, [sp, #8]
 8002318:	9501      	str	r5, [sp, #4]
 800231a:	f001 f823 	bl	8003364 <HAL_I2C_Mem_Read>
 800231e:	2800      	cmp	r0, #0
 8002320:	d1ac      	bne.n	800227c <hts221_init+0x28>
 8002322:	2316      	movs	r3, #22
 8002324:	aa06      	add	r2, sp, #24
 8002326:	189b      	adds	r3, r3, r2
 8002328:	9300      	str	r3, [sp, #0]
 800232a:	223f      	movs	r2, #63	; 0x3f
 800232c:	002b      	movs	r3, r5
 800232e:	21be      	movs	r1, #190	; 0xbe
 8002330:	0030      	movs	r0, r6
 8002332:	9702      	str	r7, [sp, #8]
 8002334:	9501      	str	r5, [sp, #4]
 8002336:	f001 f815 	bl	8003364 <HAL_I2C_Mem_Read>
 800233a:	2800      	cmp	r0, #0
 800233c:	d19e      	bne.n	800227c <hts221_init+0x28>
 800233e:	2317      	movs	r3, #23
 8002340:	aa06      	add	r2, sp, #24
 8002342:	189b      	adds	r3, r3, r2
 8002344:	9300      	str	r3, [sp, #0]
 8002346:	2236      	movs	r2, #54	; 0x36
 8002348:	002b      	movs	r3, r5
 800234a:	21be      	movs	r1, #190	; 0xbe
 800234c:	0030      	movs	r0, r6
 800234e:	9702      	str	r7, [sp, #8]
 8002350:	9501      	str	r5, [sp, #4]
 8002352:	f001 f807 	bl	8003364 <HAL_I2C_Mem_Read>
 8002356:	2800      	cmp	r0, #0
 8002358:	d000      	beq.n	800235c <hts221_init+0x108>
 800235a:	e78f      	b.n	800227c <hts221_init+0x28>
 800235c:	ab0c      	add	r3, sp, #48	; 0x30
 800235e:	9300      	str	r3, [sp, #0]
 8002360:	2237      	movs	r2, #55	; 0x37
 8002362:	002b      	movs	r3, r5
 8002364:	21be      	movs	r1, #190	; 0xbe
 8002366:	0030      	movs	r0, r6
 8002368:	9702      	str	r7, [sp, #8]
 800236a:	9501      	str	r5, [sp, #4]
 800236c:	f000 fffa 	bl	8003364 <HAL_I2C_Mem_Read>
 8002370:	2800      	cmp	r0, #0
 8002372:	d000      	beq.n	8002376 <hts221_init+0x122>
 8002374:	e782      	b.n	800227c <hts221_init+0x28>
 8002376:	2701      	movs	r7, #1
 8002378:	2319      	movs	r3, #25
 800237a:	2501      	movs	r5, #1
 800237c:	aa06      	add	r2, sp, #24
 800237e:	189b      	adds	r3, r3, r2
 8002380:	427f      	negs	r7, r7
 8002382:	9300      	str	r3, [sp, #0]
 8002384:	223a      	movs	r2, #58	; 0x3a
 8002386:	002b      	movs	r3, r5
 8002388:	21be      	movs	r1, #190	; 0xbe
 800238a:	0030      	movs	r0, r6
 800238c:	9702      	str	r7, [sp, #8]
 800238e:	9501      	str	r5, [sp, #4]
 8002390:	f000 ffe8 	bl	8003364 <HAL_I2C_Mem_Read>
 8002394:	2800      	cmp	r0, #0
 8002396:	d000      	beq.n	800239a <hts221_init+0x146>
 8002398:	e770      	b.n	800227c <hts221_init+0x28>
 800239a:	231a      	movs	r3, #26
 800239c:	aa06      	add	r2, sp, #24
 800239e:	189b      	adds	r3, r3, r2
 80023a0:	9300      	str	r3, [sp, #0]
 80023a2:	223b      	movs	r2, #59	; 0x3b
 80023a4:	002b      	movs	r3, r5
 80023a6:	21be      	movs	r1, #190	; 0xbe
 80023a8:	0030      	movs	r0, r6
 80023aa:	9702      	str	r7, [sp, #8]
 80023ac:	9501      	str	r5, [sp, #4]
 80023ae:	f000 ffd9 	bl	8003364 <HAL_I2C_Mem_Read>
 80023b2:	2800      	cmp	r0, #0
 80023b4:	d000      	beq.n	80023b8 <hts221_init+0x164>
 80023b6:	e761      	b.n	800227c <hts221_init+0x28>
 80023b8:	231b      	movs	r3, #27
 80023ba:	aa06      	add	r2, sp, #24
 80023bc:	189b      	adds	r3, r3, r2
 80023be:	9300      	str	r3, [sp, #0]
 80023c0:	2230      	movs	r2, #48	; 0x30
 80023c2:	002b      	movs	r3, r5
 80023c4:	21be      	movs	r1, #190	; 0xbe
 80023c6:	0030      	movs	r0, r6
 80023c8:	9702      	str	r7, [sp, #8]
 80023ca:	9501      	str	r5, [sp, #4]
 80023cc:	f000 ffca 	bl	8003364 <HAL_I2C_Mem_Read>
 80023d0:	2800      	cmp	r0, #0
 80023d2:	d000      	beq.n	80023d6 <hts221_init+0x182>
 80023d4:	e752      	b.n	800227c <hts221_init+0x28>
 80023d6:	ab0d      	add	r3, sp, #52	; 0x34
 80023d8:	9300      	str	r3, [sp, #0]
 80023da:	2231      	movs	r2, #49	; 0x31
 80023dc:	002b      	movs	r3, r5
 80023de:	21be      	movs	r1, #190	; 0xbe
 80023e0:	0030      	movs	r0, r6
 80023e2:	9702      	str	r7, [sp, #8]
 80023e4:	9501      	str	r5, [sp, #4]
 80023e6:	f000 ffbd 	bl	8003364 <HAL_I2C_Mem_Read>
 80023ea:	2800      	cmp	r0, #0
 80023ec:	d000      	beq.n	80023f0 <hts221_init+0x19c>
 80023ee:	e745      	b.n	800227c <hts221_init+0x28>
 80023f0:	7920      	ldrb	r0, [r4, #4]
 80023f2:	78e7      	ldrb	r7, [r4, #3]
 80023f4:	79a3      	ldrb	r3, [r4, #6]
 80023f6:	0200      	lsls	r0, r0, #8
 80023f8:	4307      	orrs	r7, r0
 80023fa:	7960      	ldrb	r0, [r4, #5]
 80023fc:	021b      	lsls	r3, r3, #8
 80023fe:	4318      	orrs	r0, r3
 8002400:	b203      	sxth	r3, r0
 8002402:	9307      	str	r3, [sp, #28]
 8002404:	7ae3      	ldrb	r3, [r4, #11]
 8002406:	7826      	ldrb	r6, [r4, #0]
 8002408:	40eb      	lsrs	r3, r5
 800240a:	25c0      	movs	r5, #192	; 0xc0
 800240c:	9305      	str	r3, [sp, #20]
 800240e:	7b20      	ldrb	r0, [r4, #12]
 8002410:	00ad      	lsls	r5, r5, #2
 8002412:	0843      	lsrs	r3, r0, #1
 8002414:	9308      	str	r3, [sp, #32]
 8002416:	7a23      	ldrb	r3, [r4, #8]
 8002418:	79e0      	ldrb	r0, [r4, #7]
 800241a:	021b      	lsls	r3, r3, #8
 800241c:	4318      	orrs	r0, r3
 800241e:	b203      	sxth	r3, r0
 8002420:	9306      	str	r3, [sp, #24]
 8002422:	7aa3      	ldrb	r3, [r4, #10]
 8002424:	7a60      	ldrb	r0, [r4, #9]
 8002426:	021b      	lsls	r3, r3, #8
 8002428:	4318      	orrs	r0, r3
 800242a:	b203      	sxth	r3, r0
 800242c:	9309      	str	r3, [sp, #36]	; 0x24
 800242e:	78a3      	ldrb	r3, [r4, #2]
 8002430:	2018      	movs	r0, #24
 8002432:	021a      	lsls	r2, r3, #8
 8002434:	019b      	lsls	r3, r3, #6
 8002436:	402a      	ands	r2, r5
 8002438:	402b      	ands	r3, r5
 800243a:	7865      	ldrb	r5, [r4, #1]
 800243c:	08f6      	lsrs	r6, r6, #3
 800243e:	08ed      	lsrs	r5, r5, #3
 8002440:	4316      	orrs	r6, r2
 8002442:	431d      	orrs	r5, r3
 8002444:	f002 f92a 	bl	800469c <malloc>
 8002448:	b23f      	sxth	r7, r7
 800244a:	0004      	movs	r4, r0
 800244c:	6007      	str	r7, [r0, #0]
 800244e:	1ba8      	subs	r0, r5, r6
 8002450:	f7fe fbf0 	bl	8000c34 <__aeabi_i2f>
 8002454:	9b07      	ldr	r3, [sp, #28]
 8002456:	1c05      	adds	r5, r0, #0
 8002458:	1bd8      	subs	r0, r3, r7
 800245a:	f7fe fbeb 	bl	8000c34 <__aeabi_i2f>
 800245e:	1c01      	adds	r1, r0, #0
 8002460:	1c28      	adds	r0, r5, #0
 8002462:	f7fe f9a1 	bl	80007a8 <__aeabi_fdiv>
 8002466:	9b06      	ldr	r3, [sp, #24]
 8002468:	9a05      	ldr	r2, [sp, #20]
 800246a:	60e3      	str	r3, [r4, #12]
 800246c:	9b08      	ldr	r3, [sp, #32]
 800246e:	6060      	str	r0, [r4, #4]
 8002470:	60a6      	str	r6, [r4, #8]
 8002472:	1a98      	subs	r0, r3, r2
 8002474:	f7fe fbde 	bl	8000c34 <__aeabi_i2f>
 8002478:	9b09      	ldr	r3, [sp, #36]	; 0x24
 800247a:	9a06      	ldr	r2, [sp, #24]
 800247c:	1c05      	adds	r5, r0, #0
 800247e:	1a98      	subs	r0, r3, r2
 8002480:	f7fe fbd8 	bl	8000c34 <__aeabi_i2f>
 8002484:	1c01      	adds	r1, r0, #0
 8002486:	1c28      	adds	r0, r5, #0
 8002488:	f7fe f98e 	bl	80007a8 <__aeabi_fdiv>
 800248c:	9b05      	ldr	r3, [sp, #20]
 800248e:	6120      	str	r0, [r4, #16]
 8002490:	6163      	str	r3, [r4, #20]
 8002492:	e6f4      	b.n	800227e <hts221_init+0x2a>
 8002494:	20000098 	.word	0x20000098

08002498 <hts221_calc_temp>:
 8002498:	b570      	push	{r4, r5, r6, lr}
 800249a:	000c      	movs	r4, r1
 800249c:	680b      	ldr	r3, [r1, #0]
 800249e:	1ac0      	subs	r0, r0, r3
 80024a0:	f7fe fbc8 	bl	8000c34 <__aeabi_i2f>
 80024a4:	6861      	ldr	r1, [r4, #4]
 80024a6:	f7fe fa8b 	bl	80009c0 <__aeabi_fmul>
 80024aa:	1c05      	adds	r5, r0, #0
 80024ac:	68a0      	ldr	r0, [r4, #8]
 80024ae:	f7fe fbc1 	bl	8000c34 <__aeabi_i2f>
 80024b2:	1c01      	adds	r1, r0, #0
 80024b4:	1c28      	adds	r0, r5, #0
 80024b6:	f7fd ffdb 	bl	8000470 <__aeabi_fadd>
 80024ba:	f7fe fb9b 	bl	8000bf4 <__aeabi_f2iz>
 80024be:	bd70      	pop	{r4, r5, r6, pc}

080024c0 <hts221_get_temp>:
 80024c0:	b5f0      	push	{r4, r5, r6, r7, lr}
 80024c2:	2701      	movs	r7, #1
 80024c4:	2401      	movs	r4, #1
 80024c6:	b089      	sub	sp, #36	; 0x24
 80024c8:	4e2c      	ldr	r6, [pc, #176]	; (800257c <hts221_get_temp+0xbc>)
 80024ca:	ad07      	add	r5, sp, #28
 80024cc:	427f      	negs	r7, r7
 80024ce:	702c      	strb	r4, [r5, #0]
 80024d0:	9004      	str	r0, [sp, #16]
 80024d2:	9105      	str	r1, [sp, #20]
 80024d4:	0023      	movs	r3, r4
 80024d6:	2221      	movs	r2, #33	; 0x21
 80024d8:	21be      	movs	r1, #190	; 0xbe
 80024da:	0030      	movs	r0, r6
 80024dc:	9702      	str	r7, [sp, #8]
 80024de:	9401      	str	r4, [sp, #4]
 80024e0:	9500      	str	r5, [sp, #0]
 80024e2:	f000 fe85 	bl	80031f0 <HAL_I2C_Mem_Write>
 80024e6:	2800      	cmp	r0, #0
 80024e8:	d002      	beq.n	80024f0 <hts221_get_temp+0x30>
 80024ea:	4825      	ldr	r0, [pc, #148]	; (8002580 <hts221_get_temp+0xc0>)
 80024ec:	b009      	add	sp, #36	; 0x24
 80024ee:	bdf0      	pop	{r4, r5, r6, r7, pc}
 80024f0:	0023      	movs	r3, r4
 80024f2:	2227      	movs	r2, #39	; 0x27
 80024f4:	21be      	movs	r1, #190	; 0xbe
 80024f6:	0030      	movs	r0, r6
 80024f8:	9702      	str	r7, [sp, #8]
 80024fa:	9401      	str	r4, [sp, #4]
 80024fc:	9500      	str	r5, [sp, #0]
 80024fe:	f000 ff31 	bl	8003364 <HAL_I2C_Mem_Read>
 8002502:	2800      	cmp	r0, #0
 8002504:	d1f1      	bne.n	80024ea <hts221_get_temp+0x2a>
 8002506:	782b      	ldrb	r3, [r5, #0]
 8002508:	4223      	tst	r3, r4
 800250a:	d0ee      	beq.n	80024ea <hts221_get_temp+0x2a>
 800250c:	2315      	movs	r3, #21
 800250e:	aa02      	add	r2, sp, #8
 8002510:	189b      	adds	r3, r3, r2
 8002512:	9300      	str	r3, [sp, #0]
 8002514:	222a      	movs	r2, #42	; 0x2a
 8002516:	0023      	movs	r3, r4
 8002518:	21be      	movs	r1, #190	; 0xbe
 800251a:	0030      	movs	r0, r6
 800251c:	9702      	str	r7, [sp, #8]
 800251e:	9401      	str	r4, [sp, #4]
 8002520:	f000 ff20 	bl	8003364 <HAL_I2C_Mem_Read>
 8002524:	2800      	cmp	r0, #0
 8002526:	d1e0      	bne.n	80024ea <hts221_get_temp+0x2a>
 8002528:	2316      	movs	r3, #22
 800252a:	aa02      	add	r2, sp, #8
 800252c:	189b      	adds	r3, r3, r2
 800252e:	9300      	str	r3, [sp, #0]
 8002530:	222b      	movs	r2, #43	; 0x2b
 8002532:	0023      	movs	r3, r4
 8002534:	21be      	movs	r1, #190	; 0xbe
 8002536:	0030      	movs	r0, r6
 8002538:	9702      	str	r7, [sp, #8]
 800253a:	9401      	str	r4, [sp, #4]
 800253c:	f000 ff12 	bl	8003364 <HAL_I2C_Mem_Read>
 8002540:	2800      	cmp	r0, #0
 8002542:	d1d2      	bne.n	80024ea <hts221_get_temp+0x2a>
 8002544:	78ab      	ldrb	r3, [r5, #2]
 8002546:	7868      	ldrb	r0, [r5, #1]
 8002548:	021b      	lsls	r3, r3, #8
 800254a:	4318      	orrs	r0, r3
 800254c:	9905      	ldr	r1, [sp, #20]
 800254e:	b200      	sxth	r0, r0
 8002550:	f7ff ffa2 	bl	8002498 <hts221_calc_temp>
 8002554:	9b04      	ldr	r3, [sp, #16]
 8002556:	2b46      	cmp	r3, #70	; 0x46
 8002558:	d1c8      	bne.n	80024ec <hts221_get_temp+0x2c>
 800255a:	f7ff fca5 	bl	8001ea8 <__aeabi_i2d>
 800255e:	2200      	movs	r2, #0
 8002560:	4b08      	ldr	r3, [pc, #32]	; (8002584 <hts221_get_temp+0xc4>)
 8002562:	f7ff f9ff 	bl	8001964 <__aeabi_dmul>
 8002566:	2200      	movs	r2, #0
 8002568:	4b07      	ldr	r3, [pc, #28]	; (8002588 <hts221_get_temp+0xc8>)
 800256a:	f7fe ff13 	bl	8001394 <__aeabi_ddiv>
 800256e:	2200      	movs	r2, #0
 8002570:	4b06      	ldr	r3, [pc, #24]	; (800258c <hts221_get_temp+0xcc>)
 8002572:	f7fe fba5 	bl	8000cc0 <__aeabi_dadd>
 8002576:	f7ff fc61 	bl	8001e3c <__aeabi_d2iz>
 800257a:	e7b7      	b.n	80024ec <hts221_get_temp+0x2c>
 800257c:	20000098 	.word	0x20000098
 8002580:	fffffe34 	.word	0xfffffe34
 8002584:	40220000 	.word	0x40220000
 8002588:	40140000 	.word	0x40140000
 800258c:	40400000 	.word	0x40400000

08002590 <hts221_calc_humid>:
 8002590:	b570      	push	{r4, r5, r6, lr}
 8002592:	000c      	movs	r4, r1
 8002594:	68cb      	ldr	r3, [r1, #12]
 8002596:	1ac0      	subs	r0, r0, r3
 8002598:	f7fe fb4c 	bl	8000c34 <__aeabi_i2f>
 800259c:	6921      	ldr	r1, [r4, #16]
 800259e:	f7fe fa0f 	bl	80009c0 <__aeabi_fmul>
 80025a2:	1c05      	adds	r5, r0, #0
 80025a4:	6960      	ldr	r0, [r4, #20]
 80025a6:	f7fe fb45 	bl	8000c34 <__aeabi_i2f>
 80025aa:	1c01      	adds	r1, r0, #0
 80025ac:	1c28      	adds	r0, r5, #0
 80025ae:	f7fd ff5f 	bl	8000470 <__aeabi_fadd>
 80025b2:	f7fe fb1f 	bl	8000bf4 <__aeabi_f2iz>
 80025b6:	bd70      	pop	{r4, r5, r6, pc}

080025b8 <hts221_get_humid>:
 80025b8:	b5f0      	push	{r4, r5, r6, r7, lr}
 80025ba:	2701      	movs	r7, #1
 80025bc:	2401      	movs	r4, #1
 80025be:	b089      	sub	sp, #36	; 0x24
 80025c0:	4e23      	ldr	r6, [pc, #140]	; (8002650 <hts221_get_humid+0x98>)
 80025c2:	ad07      	add	r5, sp, #28
 80025c4:	427f      	negs	r7, r7
 80025c6:	702c      	strb	r4, [r5, #0]
 80025c8:	9005      	str	r0, [sp, #20]
 80025ca:	0023      	movs	r3, r4
 80025cc:	2221      	movs	r2, #33	; 0x21
 80025ce:	21be      	movs	r1, #190	; 0xbe
 80025d0:	0030      	movs	r0, r6
 80025d2:	9702      	str	r7, [sp, #8]
 80025d4:	9401      	str	r4, [sp, #4]
 80025d6:	9500      	str	r5, [sp, #0]
 80025d8:	f000 fe0a 	bl	80031f0 <HAL_I2C_Mem_Write>
 80025dc:	2800      	cmp	r0, #0
 80025de:	d003      	beq.n	80025e8 <hts221_get_humid+0x30>
 80025e0:	2001      	movs	r0, #1
 80025e2:	4240      	negs	r0, r0
 80025e4:	b009      	add	sp, #36	; 0x24
 80025e6:	bdf0      	pop	{r4, r5, r6, r7, pc}
 80025e8:	0023      	movs	r3, r4
 80025ea:	2227      	movs	r2, #39	; 0x27
 80025ec:	21be      	movs	r1, #190	; 0xbe
 80025ee:	0030      	movs	r0, r6
 80025f0:	9702      	str	r7, [sp, #8]
 80025f2:	9401      	str	r4, [sp, #4]
 80025f4:	9500      	str	r5, [sp, #0]
 80025f6:	f000 feb5 	bl	8003364 <HAL_I2C_Mem_Read>
 80025fa:	2800      	cmp	r0, #0
 80025fc:	d1f0      	bne.n	80025e0 <hts221_get_humid+0x28>
 80025fe:	782b      	ldrb	r3, [r5, #0]
 8002600:	079b      	lsls	r3, r3, #30
 8002602:	d5ed      	bpl.n	80025e0 <hts221_get_humid+0x28>
 8002604:	2315      	movs	r3, #21
 8002606:	aa02      	add	r2, sp, #8
 8002608:	189b      	adds	r3, r3, r2
 800260a:	9300      	str	r3, [sp, #0]
 800260c:	2228      	movs	r2, #40	; 0x28
 800260e:	0023      	movs	r3, r4
 8002610:	21be      	movs	r1, #190	; 0xbe
 8002612:	0030      	movs	r0, r6
 8002614:	9702      	str	r7, [sp, #8]
 8002616:	9401      	str	r4, [sp, #4]
 8002618:	f000 fea4 	bl	8003364 <HAL_I2C_Mem_Read>
 800261c:	2800      	cmp	r0, #0
 800261e:	d1df      	bne.n	80025e0 <hts221_get_humid+0x28>
 8002620:	2316      	movs	r3, #22
 8002622:	aa02      	add	r2, sp, #8
 8002624:	189b      	adds	r3, r3, r2
 8002626:	9300      	str	r3, [sp, #0]
 8002628:	2229      	movs	r2, #41	; 0x29
 800262a:	0023      	movs	r3, r4
 800262c:	21be      	movs	r1, #190	; 0xbe
 800262e:	0030      	movs	r0, r6
 8002630:	9702      	str	r7, [sp, #8]
 8002632:	9401      	str	r4, [sp, #4]
 8002634:	f000 fe96 	bl	8003364 <HAL_I2C_Mem_Read>
 8002638:	2800      	cmp	r0, #0
 800263a:	d1d1      	bne.n	80025e0 <hts221_get_humid+0x28>
 800263c:	78ab      	ldrb	r3, [r5, #2]
 800263e:	7868      	ldrb	r0, [r5, #1]
 8002640:	021b      	lsls	r3, r3, #8
 8002642:	4318      	orrs	r0, r3
 8002644:	9905      	ldr	r1, [sp, #20]
 8002646:	b200      	sxth	r0, r0
 8002648:	f7ff ffa2 	bl	8002590 <hts221_calc_humid>
 800264c:	e7ca      	b.n	80025e4 <hts221_get_humid+0x2c>
 800264e:	46c0      	nop			; (mov r8, r8)
 8002650:	20000098 	.word	0x20000098

08002654 <MX_I2C1_Init>:
 8002654:	b510      	push	{r4, lr}
 8002656:	4b13      	ldr	r3, [pc, #76]	; (80026a4 <MX_I2C1_Init+0x50>)
 8002658:	4c13      	ldr	r4, [pc, #76]	; (80026a8 <MX_I2C1_Init+0x54>)
 800265a:	2201      	movs	r2, #1
 800265c:	6023      	str	r3, [r4, #0]
 800265e:	23e1      	movs	r3, #225	; 0xe1
 8002660:	00db      	lsls	r3, r3, #3
 8002662:	6063      	str	r3, [r4, #4]
 8002664:	2300      	movs	r3, #0
 8002666:	0020      	movs	r0, r4
 8002668:	60a3      	str	r3, [r4, #8]
 800266a:	60e2      	str	r2, [r4, #12]
 800266c:	6123      	str	r3, [r4, #16]
 800266e:	6163      	str	r3, [r4, #20]
 8002670:	61a3      	str	r3, [r4, #24]
 8002672:	61e3      	str	r3, [r4, #28]
 8002674:	6223      	str	r3, [r4, #32]
 8002676:	f000 fd65 	bl	8003144 <HAL_I2C_Init>
 800267a:	2800      	cmp	r0, #0
 800267c:	d001      	beq.n	8002682 <MX_I2C1_Init+0x2e>
 800267e:	f000 f8bf 	bl	8002800 <Error_Handler>
 8002682:	2100      	movs	r1, #0
 8002684:	0020      	movs	r0, r4
 8002686:	f000 ff31 	bl	80034ec <HAL_I2CEx_ConfigAnalogFilter>
 800268a:	2800      	cmp	r0, #0
 800268c:	d001      	beq.n	8002692 <MX_I2C1_Init+0x3e>
 800268e:	f000 f8b7 	bl	8002800 <Error_Handler>
 8002692:	2100      	movs	r1, #0
 8002694:	0020      	movs	r0, r4
 8002696:	f000 ff4f 	bl	8003538 <HAL_I2CEx_ConfigDigitalFilter>
 800269a:	2800      	cmp	r0, #0
 800269c:	d001      	beq.n	80026a2 <MX_I2C1_Init+0x4e>
 800269e:	f000 f8af 	bl	8002800 <Error_Handler>
 80026a2:	bd10      	pop	{r4, pc}
 80026a4:	40005400 	.word	0x40005400
 80026a8:	20000098 	.word	0x20000098

080026ac <HAL_I2C_MspInit>:
 80026ac:	b510      	push	{r4, lr}
 80026ae:	0004      	movs	r4, r0
 80026b0:	b086      	sub	sp, #24
 80026b2:	2214      	movs	r2, #20
 80026b4:	2100      	movs	r1, #0
 80026b6:	a801      	add	r0, sp, #4
 80026b8:	f001 fffa 	bl	80046b0 <memset>
 80026bc:	4b10      	ldr	r3, [pc, #64]	; (8002700 <HAL_I2C_MspInit+0x54>)
 80026be:	6822      	ldr	r2, [r4, #0]
 80026c0:	429a      	cmp	r2, r3
 80026c2:	d11a      	bne.n	80026fa <HAL_I2C_MspInit+0x4e>
 80026c4:	2102      	movs	r1, #2
 80026c6:	4c0f      	ldr	r4, [pc, #60]	; (8002704 <HAL_I2C_MspInit+0x58>)
 80026c8:	480f      	ldr	r0, [pc, #60]	; (8002708 <HAL_I2C_MspInit+0x5c>)
 80026ca:	6ae2      	ldr	r2, [r4, #44]	; 0x2c
 80026cc:	430a      	orrs	r2, r1
 80026ce:	62e2      	str	r2, [r4, #44]	; 0x2c
 80026d0:	6ae3      	ldr	r3, [r4, #44]	; 0x2c
 80026d2:	2203      	movs	r2, #3
 80026d4:	400b      	ands	r3, r1
 80026d6:	9300      	str	r3, [sp, #0]
 80026d8:	9b00      	ldr	r3, [sp, #0]
 80026da:	23c0      	movs	r3, #192	; 0xc0
 80026dc:	9301      	str	r3, [sp, #4]
 80026de:	3bae      	subs	r3, #174	; 0xae
 80026e0:	9302      	str	r3, [sp, #8]
 80026e2:	a901      	add	r1, sp, #4
 80026e4:	3b11      	subs	r3, #17
 80026e6:	9303      	str	r3, [sp, #12]
 80026e8:	9204      	str	r2, [sp, #16]
 80026ea:	9305      	str	r3, [sp, #20]
 80026ec:	f000 fb30 	bl	8002d50 <HAL_GPIO_Init>
 80026f0:	2380      	movs	r3, #128	; 0x80
 80026f2:	6ba2      	ldr	r2, [r4, #56]	; 0x38
 80026f4:	039b      	lsls	r3, r3, #14
 80026f6:	4313      	orrs	r3, r2
 80026f8:	63a3      	str	r3, [r4, #56]	; 0x38
 80026fa:	b006      	add	sp, #24
 80026fc:	bd10      	pop	{r4, pc}
 80026fe:	46c0      	nop			; (mov r8, r8)
 8002700:	40005400 	.word	0x40005400
 8002704:	40021000 	.word	0x40021000
 8002708:	50000400 	.word	0x50000400

0800270c <__io_putchar>:
 800270c:	b507      	push	{r0, r1, r2, lr}
 800270e:	4b04      	ldr	r3, [pc, #16]	; (8002720 <__io_putchar+0x14>)
 8002710:	9001      	str	r0, [sp, #4]
 8002712:	2201      	movs	r2, #1
 8002714:	4803      	ldr	r0, [pc, #12]	; (8002724 <__io_putchar+0x18>)
 8002716:	a901      	add	r1, sp, #4
 8002718:	f001 fec0 	bl	800449c <HAL_UART_Transmit>
 800271c:	9801      	ldr	r0, [sp, #4]
 800271e:	bd0e      	pop	{r1, r2, r3, pc}
 8002720:	0000ffff 	.word	0x0000ffff
 8002724:	2000012c 	.word	0x2000012c

08002728 <SystemClock_Config>:
 8002728:	b500      	push	{lr}
 800272a:	b09d      	sub	sp, #116	; 0x74
 800272c:	2234      	movs	r2, #52	; 0x34
 800272e:	2100      	movs	r1, #0
 8002730:	a80f      	add	r0, sp, #60	; 0x3c
 8002732:	f001 ffbd 	bl	80046b0 <memset>
 8002736:	2214      	movs	r2, #20
 8002738:	2100      	movs	r1, #0
 800273a:	4668      	mov	r0, sp
 800273c:	f001 ffb8 	bl	80046b0 <memset>
 8002740:	2224      	movs	r2, #36	; 0x24
 8002742:	2100      	movs	r1, #0
 8002744:	a805      	add	r0, sp, #20
 8002746:	f001 ffb3 	bl	80046b0 <memset>
 800274a:	4919      	ldr	r1, [pc, #100]	; (80027b0 <SystemClock_Config+0x88>)
 800274c:	4a19      	ldr	r2, [pc, #100]	; (80027b4 <SystemClock_Config+0x8c>)
 800274e:	680b      	ldr	r3, [r1, #0]
 8002750:	a80e      	add	r0, sp, #56	; 0x38
 8002752:	401a      	ands	r2, r3
 8002754:	2380      	movs	r3, #128	; 0x80
 8002756:	011b      	lsls	r3, r3, #4
 8002758:	4313      	orrs	r3, r2
 800275a:	600b      	str	r3, [r1, #0]
 800275c:	2310      	movs	r3, #16
 800275e:	22a0      	movs	r2, #160	; 0xa0
 8002760:	930e      	str	r3, [sp, #56]	; 0x38
 8002762:	3b0f      	subs	r3, #15
 8002764:	9315      	str	r3, [sp, #84]	; 0x54
 8002766:	2300      	movs	r3, #0
 8002768:	0212      	lsls	r2, r2, #8
 800276a:	9316      	str	r3, [sp, #88]	; 0x58
 800276c:	9217      	str	r2, [sp, #92]	; 0x5c
 800276e:	9318      	str	r3, [sp, #96]	; 0x60
 8002770:	f000 ff4e 	bl	8003610 <HAL_RCC_OscConfig>
 8002774:	1e01      	subs	r1, r0, #0
 8002776:	d001      	beq.n	800277c <SystemClock_Config+0x54>
 8002778:	b672      	cpsid	i
 800277a:	e7fe      	b.n	800277a <SystemClock_Config+0x52>
 800277c:	230f      	movs	r3, #15
 800277e:	9001      	str	r0, [sp, #4]
 8002780:	9002      	str	r0, [sp, #8]
 8002782:	9003      	str	r0, [sp, #12]
 8002784:	9004      	str	r0, [sp, #16]
 8002786:	4668      	mov	r0, sp
 8002788:	9300      	str	r3, [sp, #0]
 800278a:	f001 f9c5 	bl	8003b18 <HAL_RCC_ClockConfig>
 800278e:	2800      	cmp	r0, #0
 8002790:	d001      	beq.n	8002796 <SystemClock_Config+0x6e>
 8002792:	b672      	cpsid	i
 8002794:	e7fe      	b.n	8002794 <SystemClock_Config+0x6c>
 8002796:	2309      	movs	r3, #9
 8002798:	9008      	str	r0, [sp, #32]
 800279a:	900b      	str	r0, [sp, #44]	; 0x2c
 800279c:	a805      	add	r0, sp, #20
 800279e:	9305      	str	r3, [sp, #20]
 80027a0:	f001 faa8 	bl	8003cf4 <HAL_RCCEx_PeriphCLKConfig>
 80027a4:	2800      	cmp	r0, #0
 80027a6:	d001      	beq.n	80027ac <SystemClock_Config+0x84>
 80027a8:	b672      	cpsid	i
 80027aa:	e7fe      	b.n	80027aa <SystemClock_Config+0x82>
 80027ac:	b01d      	add	sp, #116	; 0x74
 80027ae:	bd00      	pop	{pc}
 80027b0:	40007000 	.word	0x40007000
 80027b4:	ffffe7ff 	.word	0xffffe7ff

080027b8 <main>:
 80027b8:	b510      	push	{r4, lr}
 80027ba:	f000 fa53 	bl	8002c64 <HAL_Init>
 80027be:	f7ff ffb3 	bl	8002728 <SystemClock_Config>
 80027c2:	f7ff fd31 	bl	8002228 <MX_GPIO_Init>
 80027c6:	f7ff ff45 	bl	8002654 <MX_I2C1_Init>
 80027ca:	f000 f959 	bl	8002a80 <MX_USART1_UART_Init>
 80027ce:	f000 f915 	bl	80029fc <MX_TIM6_Init>
 80027d2:	4807      	ldr	r0, [pc, #28]	; (80027f0 <main+0x38>)
 80027d4:	f002 f8a8 	bl	8004928 <puts>
 80027d8:	f7ff fd3c 	bl	8002254 <hts221_init>
 80027dc:	4b05      	ldr	r3, [pc, #20]	; (80027f4 <main+0x3c>)
 80027de:	6018      	str	r0, [r3, #0]
 80027e0:	f7ff fd10 	bl	8002204 <bq_init>
 80027e4:	4b04      	ldr	r3, [pc, #16]	; (80027f8 <main+0x40>)
 80027e6:	6018      	str	r0, [r3, #0]
 80027e8:	4804      	ldr	r0, [pc, #16]	; (80027fc <main+0x44>)
 80027ea:	f001 fbb5 	bl	8003f58 <HAL_TIM_Base_Start_IT>
 80027ee:	e7fe      	b.n	80027ee <main+0x36>
 80027f0:	0800584c 	.word	0x0800584c
 80027f4:	200000e4 	.word	0x200000e4
 80027f8:	200000e8 	.word	0x200000e8
 80027fc:	200000ec 	.word	0x200000ec

08002800 <Error_Handler>:
 8002800:	b672      	cpsid	i
 8002802:	e7fe      	b.n	8002802 <Error_Handler+0x2>

08002804 <HAL_MspInit>:
 8002804:	2201      	movs	r2, #1
 8002806:	4b05      	ldr	r3, [pc, #20]	; (800281c <HAL_MspInit+0x18>)
 8002808:	6b59      	ldr	r1, [r3, #52]	; 0x34
 800280a:	430a      	orrs	r2, r1
 800280c:	635a      	str	r2, [r3, #52]	; 0x34
 800280e:	2280      	movs	r2, #128	; 0x80
 8002810:	6b99      	ldr	r1, [r3, #56]	; 0x38
 8002812:	0552      	lsls	r2, r2, #21
 8002814:	430a      	orrs	r2, r1
 8002816:	639a      	str	r2, [r3, #56]	; 0x38
 8002818:	4770      	bx	lr
 800281a:	46c0      	nop			; (mov r8, r8)
 800281c:	40021000 	.word	0x40021000

08002820 <NMI_Handler>:
 8002820:	e7fe      	b.n	8002820 <NMI_Handler>

08002822 <HardFault_Handler>:
 8002822:	e7fe      	b.n	8002822 <HardFault_Handler>

08002824 <SVC_Handler>:
 8002824:	4770      	bx	lr

08002826 <PendSV_Handler>:
 8002826:	4770      	bx	lr

08002828 <SysTick_Handler>:
 8002828:	b510      	push	{r4, lr}
 800282a:	f000 fa2f 	bl	8002c8c <HAL_IncTick>
 800282e:	bd10      	pop	{r4, pc}

08002830 <TIM6_DAC_IRQHandler>:
 8002830:	b5f0      	push	{r4, r5, r6, r7, lr}
 8002832:	483d      	ldr	r0, [pc, #244]	; (8002928 <TIM6_DAC_IRQHandler+0xf8>)
 8002834:	b087      	sub	sp, #28
 8002836:	f001 fbc0 	bl	8003fba <HAL_TIM_IRQHandler>
 800283a:	4c3c      	ldr	r4, [pc, #240]	; (800292c <TIM6_DAC_IRQHandler+0xfc>)
 800283c:	6823      	ldr	r3, [r4, #0]
 800283e:	2b00      	cmp	r3, #0
 8002840:	d068      	beq.n	8002914 <TIM6_DAC_IRQHandler+0xe4>
 8002842:	f000 f9a9 	bl	8002b98 <VCNL4010_readProximity>
 8002846:	0001      	movs	r1, r0
 8002848:	4839      	ldr	r0, [pc, #228]	; (8002930 <TIM6_DAC_IRQHandler+0x100>)
 800284a:	f001 ffe1 	bl	8004810 <iprintf>
 800284e:	6821      	ldr	r1, [r4, #0]
 8002850:	2043      	movs	r0, #67	; 0x43
 8002852:	f7ff fe35 	bl	80024c0 <hts221_get_temp>
 8002856:	4b37      	ldr	r3, [pc, #220]	; (8002934 <TIM6_DAC_IRQHandler+0x104>)
 8002858:	0001      	movs	r1, r0
 800285a:	4298      	cmp	r0, r3
 800285c:	d15c      	bne.n	8002918 <TIM6_DAC_IRQHandler+0xe8>
 800285e:	4836      	ldr	r0, [pc, #216]	; (8002938 <TIM6_DAC_IRQHandler+0x108>)
 8002860:	f002 f862 	bl	8004928 <puts>
 8002864:	6820      	ldr	r0, [r4, #0]
 8002866:	f7ff fea7 	bl	80025b8 <hts221_get_humid>
 800286a:	0001      	movs	r1, r0
 800286c:	1c43      	adds	r3, r0, #1
 800286e:	d157      	bne.n	8002920 <TIM6_DAC_IRQHandler+0xf0>
 8002870:	4832      	ldr	r0, [pc, #200]	; (800293c <TIM6_DAC_IRQHandler+0x10c>)
 8002872:	f002 f859 	bl	8004928 <puts>
 8002876:	f7ff fb89 	bl	8001f8c <BQ27441_voltage>
 800287a:	0006      	movs	r6, r0
 800287c:	2000      	movs	r0, #0
 800287e:	f7ff fbc3 	bl	8002008 <BQ27441_soc>
 8002882:	0007      	movs	r7, r0
 8002884:	2000      	movs	r0, #0
 8002886:	f7ff fb86 	bl	8001f96 <BQ27441_current>
 800288a:	9001      	str	r0, [sp, #4]
 800288c:	2000      	movs	r0, #0
 800288e:	f7ff fb94 	bl	8001fba <BQ27441_capacity>
 8002892:	9002      	str	r0, [sp, #8]
 8002894:	2008      	movs	r0, #8
 8002896:	f7ff fb90 	bl	8001fba <BQ27441_capacity>
 800289a:	0005      	movs	r5, r0
 800289c:	f7ff fbae 	bl	8001ffc <BQ27441_power>
 80028a0:	9003      	str	r0, [sp, #12]
 80028a2:	2000      	movs	r0, #0
 80028a4:	f7ff fbbd 	bl	8002022 <BQ27441_soh>
 80028a8:	9004      	str	r0, [sp, #16]
 80028aa:	2000      	movs	r0, #0
 80028ac:	f7ff fbc4 	bl	8002038 <BQ27441_temperature>
 80028b0:	9005      	str	r0, [sp, #20]
 80028b2:	2001      	movs	r0, #1
 80028b4:	f7ff fbc0 	bl	8002038 <BQ27441_temperature>
 80028b8:	0039      	movs	r1, r7
 80028ba:	0004      	movs	r4, r0
 80028bc:	4820      	ldr	r0, [pc, #128]	; (8002940 <TIM6_DAC_IRQHandler+0x110>)
 80028be:	f001 ffa7 	bl	8004810 <iprintf>
 80028c2:	0031      	movs	r1, r6
 80028c4:	481f      	ldr	r0, [pc, #124]	; (8002944 <TIM6_DAC_IRQHandler+0x114>)
 80028c6:	f001 ffa3 	bl	8004810 <iprintf>
 80028ca:	466b      	mov	r3, sp
 80028cc:	481e      	ldr	r0, [pc, #120]	; (8002948 <TIM6_DAC_IRQHandler+0x118>)
 80028ce:	8899      	ldrh	r1, [r3, #4]
 80028d0:	f001 ff9e 	bl	8004810 <iprintf>
 80028d4:	0029      	movs	r1, r5
 80028d6:	481d      	ldr	r0, [pc, #116]	; (800294c <TIM6_DAC_IRQHandler+0x11c>)
 80028d8:	f001 ff9a 	bl	8004810 <iprintf>
 80028dc:	9902      	ldr	r1, [sp, #8]
 80028de:	481c      	ldr	r0, [pc, #112]	; (8002950 <TIM6_DAC_IRQHandler+0x120>)
 80028e0:	f001 ff96 	bl	8004810 <iprintf>
 80028e4:	9903      	ldr	r1, [sp, #12]
 80028e6:	481b      	ldr	r0, [pc, #108]	; (8002954 <TIM6_DAC_IRQHandler+0x124>)
 80028e8:	f001 ff92 	bl	8004810 <iprintf>
 80028ec:	9904      	ldr	r1, [sp, #16]
 80028ee:	481a      	ldr	r0, [pc, #104]	; (8002958 <TIM6_DAC_IRQHandler+0x128>)
 80028f0:	f001 ff8e 	bl	8004810 <iprintf>
 80028f4:	210a      	movs	r1, #10
 80028f6:	9805      	ldr	r0, [sp, #20]
 80028f8:	f7fd fc1a 	bl	8000130 <__udivsi3>
 80028fc:	b281      	uxth	r1, r0
 80028fe:	4817      	ldr	r0, [pc, #92]	; (800295c <TIM6_DAC_IRQHandler+0x12c>)
 8002900:	f001 ff86 	bl	8004810 <iprintf>
 8002904:	210a      	movs	r1, #10
 8002906:	0020      	movs	r0, r4
 8002908:	f7fd fc12 	bl	8000130 <__udivsi3>
 800290c:	b281      	uxth	r1, r0
 800290e:	4814      	ldr	r0, [pc, #80]	; (8002960 <TIM6_DAC_IRQHandler+0x130>)
 8002910:	f001 ff7e 	bl	8004810 <iprintf>
 8002914:	b007      	add	sp, #28
 8002916:	bdf0      	pop	{r4, r5, r6, r7, pc}
 8002918:	4812      	ldr	r0, [pc, #72]	; (8002964 <TIM6_DAC_IRQHandler+0x134>)
 800291a:	f001 ff79 	bl	8004810 <iprintf>
 800291e:	e7a1      	b.n	8002864 <TIM6_DAC_IRQHandler+0x34>
 8002920:	4811      	ldr	r0, [pc, #68]	; (8002968 <TIM6_DAC_IRQHandler+0x138>)
 8002922:	f001 ff75 	bl	8004810 <iprintf>
 8002926:	e7a6      	b.n	8002876 <TIM6_DAC_IRQHandler+0x46>
 8002928:	200000ec 	.word	0x200000ec
 800292c:	200000e4 	.word	0x200000e4
 8002930:	08005854 	.word	0x08005854
 8002934:	fffffe34 	.word	0xfffffe34
 8002938:	08005872 	.word	0x08005872
 800293c:	080058ae 	.word	0x080058ae
 8002940:	080058ee 	.word	0x080058ee
 8002944:	08005909 	.word	0x08005909
 8002948:	08005924 	.word	0x08005924
 800294c:	08005938 	.word	0x08005938
 8002950:	08005951 	.word	0x08005951
 8002954:	0800596f 	.word	0x0800596f
 8002958:	0800598f 	.word	0x0800598f
 800295c:	080059a2 	.word	0x080059a2
 8002960:	080059bd 	.word	0x080059bd
 8002964:	0800588d 	.word	0x0800588d
 8002968:	080058c6 	.word	0x080058c6

0800296c <_read>:
 800296c:	b570      	push	{r4, r5, r6, lr}
 800296e:	000e      	movs	r6, r1
 8002970:	0014      	movs	r4, r2
 8002972:	2500      	movs	r5, #0
 8002974:	42a5      	cmp	r5, r4
 8002976:	db01      	blt.n	800297c <_read+0x10>
 8002978:	0020      	movs	r0, r4
 800297a:	bd70      	pop	{r4, r5, r6, pc}
 800297c:	e000      	b.n	8002980 <_read+0x14>
 800297e:	bf00      	nop
 8002980:	5570      	strb	r0, [r6, r5]
 8002982:	3501      	adds	r5, #1
 8002984:	e7f6      	b.n	8002974 <_read+0x8>

08002986 <_write>:
 8002986:	b570      	push	{r4, r5, r6, lr}
 8002988:	000e      	movs	r6, r1
 800298a:	0014      	movs	r4, r2
 800298c:	2500      	movs	r5, #0
 800298e:	42a5      	cmp	r5, r4
 8002990:	db01      	blt.n	8002996 <_write+0x10>
 8002992:	0020      	movs	r0, r4
 8002994:	bd70      	pop	{r4, r5, r6, pc}
 8002996:	5d70      	ldrb	r0, [r6, r5]
 8002998:	f7ff feb8 	bl	800270c <__io_putchar>
 800299c:	3501      	adds	r5, #1
 800299e:	e7f6      	b.n	800298e <_write+0x8>

080029a0 <_close>:
 80029a0:	2001      	movs	r0, #1
 80029a2:	4240      	negs	r0, r0
 80029a4:	4770      	bx	lr

080029a6 <_fstat>:
 80029a6:	2380      	movs	r3, #128	; 0x80
 80029a8:	019b      	lsls	r3, r3, #6
 80029aa:	2000      	movs	r0, #0
 80029ac:	604b      	str	r3, [r1, #4]
 80029ae:	4770      	bx	lr

080029b0 <_isatty>:
 80029b0:	2001      	movs	r0, #1
 80029b2:	4770      	bx	lr

080029b4 <_lseek>:
 80029b4:	2000      	movs	r0, #0
 80029b6:	4770      	bx	lr

080029b8 <_sbrk>:
 80029b8:	4a0b      	ldr	r2, [pc, #44]	; (80029e8 <_sbrk+0x30>)
 80029ba:	490c      	ldr	r1, [pc, #48]	; (80029ec <_sbrk+0x34>)
 80029bc:	0003      	movs	r3, r0
 80029be:	1a89      	subs	r1, r1, r2
 80029c0:	4a0b      	ldr	r2, [pc, #44]	; (80029f0 <_sbrk+0x38>)
 80029c2:	b510      	push	{r4, lr}
 80029c4:	6810      	ldr	r0, [r2, #0]
 80029c6:	2800      	cmp	r0, #0
 80029c8:	d101      	bne.n	80029ce <_sbrk+0x16>
 80029ca:	480a      	ldr	r0, [pc, #40]	; (80029f4 <_sbrk+0x3c>)
 80029cc:	6010      	str	r0, [r2, #0]
 80029ce:	6810      	ldr	r0, [r2, #0]
 80029d0:	18c3      	adds	r3, r0, r3
 80029d2:	428b      	cmp	r3, r1
 80029d4:	d906      	bls.n	80029e4 <_sbrk+0x2c>
 80029d6:	f001 fe37 	bl	8004648 <__errno>
 80029da:	230c      	movs	r3, #12
 80029dc:	6003      	str	r3, [r0, #0]
 80029de:	2001      	movs	r0, #1
 80029e0:	4240      	negs	r0, r0
 80029e2:	bd10      	pop	{r4, pc}
 80029e4:	6013      	str	r3, [r2, #0]
 80029e6:	e7fc      	b.n	80029e2 <_sbrk+0x2a>
 80029e8:	00000400 	.word	0x00000400
 80029ec:	20002000 	.word	0x20002000
 80029f0:	2000008c 	.word	0x2000008c
 80029f4:	200001c8 	.word	0x200001c8

080029f8 <SystemInit>:
 80029f8:	4770      	bx	lr
	...

080029fc <MX_TIM6_Init>:
 80029fc:	b537      	push	{r0, r1, r2, r4, r5, lr}
 80029fe:	2208      	movs	r2, #8
 8002a00:	2100      	movs	r1, #0
 8002a02:	4668      	mov	r0, sp
 8002a04:	f001 fe54 	bl	80046b0 <memset>
 8002a08:	4c0e      	ldr	r4, [pc, #56]	; (8002a44 <MX_TIM6_Init+0x48>)
 8002a0a:	4b0f      	ldr	r3, [pc, #60]	; (8002a48 <MX_TIM6_Init+0x4c>)
 8002a0c:	2500      	movs	r5, #0
 8002a0e:	6023      	str	r3, [r4, #0]
 8002a10:	2383      	movs	r3, #131	; 0x83
 8002a12:	011b      	lsls	r3, r3, #4
 8002a14:	6063      	str	r3, [r4, #4]
 8002a16:	4b0d      	ldr	r3, [pc, #52]	; (8002a4c <MX_TIM6_Init+0x50>)
 8002a18:	0020      	movs	r0, r4
 8002a1a:	60a5      	str	r5, [r4, #8]
 8002a1c:	60e3      	str	r3, [r4, #12]
 8002a1e:	6165      	str	r5, [r4, #20]
 8002a20:	f001 fa76 	bl	8003f10 <HAL_TIM_Base_Init>
 8002a24:	42a8      	cmp	r0, r5
 8002a26:	d001      	beq.n	8002a2c <MX_TIM6_Init+0x30>
 8002a28:	f7ff feea 	bl	8002800 <Error_Handler>
 8002a2c:	4669      	mov	r1, sp
 8002a2e:	0020      	movs	r0, r4
 8002a30:	9500      	str	r5, [sp, #0]
 8002a32:	9501      	str	r5, [sp, #4]
 8002a34:	f001 fb4a 	bl	80040cc <HAL_TIMEx_MasterConfigSynchronization>
 8002a38:	2800      	cmp	r0, #0
 8002a3a:	d001      	beq.n	8002a40 <MX_TIM6_Init+0x44>
 8002a3c:	f7ff fee0 	bl	8002800 <Error_Handler>
 8002a40:	bd37      	pop	{r0, r1, r2, r4, r5, pc}
 8002a42:	46c0      	nop			; (mov r8, r8)
 8002a44:	200000ec 	.word	0x200000ec
 8002a48:	40001000 	.word	0x40001000
 8002a4c:	000003e7 	.word	0x000003e7

08002a50 <HAL_TIM_Base_MspInit>:
 8002a50:	4b09      	ldr	r3, [pc, #36]	; (8002a78 <HAL_TIM_Base_MspInit+0x28>)
 8002a52:	6802      	ldr	r2, [r0, #0]
 8002a54:	b510      	push	{r4, lr}
 8002a56:	429a      	cmp	r2, r3
 8002a58:	d10c      	bne.n	8002a74 <HAL_TIM_Base_MspInit+0x24>
 8002a5a:	2310      	movs	r3, #16
 8002a5c:	4a07      	ldr	r2, [pc, #28]	; (8002a7c <HAL_TIM_Base_MspInit+0x2c>)
 8002a5e:	2011      	movs	r0, #17
 8002a60:	6b91      	ldr	r1, [r2, #56]	; 0x38
 8002a62:	430b      	orrs	r3, r1
 8002a64:	6393      	str	r3, [r2, #56]	; 0x38
 8002a66:	2200      	movs	r2, #0
 8002a68:	0011      	movs	r1, r2
 8002a6a:	f000 f921 	bl	8002cb0 <HAL_NVIC_SetPriority>
 8002a6e:	2011      	movs	r0, #17
 8002a70:	f000 f948 	bl	8002d04 <HAL_NVIC_EnableIRQ>
 8002a74:	bd10      	pop	{r4, pc}
 8002a76:	46c0      	nop			; (mov r8, r8)
 8002a78:	40001000 	.word	0x40001000
 8002a7c:	40021000 	.word	0x40021000

08002a80 <MX_USART1_UART_Init>:
 8002a80:	480b      	ldr	r0, [pc, #44]	; (8002ab0 <MX_USART1_UART_Init+0x30>)
 8002a82:	4b0c      	ldr	r3, [pc, #48]	; (8002ab4 <MX_USART1_UART_Init+0x34>)
 8002a84:	b510      	push	{r4, lr}
 8002a86:	6003      	str	r3, [r0, #0]
 8002a88:	23e1      	movs	r3, #225	; 0xe1
 8002a8a:	025b      	lsls	r3, r3, #9
 8002a8c:	220c      	movs	r2, #12
 8002a8e:	6043      	str	r3, [r0, #4]
 8002a90:	2300      	movs	r3, #0
 8002a92:	6142      	str	r2, [r0, #20]
 8002a94:	6083      	str	r3, [r0, #8]
 8002a96:	60c3      	str	r3, [r0, #12]
 8002a98:	6103      	str	r3, [r0, #16]
 8002a9a:	6183      	str	r3, [r0, #24]
 8002a9c:	61c3      	str	r3, [r0, #28]
 8002a9e:	6203      	str	r3, [r0, #32]
 8002aa0:	6243      	str	r3, [r0, #36]	; 0x24
 8002aa2:	f001 fd9f 	bl	80045e4 <HAL_UART_Init>
 8002aa6:	2800      	cmp	r0, #0
 8002aa8:	d001      	beq.n	8002aae <MX_USART1_UART_Init+0x2e>
 8002aaa:	f7ff fea9 	bl	8002800 <Error_Handler>
 8002aae:	bd10      	pop	{r4, pc}
 8002ab0:	2000012c 	.word	0x2000012c
 8002ab4:	40013800 	.word	0x40013800

08002ab8 <HAL_UART_MspInit>:
 8002ab8:	b510      	push	{r4, lr}
 8002aba:	0004      	movs	r4, r0
 8002abc:	b086      	sub	sp, #24
 8002abe:	2214      	movs	r2, #20
 8002ac0:	2100      	movs	r1, #0
 8002ac2:	a801      	add	r0, sp, #4
 8002ac4:	f001 fdf4 	bl	80046b0 <memset>
 8002ac8:	4b11      	ldr	r3, [pc, #68]	; (8002b10 <HAL_UART_MspInit+0x58>)
 8002aca:	6822      	ldr	r2, [r4, #0]
 8002acc:	429a      	cmp	r2, r3
 8002ace:	d11d      	bne.n	8002b0c <HAL_UART_MspInit+0x54>
 8002ad0:	2280      	movs	r2, #128	; 0x80
 8002ad2:	4b10      	ldr	r3, [pc, #64]	; (8002b14 <HAL_UART_MspInit+0x5c>)
 8002ad4:	01d2      	lsls	r2, r2, #7
 8002ad6:	6b59      	ldr	r1, [r3, #52]	; 0x34
 8002ad8:	20a0      	movs	r0, #160	; 0xa0
 8002ada:	430a      	orrs	r2, r1
 8002adc:	2101      	movs	r1, #1
 8002ade:	635a      	str	r2, [r3, #52]	; 0x34
 8002ae0:	6ada      	ldr	r2, [r3, #44]	; 0x2c
 8002ae2:	05c0      	lsls	r0, r0, #23
 8002ae4:	430a      	orrs	r2, r1
 8002ae6:	62da      	str	r2, [r3, #44]	; 0x2c
 8002ae8:	6adb      	ldr	r3, [r3, #44]	; 0x2c
 8002aea:	400b      	ands	r3, r1
 8002aec:	9300      	str	r3, [sp, #0]
 8002aee:	9b00      	ldr	r3, [sp, #0]
 8002af0:	23c0      	movs	r3, #192	; 0xc0
 8002af2:	00db      	lsls	r3, r3, #3
 8002af4:	9301      	str	r3, [sp, #4]
 8002af6:	2302      	movs	r3, #2
 8002af8:	9302      	str	r3, [sp, #8]
 8002afa:	2300      	movs	r3, #0
 8002afc:	9303      	str	r3, [sp, #12]
 8002afe:	3303      	adds	r3, #3
 8002b00:	9304      	str	r3, [sp, #16]
 8002b02:	185b      	adds	r3, r3, r1
 8002b04:	a901      	add	r1, sp, #4
 8002b06:	9305      	str	r3, [sp, #20]
 8002b08:	f000 f922 	bl	8002d50 <HAL_GPIO_Init>
 8002b0c:	b006      	add	sp, #24
 8002b0e:	bd10      	pop	{r4, pc}
 8002b10:	40013800 	.word	0x40013800
 8002b14:	40021000 	.word	0x40021000

08002b18 <VCNL4010_write8>:
 8002b18:	b510      	push	{r4, lr}
 8002b1a:	2301      	movs	r3, #1
 8002b1c:	2417      	movs	r4, #23
 8002b1e:	b086      	sub	sp, #24
 8002b20:	446c      	add	r4, sp
 8002b22:	425b      	negs	r3, r3
 8002b24:	7021      	strb	r1, [r4, #0]
 8002b26:	9302      	str	r3, [sp, #8]
 8002b28:	3302      	adds	r3, #2
 8002b2a:	0002      	movs	r2, r0
 8002b2c:	2126      	movs	r1, #38	; 0x26
 8002b2e:	9301      	str	r3, [sp, #4]
 8002b30:	9400      	str	r4, [sp, #0]
 8002b32:	4802      	ldr	r0, [pc, #8]	; (8002b3c <VCNL4010_write8+0x24>)
 8002b34:	f000 fb5c 	bl	80031f0 <HAL_I2C_Mem_Write>
 8002b38:	b006      	add	sp, #24
 8002b3a:	bd10      	pop	{r4, pc}
 8002b3c:	20000098 	.word	0x20000098

08002b40 <VCNL4010_read8>:
 8002b40:	2301      	movs	r3, #1
 8002b42:	b510      	push	{r4, lr}
 8002b44:	2417      	movs	r4, #23
 8002b46:	b086      	sub	sp, #24
 8002b48:	425b      	negs	r3, r3
 8002b4a:	9302      	str	r3, [sp, #8]
 8002b4c:	446c      	add	r4, sp
 8002b4e:	3302      	adds	r3, #2
 8002b50:	0002      	movs	r2, r0
 8002b52:	2126      	movs	r1, #38	; 0x26
 8002b54:	9301      	str	r3, [sp, #4]
 8002b56:	9400      	str	r4, [sp, #0]
 8002b58:	4802      	ldr	r0, [pc, #8]	; (8002b64 <VCNL4010_read8+0x24>)
 8002b5a:	f000 fc03 	bl	8003364 <HAL_I2C_Mem_Read>
 8002b5e:	7820      	ldrb	r0, [r4, #0]
 8002b60:	b006      	add	sp, #24
 8002b62:	bd10      	pop	{r4, pc}
 8002b64:	20000098 	.word	0x20000098

08002b68 <VCNL4010_read16>:
 8002b68:	2301      	movs	r3, #1
 8002b6a:	b510      	push	{r4, lr}
 8002b6c:	425b      	negs	r3, r3
 8002b6e:	b086      	sub	sp, #24
 8002b70:	ac05      	add	r4, sp, #20
 8002b72:	9302      	str	r3, [sp, #8]
 8002b74:	3303      	adds	r3, #3
 8002b76:	0002      	movs	r2, r0
 8002b78:	9301      	str	r3, [sp, #4]
 8002b7a:	2126      	movs	r1, #38	; 0x26
 8002b7c:	9400      	str	r4, [sp, #0]
 8002b7e:	3b01      	subs	r3, #1
 8002b80:	4804      	ldr	r0, [pc, #16]	; (8002b94 <VCNL4010_read16+0x2c>)
 8002b82:	f000 fbef 	bl	8003364 <HAL_I2C_Mem_Read>
 8002b86:	7863      	ldrb	r3, [r4, #1]
 8002b88:	7820      	ldrb	r0, [r4, #0]
 8002b8a:	021b      	lsls	r3, r3, #8
 8002b8c:	4318      	orrs	r0, r3
 8002b8e:	b006      	add	sp, #24
 8002b90:	bd10      	pop	{r4, pc}
 8002b92:	46c0      	nop			; (mov r8, r8)
 8002b94:	20000098 	.word	0x20000098

08002b98 <VCNL4010_readProximity>:
 8002b98:	b510      	push	{r4, lr}
 8002b9a:	208e      	movs	r0, #142	; 0x8e
 8002b9c:	f7ff ffd0 	bl	8002b40 <VCNL4010_read8>
 8002ba0:	217f      	movs	r1, #127	; 0x7f
 8002ba2:	4001      	ands	r1, r0
 8002ba4:	208e      	movs	r0, #142	; 0x8e
 8002ba6:	f7ff ffb7 	bl	8002b18 <VCNL4010_write8>
 8002baa:	2108      	movs	r1, #8
 8002bac:	2080      	movs	r0, #128	; 0x80
 8002bae:	f7ff ffb3 	bl	8002b18 <VCNL4010_write8>
 8002bb2:	2420      	movs	r4, #32
 8002bb4:	2080      	movs	r0, #128	; 0x80
 8002bb6:	f7ff ffc3 	bl	8002b40 <VCNL4010_read8>
 8002bba:	4220      	tst	r0, r4
 8002bbc:	d0fa      	beq.n	8002bb4 <VCNL4010_readProximity+0x1c>
 8002bbe:	2087      	movs	r0, #135	; 0x87
 8002bc0:	f7ff ffd2 	bl	8002b68 <VCNL4010_read16>
 8002bc4:	bd10      	pop	{r4, pc}
	...

08002bc8 <Reset_Handler>:
 8002bc8:	480d      	ldr	r0, [pc, #52]	; (8002c00 <LoopForever+0x2>)
 8002bca:	4685      	mov	sp, r0
 8002bcc:	480d      	ldr	r0, [pc, #52]	; (8002c04 <LoopForever+0x6>)
 8002bce:	490e      	ldr	r1, [pc, #56]	; (8002c08 <LoopForever+0xa>)
 8002bd0:	4a0e      	ldr	r2, [pc, #56]	; (8002c0c <LoopForever+0xe>)
 8002bd2:	2300      	movs	r3, #0
 8002bd4:	e002      	b.n	8002bdc <LoopCopyDataInit>

08002bd6 <CopyDataInit>:
 8002bd6:	58d4      	ldr	r4, [r2, r3]
 8002bd8:	50c4      	str	r4, [r0, r3]
 8002bda:	3304      	adds	r3, #4

08002bdc <LoopCopyDataInit>:
 8002bdc:	18c4      	adds	r4, r0, r3
 8002bde:	428c      	cmp	r4, r1
 8002be0:	d3f9      	bcc.n	8002bd6 <CopyDataInit>
 8002be2:	4a0b      	ldr	r2, [pc, #44]	; (8002c10 <LoopForever+0x12>)
 8002be4:	4c0b      	ldr	r4, [pc, #44]	; (8002c14 <LoopForever+0x16>)
 8002be6:	2300      	movs	r3, #0
 8002be8:	e001      	b.n	8002bee <LoopFillZerobss>

08002bea <FillZerobss>:
 8002bea:	6013      	str	r3, [r2, #0]
 8002bec:	3204      	adds	r2, #4

08002bee <LoopFillZerobss>:
 8002bee:	42a2      	cmp	r2, r4
 8002bf0:	d3fb      	bcc.n	8002bea <FillZerobss>
 8002bf2:	f7ff ff01 	bl	80029f8 <SystemInit>
 8002bf6:	f001 fd2d 	bl	8004654 <__libc_init_array>
 8002bfa:	f7ff fddd 	bl	80027b8 <main>

08002bfe <LoopForever>:
 8002bfe:	e7fe      	b.n	8002bfe <LoopForever>
 8002c00:	20002000 	.word	0x20002000
 8002c04:	20000000 	.word	0x20000000
 8002c08:	20000070 	.word	0x20000070
 8002c0c:	08005ab8 	.word	0x08005ab8
 8002c10:	20000070 	.word	0x20000070
 8002c14:	200001c4 	.word	0x200001c4

08002c18 <ADC1_COMP_IRQHandler>:
 8002c18:	e7fe      	b.n	8002c18 <ADC1_COMP_IRQHandler>
	...

08002c1c <HAL_InitTick>:
 8002c1c:	b570      	push	{r4, r5, r6, lr}
 8002c1e:	0005      	movs	r5, r0
 8002c20:	20fa      	movs	r0, #250	; 0xfa
 8002c22:	4b0d      	ldr	r3, [pc, #52]	; (8002c58 <HAL_InitTick+0x3c>)
 8002c24:	0080      	lsls	r0, r0, #2
 8002c26:	7819      	ldrb	r1, [r3, #0]
 8002c28:	f7fd fa82 	bl	8000130 <__udivsi3>
 8002c2c:	4b0b      	ldr	r3, [pc, #44]	; (8002c5c <HAL_InitTick+0x40>)
 8002c2e:	0001      	movs	r1, r0
 8002c30:	6818      	ldr	r0, [r3, #0]
 8002c32:	f7fd fa7d 	bl	8000130 <__udivsi3>
 8002c36:	f000 f871 	bl	8002d1c <HAL_SYSTICK_Config>
 8002c3a:	0004      	movs	r4, r0
 8002c3c:	2001      	movs	r0, #1
 8002c3e:	2c00      	cmp	r4, #0
 8002c40:	d109      	bne.n	8002c56 <HAL_InitTick+0x3a>
 8002c42:	2d03      	cmp	r5, #3
 8002c44:	d807      	bhi.n	8002c56 <HAL_InitTick+0x3a>
 8002c46:	3802      	subs	r0, #2
 8002c48:	0022      	movs	r2, r4
 8002c4a:	0029      	movs	r1, r5
 8002c4c:	f000 f830 	bl	8002cb0 <HAL_NVIC_SetPriority>
 8002c50:	0020      	movs	r0, r4
 8002c52:	4b03      	ldr	r3, [pc, #12]	; (8002c60 <HAL_InitTick+0x44>)
 8002c54:	601d      	str	r5, [r3, #0]
 8002c56:	bd70      	pop	{r4, r5, r6, pc}
 8002c58:	20000004 	.word	0x20000004
 8002c5c:	20000000 	.word	0x20000000
 8002c60:	20000008 	.word	0x20000008

08002c64 <HAL_Init>:
 8002c64:	2340      	movs	r3, #64	; 0x40
 8002c66:	4a08      	ldr	r2, [pc, #32]	; (8002c88 <HAL_Init+0x24>)
 8002c68:	b510      	push	{r4, lr}
 8002c6a:	6811      	ldr	r1, [r2, #0]
 8002c6c:	2000      	movs	r0, #0
 8002c6e:	430b      	orrs	r3, r1
 8002c70:	6013      	str	r3, [r2, #0]
 8002c72:	f7ff ffd3 	bl	8002c1c <HAL_InitTick>
 8002c76:	1e04      	subs	r4, r0, #0
 8002c78:	d103      	bne.n	8002c82 <HAL_Init+0x1e>
 8002c7a:	f7ff fdc3 	bl	8002804 <HAL_MspInit>
 8002c7e:	0020      	movs	r0, r4
 8002c80:	bd10      	pop	{r4, pc}
 8002c82:	2401      	movs	r4, #1
 8002c84:	e7fb      	b.n	8002c7e <HAL_Init+0x1a>
 8002c86:	46c0      	nop			; (mov r8, r8)
 8002c88:	40022000 	.word	0x40022000

08002c8c <HAL_IncTick>:
 8002c8c:	4a03      	ldr	r2, [pc, #12]	; (8002c9c <HAL_IncTick+0x10>)
 8002c8e:	4b04      	ldr	r3, [pc, #16]	; (8002ca0 <HAL_IncTick+0x14>)
 8002c90:	6811      	ldr	r1, [r2, #0]
 8002c92:	781b      	ldrb	r3, [r3, #0]
 8002c94:	185b      	adds	r3, r3, r1
 8002c96:	6013      	str	r3, [r2, #0]
 8002c98:	4770      	bx	lr
 8002c9a:	46c0      	nop			; (mov r8, r8)
 8002c9c:	200001b0 	.word	0x200001b0
 8002ca0:	20000004 	.word	0x20000004

08002ca4 <HAL_GetTick>:
 8002ca4:	4b01      	ldr	r3, [pc, #4]	; (8002cac <HAL_GetTick+0x8>)
 8002ca6:	6818      	ldr	r0, [r3, #0]
 8002ca8:	4770      	bx	lr
 8002caa:	46c0      	nop			; (mov r8, r8)
 8002cac:	200001b0 	.word	0x200001b0

08002cb0 <HAL_NVIC_SetPriority>:
 8002cb0:	b530      	push	{r4, r5, lr}
 8002cb2:	25ff      	movs	r5, #255	; 0xff
 8002cb4:	2403      	movs	r4, #3
 8002cb6:	002a      	movs	r2, r5
 8002cb8:	4004      	ands	r4, r0
 8002cba:	00e4      	lsls	r4, r4, #3
 8002cbc:	40a2      	lsls	r2, r4
 8002cbe:	0189      	lsls	r1, r1, #6
 8002cc0:	4029      	ands	r1, r5
 8002cc2:	43d2      	mvns	r2, r2
 8002cc4:	40a1      	lsls	r1, r4
 8002cc6:	b2c3      	uxtb	r3, r0
 8002cc8:	2800      	cmp	r0, #0
 8002cca:	db0a      	blt.n	8002ce2 <HAL_NVIC_SetPriority+0x32>
 8002ccc:	24c0      	movs	r4, #192	; 0xc0
 8002cce:	4b0b      	ldr	r3, [pc, #44]	; (8002cfc <HAL_NVIC_SetPriority+0x4c>)
 8002cd0:	0880      	lsrs	r0, r0, #2
 8002cd2:	0080      	lsls	r0, r0, #2
 8002cd4:	18c0      	adds	r0, r0, r3
 8002cd6:	00a4      	lsls	r4, r4, #2
 8002cd8:	5903      	ldr	r3, [r0, r4]
 8002cda:	401a      	ands	r2, r3
 8002cdc:	4311      	orrs	r1, r2
 8002cde:	5101      	str	r1, [r0, r4]
 8002ce0:	bd30      	pop	{r4, r5, pc}
 8002ce2:	200f      	movs	r0, #15
 8002ce4:	4003      	ands	r3, r0
 8002ce6:	3b08      	subs	r3, #8
 8002ce8:	4805      	ldr	r0, [pc, #20]	; (8002d00 <HAL_NVIC_SetPriority+0x50>)
 8002cea:	089b      	lsrs	r3, r3, #2
 8002cec:	009b      	lsls	r3, r3, #2
 8002cee:	181b      	adds	r3, r3, r0
 8002cf0:	69d8      	ldr	r0, [r3, #28]
 8002cf2:	4002      	ands	r2, r0
 8002cf4:	4311      	orrs	r1, r2
 8002cf6:	61d9      	str	r1, [r3, #28]
 8002cf8:	e7f2      	b.n	8002ce0 <HAL_NVIC_SetPriority+0x30>
 8002cfa:	46c0      	nop			; (mov r8, r8)
 8002cfc:	e000e100 	.word	0xe000e100
 8002d00:	e000ed00 	.word	0xe000ed00

08002d04 <HAL_NVIC_EnableIRQ>:
 8002d04:	2800      	cmp	r0, #0
 8002d06:	db05      	blt.n	8002d14 <HAL_NVIC_EnableIRQ+0x10>
 8002d08:	231f      	movs	r3, #31
 8002d0a:	4018      	ands	r0, r3
 8002d0c:	3b1e      	subs	r3, #30
 8002d0e:	4083      	lsls	r3, r0
 8002d10:	4a01      	ldr	r2, [pc, #4]	; (8002d18 <HAL_NVIC_EnableIRQ+0x14>)
 8002d12:	6013      	str	r3, [r2, #0]
 8002d14:	4770      	bx	lr
 8002d16:	46c0      	nop			; (mov r8, r8)
 8002d18:	e000e100 	.word	0xe000e100

08002d1c <HAL_SYSTICK_Config>:
 8002d1c:	2280      	movs	r2, #128	; 0x80
 8002d1e:	1e43      	subs	r3, r0, #1
 8002d20:	0452      	lsls	r2, r2, #17
 8002d22:	2001      	movs	r0, #1
 8002d24:	4293      	cmp	r3, r2
 8002d26:	d20d      	bcs.n	8002d44 <HAL_SYSTICK_Config+0x28>
 8002d28:	21c0      	movs	r1, #192	; 0xc0
 8002d2a:	4a07      	ldr	r2, [pc, #28]	; (8002d48 <HAL_SYSTICK_Config+0x2c>)
 8002d2c:	4807      	ldr	r0, [pc, #28]	; (8002d4c <HAL_SYSTICK_Config+0x30>)
 8002d2e:	6053      	str	r3, [r2, #4]
 8002d30:	6a03      	ldr	r3, [r0, #32]
 8002d32:	0609      	lsls	r1, r1, #24
 8002d34:	021b      	lsls	r3, r3, #8
 8002d36:	0a1b      	lsrs	r3, r3, #8
 8002d38:	430b      	orrs	r3, r1
 8002d3a:	6203      	str	r3, [r0, #32]
 8002d3c:	2000      	movs	r0, #0
 8002d3e:	2307      	movs	r3, #7
 8002d40:	6090      	str	r0, [r2, #8]
 8002d42:	6013      	str	r3, [r2, #0]
 8002d44:	4770      	bx	lr
 8002d46:	46c0      	nop			; (mov r8, r8)
 8002d48:	e000e010 	.word	0xe000e010
 8002d4c:	e000ed00 	.word	0xe000ed00

08002d50 <HAL_GPIO_Init>:
 8002d50:	4a55      	ldr	r2, [pc, #340]	; (8002ea8 <HAL_GPIO_Init+0x158>)
 8002d52:	b5f0      	push	{r4, r5, r6, r7, lr}
 8002d54:	1882      	adds	r2, r0, r2
 8002d56:	1e54      	subs	r4, r2, #1
 8002d58:	41a2      	sbcs	r2, r4
 8002d5a:	2300      	movs	r3, #0
 8002d5c:	b085      	sub	sp, #20
 8002d5e:	3205      	adds	r2, #5
 8002d60:	9203      	str	r2, [sp, #12]
 8002d62:	680a      	ldr	r2, [r1, #0]
 8002d64:	0014      	movs	r4, r2
 8002d66:	40dc      	lsrs	r4, r3
 8002d68:	d101      	bne.n	8002d6e <HAL_GPIO_Init+0x1e>
 8002d6a:	b005      	add	sp, #20
 8002d6c:	bdf0      	pop	{r4, r5, r6, r7, pc}
 8002d6e:	2701      	movs	r7, #1
 8002d70:	003c      	movs	r4, r7
 8002d72:	0015      	movs	r5, r2
 8002d74:	409c      	lsls	r4, r3
 8002d76:	4025      	ands	r5, r4
 8002d78:	9500      	str	r5, [sp, #0]
 8002d7a:	4222      	tst	r2, r4
 8002d7c:	d100      	bne.n	8002d80 <HAL_GPIO_Init+0x30>
 8002d7e:	e091      	b.n	8002ea4 <HAL_GPIO_Init+0x154>
 8002d80:	684a      	ldr	r2, [r1, #4]
 8002d82:	4694      	mov	ip, r2
 8002d84:	2210      	movs	r2, #16
 8002d86:	4665      	mov	r5, ip
 8002d88:	4395      	bics	r5, r2
 8002d8a:	9502      	str	r5, [sp, #8]
 8002d8c:	3a0d      	subs	r2, #13
 8002d8e:	005d      	lsls	r5, r3, #1
 8002d90:	40aa      	lsls	r2, r5
 8002d92:	43d2      	mvns	r2, r2
 8002d94:	9201      	str	r2, [sp, #4]
 8002d96:	9a02      	ldr	r2, [sp, #8]
 8002d98:	3a01      	subs	r2, #1
 8002d9a:	42ba      	cmp	r2, r7
 8002d9c:	d80f      	bhi.n	8002dbe <HAL_GPIO_Init+0x6e>
 8002d9e:	6886      	ldr	r6, [r0, #8]
 8002da0:	9a01      	ldr	r2, [sp, #4]
 8002da2:	4016      	ands	r6, r2
 8002da4:	68ca      	ldr	r2, [r1, #12]
 8002da6:	40aa      	lsls	r2, r5
 8002da8:	4332      	orrs	r2, r6
 8002daa:	6082      	str	r2, [r0, #8]
 8002dac:	6842      	ldr	r2, [r0, #4]
 8002dae:	43a2      	bics	r2, r4
 8002db0:	0014      	movs	r4, r2
 8002db2:	4662      	mov	r2, ip
 8002db4:	0912      	lsrs	r2, r2, #4
 8002db6:	403a      	ands	r2, r7
 8002db8:	409a      	lsls	r2, r3
 8002dba:	4322      	orrs	r2, r4
 8002dbc:	6042      	str	r2, [r0, #4]
 8002dbe:	68c4      	ldr	r4, [r0, #12]
 8002dc0:	9a01      	ldr	r2, [sp, #4]
 8002dc2:	4014      	ands	r4, r2
 8002dc4:	688a      	ldr	r2, [r1, #8]
 8002dc6:	40aa      	lsls	r2, r5
 8002dc8:	4322      	orrs	r2, r4
 8002dca:	60c2      	str	r2, [r0, #12]
 8002dcc:	9a02      	ldr	r2, [sp, #8]
 8002dce:	2a02      	cmp	r2, #2
 8002dd0:	d10d      	bne.n	8002dee <HAL_GPIO_Init+0x9e>
 8002dd2:	2407      	movs	r4, #7
 8002dd4:	270f      	movs	r7, #15
 8002dd6:	401c      	ands	r4, r3
 8002dd8:	00a4      	lsls	r4, r4, #2
 8002dda:	40a7      	lsls	r7, r4
 8002ddc:	08da      	lsrs	r2, r3, #3
 8002dde:	0092      	lsls	r2, r2, #2
 8002de0:	1882      	adds	r2, r0, r2
 8002de2:	6a16      	ldr	r6, [r2, #32]
 8002de4:	43be      	bics	r6, r7
 8002de6:	690f      	ldr	r7, [r1, #16]
 8002de8:	40a7      	lsls	r7, r4
 8002dea:	433e      	orrs	r6, r7
 8002dec:	6216      	str	r6, [r2, #32]
 8002dee:	6804      	ldr	r4, [r0, #0]
 8002df0:	9a01      	ldr	r2, [sp, #4]
 8002df2:	2603      	movs	r6, #3
 8002df4:	4022      	ands	r2, r4
 8002df6:	0014      	movs	r4, r2
 8002df8:	4662      	mov	r2, ip
 8002dfa:	4032      	ands	r2, r6
 8002dfc:	40aa      	lsls	r2, r5
 8002dfe:	4314      	orrs	r4, r2
 8002e00:	4662      	mov	r2, ip
 8002e02:	6004      	str	r4, [r0, #0]
 8002e04:	00d2      	lsls	r2, r2, #3
 8002e06:	d54d      	bpl.n	8002ea4 <HAL_GPIO_Init+0x154>
 8002e08:	2501      	movs	r5, #1
 8002e0a:	4c28      	ldr	r4, [pc, #160]	; (8002eac <HAL_GPIO_Init+0x15c>)
 8002e0c:	270f      	movs	r7, #15
 8002e0e:	6b62      	ldr	r2, [r4, #52]	; 0x34
 8002e10:	432a      	orrs	r2, r5
 8002e12:	001d      	movs	r5, r3
 8002e14:	4035      	ands	r5, r6
 8002e16:	00ad      	lsls	r5, r5, #2
 8002e18:	40af      	lsls	r7, r5
 8002e1a:	6362      	str	r2, [r4, #52]	; 0x34
 8002e1c:	4a24      	ldr	r2, [pc, #144]	; (8002eb0 <HAL_GPIO_Init+0x160>)
 8002e1e:	089c      	lsrs	r4, r3, #2
 8002e20:	00a4      	lsls	r4, r4, #2
 8002e22:	18a4      	adds	r4, r4, r2
 8002e24:	68a2      	ldr	r2, [r4, #8]
 8002e26:	43ba      	bics	r2, r7
 8002e28:	27a0      	movs	r7, #160	; 0xa0
 8002e2a:	9201      	str	r2, [sp, #4]
 8002e2c:	05ff      	lsls	r7, r7, #23
 8002e2e:	2200      	movs	r2, #0
 8002e30:	42b8      	cmp	r0, r7
 8002e32:	d00c      	beq.n	8002e4e <HAL_GPIO_Init+0xfe>
 8002e34:	4f1f      	ldr	r7, [pc, #124]	; (8002eb4 <HAL_GPIO_Init+0x164>)
 8002e36:	3201      	adds	r2, #1
 8002e38:	42b8      	cmp	r0, r7
 8002e3a:	d008      	beq.n	8002e4e <HAL_GPIO_Init+0xfe>
 8002e3c:	4f1e      	ldr	r7, [pc, #120]	; (8002eb8 <HAL_GPIO_Init+0x168>)
 8002e3e:	3201      	adds	r2, #1
 8002e40:	42b8      	cmp	r0, r7
 8002e42:	d004      	beq.n	8002e4e <HAL_GPIO_Init+0xfe>
 8002e44:	4f1d      	ldr	r7, [pc, #116]	; (8002ebc <HAL_GPIO_Init+0x16c>)
 8002e46:	0032      	movs	r2, r6
 8002e48:	42b8      	cmp	r0, r7
 8002e4a:	d000      	beq.n	8002e4e <HAL_GPIO_Init+0xfe>
 8002e4c:	9a03      	ldr	r2, [sp, #12]
 8002e4e:	40aa      	lsls	r2, r5
 8002e50:	4667      	mov	r7, ip
 8002e52:	9d01      	ldr	r5, [sp, #4]
 8002e54:	432a      	orrs	r2, r5
 8002e56:	60a2      	str	r2, [r4, #8]
 8002e58:	4a19      	ldr	r2, [pc, #100]	; (8002ec0 <HAL_GPIO_Init+0x170>)
 8002e5a:	9c00      	ldr	r4, [sp, #0]
 8002e5c:	6816      	ldr	r6, [r2, #0]
 8002e5e:	9d00      	ldr	r5, [sp, #0]
 8002e60:	43e4      	mvns	r4, r4
 8002e62:	4335      	orrs	r5, r6
 8002e64:	03ff      	lsls	r7, r7, #15
 8002e66:	d401      	bmi.n	8002e6c <HAL_GPIO_Init+0x11c>
 8002e68:	0035      	movs	r5, r6
 8002e6a:	4025      	ands	r5, r4
 8002e6c:	4667      	mov	r7, ip
 8002e6e:	6015      	str	r5, [r2, #0]
 8002e70:	6856      	ldr	r6, [r2, #4]
 8002e72:	9d00      	ldr	r5, [sp, #0]
 8002e74:	4335      	orrs	r5, r6
 8002e76:	03bf      	lsls	r7, r7, #14
 8002e78:	d401      	bmi.n	8002e7e <HAL_GPIO_Init+0x12e>
 8002e7a:	0035      	movs	r5, r6
 8002e7c:	4025      	ands	r5, r4
 8002e7e:	4667      	mov	r7, ip
 8002e80:	6055      	str	r5, [r2, #4]
 8002e82:	6896      	ldr	r6, [r2, #8]
 8002e84:	9d00      	ldr	r5, [sp, #0]
 8002e86:	4335      	orrs	r5, r6
 8002e88:	02ff      	lsls	r7, r7, #11
 8002e8a:	d401      	bmi.n	8002e90 <HAL_GPIO_Init+0x140>
 8002e8c:	0035      	movs	r5, r6
 8002e8e:	4025      	ands	r5, r4
 8002e90:	4667      	mov	r7, ip
 8002e92:	6095      	str	r5, [r2, #8]
 8002e94:	68d5      	ldr	r5, [r2, #12]
 8002e96:	9e00      	ldr	r6, [sp, #0]
 8002e98:	432e      	orrs	r6, r5
 8002e9a:	02bf      	lsls	r7, r7, #10
 8002e9c:	d401      	bmi.n	8002ea2 <HAL_GPIO_Init+0x152>
 8002e9e:	4025      	ands	r5, r4
 8002ea0:	002e      	movs	r6, r5
 8002ea2:	60d6      	str	r6, [r2, #12]
 8002ea4:	3301      	adds	r3, #1
 8002ea6:	e75c      	b.n	8002d62 <HAL_GPIO_Init+0x12>
 8002ea8:	afffe400 	.word	0xafffe400
 8002eac:	40021000 	.word	0x40021000
 8002eb0:	40010000 	.word	0x40010000
 8002eb4:	50000400 	.word	0x50000400
 8002eb8:	50000800 	.word	0x50000800
 8002ebc:	50000c00 	.word	0x50000c00
 8002ec0:	40010400 	.word	0x40010400

08002ec4 <I2C_Flush_TXDR>:
 8002ec4:	6803      	ldr	r3, [r0, #0]
 8002ec6:	699a      	ldr	r2, [r3, #24]
 8002ec8:	0792      	lsls	r2, r2, #30
 8002eca:	d501      	bpl.n	8002ed0 <I2C_Flush_TXDR+0xc>
 8002ecc:	2200      	movs	r2, #0
 8002ece:	629a      	str	r2, [r3, #40]	; 0x28
 8002ed0:	2201      	movs	r2, #1
 8002ed2:	6999      	ldr	r1, [r3, #24]
 8002ed4:	4211      	tst	r1, r2
 8002ed6:	d102      	bne.n	8002ede <I2C_Flush_TXDR+0x1a>
 8002ed8:	6999      	ldr	r1, [r3, #24]
 8002eda:	430a      	orrs	r2, r1
 8002edc:	619a      	str	r2, [r3, #24]
 8002ede:	4770      	bx	lr

08002ee0 <I2C_TransferConfig>:
 8002ee0:	b530      	push	{r4, r5, lr}
 8002ee2:	9c03      	ldr	r4, [sp, #12]
 8002ee4:	0412      	lsls	r2, r2, #16
 8002ee6:	6800      	ldr	r0, [r0, #0]
 8002ee8:	4322      	orrs	r2, r4
 8002eea:	431a      	orrs	r2, r3
 8002eec:	4b05      	ldr	r3, [pc, #20]	; (8002f04 <I2C_TransferConfig+0x24>)
 8002eee:	6845      	ldr	r5, [r0, #4]
 8002ef0:	0589      	lsls	r1, r1, #22
 8002ef2:	0d64      	lsrs	r4, r4, #21
 8002ef4:	0d89      	lsrs	r1, r1, #22
 8002ef6:	431c      	orrs	r4, r3
 8002ef8:	43a5      	bics	r5, r4
 8002efa:	430a      	orrs	r2, r1
 8002efc:	432a      	orrs	r2, r5
 8002efe:	6042      	str	r2, [r0, #4]
 8002f00:	bd30      	pop	{r4, r5, pc}
 8002f02:	46c0      	nop			; (mov r8, r8)
 8002f04:	03ff63ff 	.word	0x03ff63ff

08002f08 <I2C_IsAcknowledgeFailed>:
 8002f08:	b5f8      	push	{r3, r4, r5, r6, r7, lr}
 8002f0a:	6803      	ldr	r3, [r0, #0]
 8002f0c:	0016      	movs	r6, r2
 8002f0e:	699a      	ldr	r2, [r3, #24]
 8002f10:	0004      	movs	r4, r0
 8002f12:	2310      	movs	r3, #16
 8002f14:	0010      	movs	r0, r2
 8002f16:	000d      	movs	r5, r1
 8002f18:	2720      	movs	r7, #32
 8002f1a:	4018      	ands	r0, r3
 8002f1c:	421a      	tst	r2, r3
 8002f1e:	d118      	bne.n	8002f52 <I2C_IsAcknowledgeFailed+0x4a>
 8002f20:	bdf8      	pop	{r3, r4, r5, r6, r7, pc}
 8002f22:	1c6a      	adds	r2, r5, #1
 8002f24:	d016      	beq.n	8002f54 <I2C_IsAcknowledgeFailed+0x4c>
 8002f26:	f7ff febd 	bl	8002ca4 <HAL_GetTick>
 8002f2a:	1b80      	subs	r0, r0, r6
 8002f2c:	42a8      	cmp	r0, r5
 8002f2e:	d801      	bhi.n	8002f34 <I2C_IsAcknowledgeFailed+0x2c>
 8002f30:	2d00      	cmp	r5, #0
 8002f32:	d10e      	bne.n	8002f52 <I2C_IsAcknowledgeFailed+0x4a>
 8002f34:	2220      	movs	r2, #32
 8002f36:	6c63      	ldr	r3, [r4, #68]	; 0x44
 8002f38:	4313      	orrs	r3, r2
 8002f3a:	6463      	str	r3, [r4, #68]	; 0x44
 8002f3c:	0023      	movs	r3, r4
 8002f3e:	3341      	adds	r3, #65	; 0x41
 8002f40:	701a      	strb	r2, [r3, #0]
 8002f42:	0022      	movs	r2, r4
 8002f44:	2300      	movs	r3, #0
 8002f46:	3242      	adds	r2, #66	; 0x42
 8002f48:	3440      	adds	r4, #64	; 0x40
 8002f4a:	7013      	strb	r3, [r2, #0]
 8002f4c:	2001      	movs	r0, #1
 8002f4e:	7023      	strb	r3, [r4, #0]
 8002f50:	e7e6      	b.n	8002f20 <I2C_IsAcknowledgeFailed+0x18>
 8002f52:	6823      	ldr	r3, [r4, #0]
 8002f54:	699a      	ldr	r2, [r3, #24]
 8002f56:	423a      	tst	r2, r7
 8002f58:	d0e3      	beq.n	8002f22 <I2C_IsAcknowledgeFailed+0x1a>
 8002f5a:	2210      	movs	r2, #16
 8002f5c:	0020      	movs	r0, r4
 8002f5e:	61da      	str	r2, [r3, #28]
 8002f60:	61df      	str	r7, [r3, #28]
 8002f62:	f7ff ffaf 	bl	8002ec4 <I2C_Flush_TXDR>
 8002f66:	6822      	ldr	r2, [r4, #0]
 8002f68:	4905      	ldr	r1, [pc, #20]	; (8002f80 <I2C_IsAcknowledgeFailed+0x78>)
 8002f6a:	6853      	ldr	r3, [r2, #4]
 8002f6c:	400b      	ands	r3, r1
 8002f6e:	6053      	str	r3, [r2, #4]
 8002f70:	2304      	movs	r3, #4
 8002f72:	6c62      	ldr	r2, [r4, #68]	; 0x44
 8002f74:	4313      	orrs	r3, r2
 8002f76:	6463      	str	r3, [r4, #68]	; 0x44
 8002f78:	0023      	movs	r3, r4
 8002f7a:	3341      	adds	r3, #65	; 0x41
 8002f7c:	701f      	strb	r7, [r3, #0]
 8002f7e:	e7e0      	b.n	8002f42 <I2C_IsAcknowledgeFailed+0x3a>
 8002f80:	fe00e800 	.word	0xfe00e800

08002f84 <I2C_WaitOnSTOPFlagUntilTimeout>:
 8002f84:	b5f8      	push	{r3, r4, r5, r6, r7, lr}
 8002f86:	0004      	movs	r4, r0
 8002f88:	000d      	movs	r5, r1
 8002f8a:	0016      	movs	r6, r2
 8002f8c:	2720      	movs	r7, #32
 8002f8e:	6823      	ldr	r3, [r4, #0]
 8002f90:	699b      	ldr	r3, [r3, #24]
 8002f92:	423b      	tst	r3, r7
 8002f94:	d001      	beq.n	8002f9a <I2C_WaitOnSTOPFlagUntilTimeout+0x16>
 8002f96:	2000      	movs	r0, #0
 8002f98:	bdf8      	pop	{r3, r4, r5, r6, r7, pc}
 8002f9a:	0032      	movs	r2, r6
 8002f9c:	0029      	movs	r1, r5
 8002f9e:	0020      	movs	r0, r4
 8002fa0:	f7ff ffb2 	bl	8002f08 <I2C_IsAcknowledgeFailed>
 8002fa4:	2800      	cmp	r0, #0
 8002fa6:	d113      	bne.n	8002fd0 <I2C_WaitOnSTOPFlagUntilTimeout+0x4c>
 8002fa8:	f7ff fe7c 	bl	8002ca4 <HAL_GetTick>
 8002fac:	1b80      	subs	r0, r0, r6
 8002fae:	42a8      	cmp	r0, r5
 8002fb0:	d801      	bhi.n	8002fb6 <I2C_WaitOnSTOPFlagUntilTimeout+0x32>
 8002fb2:	2d00      	cmp	r5, #0
 8002fb4:	d1eb      	bne.n	8002f8e <I2C_WaitOnSTOPFlagUntilTimeout+0xa>
 8002fb6:	2220      	movs	r2, #32
 8002fb8:	6c63      	ldr	r3, [r4, #68]	; 0x44
 8002fba:	4313      	orrs	r3, r2
 8002fbc:	6463      	str	r3, [r4, #68]	; 0x44
 8002fbe:	0023      	movs	r3, r4
 8002fc0:	3341      	adds	r3, #65	; 0x41
 8002fc2:	701a      	strb	r2, [r3, #0]
 8002fc4:	0022      	movs	r2, r4
 8002fc6:	2300      	movs	r3, #0
 8002fc8:	3242      	adds	r2, #66	; 0x42
 8002fca:	3440      	adds	r4, #64	; 0x40
 8002fcc:	7013      	strb	r3, [r2, #0]
 8002fce:	7023      	strb	r3, [r4, #0]
 8002fd0:	2001      	movs	r0, #1
 8002fd2:	e7e1      	b.n	8002f98 <I2C_WaitOnSTOPFlagUntilTimeout+0x14>

08002fd4 <I2C_WaitOnFlagUntilTimeout>:
 8002fd4:	b5f8      	push	{r3, r4, r5, r6, r7, lr}
 8002fd6:	0004      	movs	r4, r0
 8002fd8:	000e      	movs	r6, r1
 8002fda:	0017      	movs	r7, r2
 8002fdc:	001d      	movs	r5, r3
 8002fde:	6822      	ldr	r2, [r4, #0]
 8002fe0:	6993      	ldr	r3, [r2, #24]
 8002fe2:	4033      	ands	r3, r6
 8002fe4:	1b9b      	subs	r3, r3, r6
 8002fe6:	4259      	negs	r1, r3
 8002fe8:	414b      	adcs	r3, r1
 8002fea:	42bb      	cmp	r3, r7
 8002fec:	d001      	beq.n	8002ff2 <I2C_WaitOnFlagUntilTimeout+0x1e>
 8002fee:	2000      	movs	r0, #0
 8002ff0:	e017      	b.n	8003022 <I2C_WaitOnFlagUntilTimeout+0x4e>
 8002ff2:	1c6b      	adds	r3, r5, #1
 8002ff4:	d0f4      	beq.n	8002fe0 <I2C_WaitOnFlagUntilTimeout+0xc>
 8002ff6:	f7ff fe55 	bl	8002ca4 <HAL_GetTick>
 8002ffa:	9b06      	ldr	r3, [sp, #24]
 8002ffc:	1ac0      	subs	r0, r0, r3
 8002ffe:	42a8      	cmp	r0, r5
 8003000:	d801      	bhi.n	8003006 <I2C_WaitOnFlagUntilTimeout+0x32>
 8003002:	2d00      	cmp	r5, #0
 8003004:	d1eb      	bne.n	8002fde <I2C_WaitOnFlagUntilTimeout+0xa>
 8003006:	2220      	movs	r2, #32
 8003008:	6c63      	ldr	r3, [r4, #68]	; 0x44
 800300a:	2001      	movs	r0, #1
 800300c:	4313      	orrs	r3, r2
 800300e:	6463      	str	r3, [r4, #68]	; 0x44
 8003010:	0023      	movs	r3, r4
 8003012:	3341      	adds	r3, #65	; 0x41
 8003014:	701a      	strb	r2, [r3, #0]
 8003016:	0022      	movs	r2, r4
 8003018:	2300      	movs	r3, #0
 800301a:	3242      	adds	r2, #66	; 0x42
 800301c:	3440      	adds	r4, #64	; 0x40
 800301e:	7013      	strb	r3, [r2, #0]
 8003020:	7023      	strb	r3, [r4, #0]
 8003022:	bdf8      	pop	{r3, r4, r5, r6, r7, pc}

08003024 <I2C_WaitOnTXISFlagUntilTimeout>:
 8003024:	b5f8      	push	{r3, r4, r5, r6, r7, lr}
 8003026:	0004      	movs	r4, r0
 8003028:	000d      	movs	r5, r1
 800302a:	0016      	movs	r6, r2
 800302c:	2702      	movs	r7, #2
 800302e:	6823      	ldr	r3, [r4, #0]
 8003030:	699b      	ldr	r3, [r3, #24]
 8003032:	423b      	tst	r3, r7
 8003034:	d001      	beq.n	800303a <I2C_WaitOnTXISFlagUntilTimeout+0x16>
 8003036:	2000      	movs	r0, #0
 8003038:	bdf8      	pop	{r3, r4, r5, r6, r7, pc}
 800303a:	0032      	movs	r2, r6
 800303c:	0029      	movs	r1, r5
 800303e:	0020      	movs	r0, r4
 8003040:	f7ff ff62 	bl	8002f08 <I2C_IsAcknowledgeFailed>
 8003044:	2800      	cmp	r0, #0
 8003046:	d115      	bne.n	8003074 <I2C_WaitOnTXISFlagUntilTimeout+0x50>
 8003048:	1c6b      	adds	r3, r5, #1
 800304a:	d0f0      	beq.n	800302e <I2C_WaitOnTXISFlagUntilTimeout+0xa>
 800304c:	f7ff fe2a 	bl	8002ca4 <HAL_GetTick>
 8003050:	1b80      	subs	r0, r0, r6
 8003052:	42a8      	cmp	r0, r5
 8003054:	d801      	bhi.n	800305a <I2C_WaitOnTXISFlagUntilTimeout+0x36>
 8003056:	2d00      	cmp	r5, #0
 8003058:	d1e9      	bne.n	800302e <I2C_WaitOnTXISFlagUntilTimeout+0xa>
 800305a:	2220      	movs	r2, #32
 800305c:	6c63      	ldr	r3, [r4, #68]	; 0x44
 800305e:	4313      	orrs	r3, r2
 8003060:	6463      	str	r3, [r4, #68]	; 0x44
 8003062:	0023      	movs	r3, r4
 8003064:	3341      	adds	r3, #65	; 0x41
 8003066:	701a      	strb	r2, [r3, #0]
 8003068:	0022      	movs	r2, r4
 800306a:	2300      	movs	r3, #0
 800306c:	3242      	adds	r2, #66	; 0x42
 800306e:	3440      	adds	r4, #64	; 0x40
 8003070:	7013      	strb	r3, [r2, #0]
 8003072:	7023      	strb	r3, [r4, #0]
 8003074:	2001      	movs	r0, #1
 8003076:	e7df      	b.n	8003038 <I2C_WaitOnTXISFlagUntilTimeout+0x14>

08003078 <I2C_RequestMemoryWrite>:
 8003078:	b5f7      	push	{r0, r1, r2, r4, r5, r6, r7, lr}
 800307a:	0014      	movs	r4, r2
 800307c:	001e      	movs	r6, r3
 800307e:	b2da      	uxtb	r2, r3
 8003080:	4b16      	ldr	r3, [pc, #88]	; (80030dc <I2C_RequestMemoryWrite+0x64>)
 8003082:	0005      	movs	r5, r0
 8003084:	9300      	str	r3, [sp, #0]
 8003086:	2380      	movs	r3, #128	; 0x80
 8003088:	9f08      	ldr	r7, [sp, #32]
 800308a:	045b      	lsls	r3, r3, #17
 800308c:	f7ff ff28 	bl	8002ee0 <I2C_TransferConfig>
 8003090:	0039      	movs	r1, r7
 8003092:	0028      	movs	r0, r5
 8003094:	9a09      	ldr	r2, [sp, #36]	; 0x24
 8003096:	f7ff ffc5 	bl	8003024 <I2C_WaitOnTXISFlagUntilTimeout>
 800309a:	2800      	cmp	r0, #0
 800309c:	d001      	beq.n	80030a2 <I2C_RequestMemoryWrite+0x2a>
 800309e:	2001      	movs	r0, #1
 80030a0:	bdfe      	pop	{r1, r2, r3, r4, r5, r6, r7, pc}
 80030a2:	682b      	ldr	r3, [r5, #0]
 80030a4:	2e01      	cmp	r6, #1
 80030a6:	d10d      	bne.n	80030c4 <I2C_RequestMemoryWrite+0x4c>
 80030a8:	b2e4      	uxtb	r4, r4
 80030aa:	629c      	str	r4, [r3, #40]	; 0x28
 80030ac:	9b09      	ldr	r3, [sp, #36]	; 0x24
 80030ae:	2200      	movs	r2, #0
 80030b0:	9300      	str	r3, [sp, #0]
 80030b2:	2180      	movs	r1, #128	; 0x80
 80030b4:	003b      	movs	r3, r7
 80030b6:	0028      	movs	r0, r5
 80030b8:	f7ff ff8c 	bl	8002fd4 <I2C_WaitOnFlagUntilTimeout>
 80030bc:	1e43      	subs	r3, r0, #1
 80030be:	4198      	sbcs	r0, r3
 80030c0:	b2c0      	uxtb	r0, r0
 80030c2:	e7ed      	b.n	80030a0 <I2C_RequestMemoryWrite+0x28>
 80030c4:	0a22      	lsrs	r2, r4, #8
 80030c6:	629a      	str	r2, [r3, #40]	; 0x28
 80030c8:	0039      	movs	r1, r7
 80030ca:	0028      	movs	r0, r5
 80030cc:	9a09      	ldr	r2, [sp, #36]	; 0x24
 80030ce:	f7ff ffa9 	bl	8003024 <I2C_WaitOnTXISFlagUntilTimeout>
 80030d2:	2800      	cmp	r0, #0
 80030d4:	d1e3      	bne.n	800309e <I2C_RequestMemoryWrite+0x26>
 80030d6:	682b      	ldr	r3, [r5, #0]
 80030d8:	e7e6      	b.n	80030a8 <I2C_RequestMemoryWrite+0x30>
 80030da:	46c0      	nop			; (mov r8, r8)
 80030dc:	80002000 	.word	0x80002000

080030e0 <I2C_RequestMemoryRead>:
 80030e0:	b5f7      	push	{r0, r1, r2, r4, r5, r6, r7, lr}
 80030e2:	0005      	movs	r5, r0
 80030e4:	0014      	movs	r4, r2
 80030e6:	001e      	movs	r6, r3
 80030e8:	b2da      	uxtb	r2, r3
 80030ea:	4b15      	ldr	r3, [pc, #84]	; (8003140 <I2C_RequestMemoryRead+0x60>)
 80030ec:	9f08      	ldr	r7, [sp, #32]
 80030ee:	9300      	str	r3, [sp, #0]
 80030f0:	2300      	movs	r3, #0
 80030f2:	f7ff fef5 	bl	8002ee0 <I2C_TransferConfig>
 80030f6:	0039      	movs	r1, r7
 80030f8:	0028      	movs	r0, r5
 80030fa:	9a09      	ldr	r2, [sp, #36]	; 0x24
 80030fc:	f7ff ff92 	bl	8003024 <I2C_WaitOnTXISFlagUntilTimeout>
 8003100:	2800      	cmp	r0, #0
 8003102:	d001      	beq.n	8003108 <I2C_RequestMemoryRead+0x28>
 8003104:	2001      	movs	r0, #1
 8003106:	bdfe      	pop	{r1, r2, r3, r4, r5, r6, r7, pc}
 8003108:	682b      	ldr	r3, [r5, #0]
 800310a:	2e01      	cmp	r6, #1
 800310c:	d10d      	bne.n	800312a <I2C_RequestMemoryRead+0x4a>
 800310e:	b2e4      	uxtb	r4, r4
 8003110:	629c      	str	r4, [r3, #40]	; 0x28
 8003112:	9b09      	ldr	r3, [sp, #36]	; 0x24
 8003114:	2200      	movs	r2, #0
 8003116:	9300      	str	r3, [sp, #0]
 8003118:	2140      	movs	r1, #64	; 0x40
 800311a:	003b      	movs	r3, r7
 800311c:	0028      	movs	r0, r5
 800311e:	f7ff ff59 	bl	8002fd4 <I2C_WaitOnFlagUntilTimeout>
 8003122:	1e43      	subs	r3, r0, #1
 8003124:	4198      	sbcs	r0, r3
 8003126:	b2c0      	uxtb	r0, r0
 8003128:	e7ed      	b.n	8003106 <I2C_RequestMemoryRead+0x26>
 800312a:	0a22      	lsrs	r2, r4, #8
 800312c:	629a      	str	r2, [r3, #40]	; 0x28
 800312e:	0039      	movs	r1, r7
 8003130:	0028      	movs	r0, r5
 8003132:	9a09      	ldr	r2, [sp, #36]	; 0x24
 8003134:	f7ff ff76 	bl	8003024 <I2C_WaitOnTXISFlagUntilTimeout>
 8003138:	2800      	cmp	r0, #0
 800313a:	d1e3      	bne.n	8003104 <I2C_RequestMemoryRead+0x24>
 800313c:	682b      	ldr	r3, [r5, #0]
 800313e:	e7e6      	b.n	800310e <I2C_RequestMemoryRead+0x2e>
 8003140:	80002000 	.word	0x80002000

08003144 <HAL_I2C_Init>:
 8003144:	b570      	push	{r4, r5, r6, lr}
 8003146:	0004      	movs	r4, r0
 8003148:	2001      	movs	r0, #1
 800314a:	2c00      	cmp	r4, #0
 800314c:	d03f      	beq.n	80031ce <HAL_I2C_Init+0x8a>
 800314e:	0025      	movs	r5, r4
 8003150:	3541      	adds	r5, #65	; 0x41
 8003152:	782b      	ldrb	r3, [r5, #0]
 8003154:	b2da      	uxtb	r2, r3
 8003156:	2b00      	cmp	r3, #0
 8003158:	d105      	bne.n	8003166 <HAL_I2C_Init+0x22>
 800315a:	0023      	movs	r3, r4
 800315c:	3340      	adds	r3, #64	; 0x40
 800315e:	0020      	movs	r0, r4
 8003160:	701a      	strb	r2, [r3, #0]
 8003162:	f7ff faa3 	bl	80026ac <HAL_I2C_MspInit>
 8003166:	2324      	movs	r3, #36	; 0x24
 8003168:	2101      	movs	r1, #1
 800316a:	702b      	strb	r3, [r5, #0]
 800316c:	6823      	ldr	r3, [r4, #0]
 800316e:	68e0      	ldr	r0, [r4, #12]
 8003170:	681a      	ldr	r2, [r3, #0]
 8003172:	68a6      	ldr	r6, [r4, #8]
 8003174:	438a      	bics	r2, r1
 8003176:	601a      	str	r2, [r3, #0]
 8003178:	6861      	ldr	r1, [r4, #4]
 800317a:	4a1a      	ldr	r2, [pc, #104]	; (80031e4 <HAL_I2C_Init+0xa0>)
 800317c:	400a      	ands	r2, r1
 800317e:	611a      	str	r2, [r3, #16]
 8003180:	6899      	ldr	r1, [r3, #8]
 8003182:	4a19      	ldr	r2, [pc, #100]	; (80031e8 <HAL_I2C_Init+0xa4>)
 8003184:	4011      	ands	r1, r2
 8003186:	6099      	str	r1, [r3, #8]
 8003188:	2801      	cmp	r0, #1
 800318a:	d121      	bne.n	80031d0 <HAL_I2C_Init+0x8c>
 800318c:	2180      	movs	r1, #128	; 0x80
 800318e:	0209      	lsls	r1, r1, #8
 8003190:	4331      	orrs	r1, r6
 8003192:	6099      	str	r1, [r3, #8]
 8003194:	6858      	ldr	r0, [r3, #4]
 8003196:	4915      	ldr	r1, [pc, #84]	; (80031ec <HAL_I2C_Init+0xa8>)
 8003198:	4301      	orrs	r1, r0
 800319a:	6059      	str	r1, [r3, #4]
 800319c:	68d9      	ldr	r1, [r3, #12]
 800319e:	2000      	movs	r0, #0
 80031a0:	400a      	ands	r2, r1
 80031a2:	60da      	str	r2, [r3, #12]
 80031a4:	6961      	ldr	r1, [r4, #20]
 80031a6:	6922      	ldr	r2, [r4, #16]
 80031a8:	430a      	orrs	r2, r1
 80031aa:	69a1      	ldr	r1, [r4, #24]
 80031ac:	0209      	lsls	r1, r1, #8
 80031ae:	430a      	orrs	r2, r1
 80031b0:	60da      	str	r2, [r3, #12]
 80031b2:	6a21      	ldr	r1, [r4, #32]
 80031b4:	69e2      	ldr	r2, [r4, #28]
 80031b6:	430a      	orrs	r2, r1
 80031b8:	601a      	str	r2, [r3, #0]
 80031ba:	2201      	movs	r2, #1
 80031bc:	6819      	ldr	r1, [r3, #0]
 80031be:	430a      	orrs	r2, r1
 80031c0:	601a      	str	r2, [r3, #0]
 80031c2:	2320      	movs	r3, #32
 80031c4:	6460      	str	r0, [r4, #68]	; 0x44
 80031c6:	702b      	strb	r3, [r5, #0]
 80031c8:	6320      	str	r0, [r4, #48]	; 0x30
 80031ca:	3442      	adds	r4, #66	; 0x42
 80031cc:	7020      	strb	r0, [r4, #0]
 80031ce:	bd70      	pop	{r4, r5, r6, pc}
 80031d0:	2184      	movs	r1, #132	; 0x84
 80031d2:	0209      	lsls	r1, r1, #8
 80031d4:	4331      	orrs	r1, r6
 80031d6:	6099      	str	r1, [r3, #8]
 80031d8:	2802      	cmp	r0, #2
 80031da:	d1db      	bne.n	8003194 <HAL_I2C_Init+0x50>
 80031dc:	2180      	movs	r1, #128	; 0x80
 80031de:	0109      	lsls	r1, r1, #4
 80031e0:	6059      	str	r1, [r3, #4]
 80031e2:	e7d7      	b.n	8003194 <HAL_I2C_Init+0x50>
 80031e4:	f0ffffff 	.word	0xf0ffffff
 80031e8:	ffff7fff 	.word	0xffff7fff
 80031ec:	02008000 	.word	0x02008000

080031f0 <HAL_I2C_Mem_Write>:
 80031f0:	b5f0      	push	{r4, r5, r6, r7, lr}
 80031f2:	b089      	sub	sp, #36	; 0x24
 80031f4:	9307      	str	r3, [sp, #28]
 80031f6:	ab0e      	add	r3, sp, #56	; 0x38
 80031f8:	9206      	str	r2, [sp, #24]
 80031fa:	cb04      	ldmia	r3!, {r2}
 80031fc:	0004      	movs	r4, r0
 80031fe:	881b      	ldrh	r3, [r3, #0]
 8003200:	9203      	str	r2, [sp, #12]
 8003202:	9304      	str	r3, [sp, #16]
 8003204:	0003      	movs	r3, r0
 8003206:	3341      	adds	r3, #65	; 0x41
 8003208:	9305      	str	r3, [sp, #20]
 800320a:	781b      	ldrb	r3, [r3, #0]
 800320c:	000f      	movs	r7, r1
 800320e:	2002      	movs	r0, #2
 8003210:	2b20      	cmp	r3, #32
 8003212:	d108      	bne.n	8003226 <HAL_I2C_Mem_Write+0x36>
 8003214:	2a00      	cmp	r2, #0
 8003216:	d002      	beq.n	800321e <HAL_I2C_Mem_Write+0x2e>
 8003218:	9b04      	ldr	r3, [sp, #16]
 800321a:	2b00      	cmp	r3, #0
 800321c:	d105      	bne.n	800322a <HAL_I2C_Mem_Write+0x3a>
 800321e:	2380      	movs	r3, #128	; 0x80
 8003220:	009b      	lsls	r3, r3, #2
 8003222:	6463      	str	r3, [r4, #68]	; 0x44
 8003224:	2001      	movs	r0, #1
 8003226:	b009      	add	sp, #36	; 0x24
 8003228:	bdf0      	pop	{r4, r5, r6, r7, pc}
 800322a:	0023      	movs	r3, r4
 800322c:	3340      	adds	r3, #64	; 0x40
 800322e:	9302      	str	r3, [sp, #8]
 8003230:	781b      	ldrb	r3, [r3, #0]
 8003232:	2002      	movs	r0, #2
 8003234:	2b01      	cmp	r3, #1
 8003236:	d0f6      	beq.n	8003226 <HAL_I2C_Mem_Write+0x36>
 8003238:	2201      	movs	r2, #1
 800323a:	9b02      	ldr	r3, [sp, #8]
 800323c:	701a      	strb	r2, [r3, #0]
 800323e:	f7ff fd31 	bl	8002ca4 <HAL_GetTick>
 8003242:	2180      	movs	r1, #128	; 0x80
 8003244:	9000      	str	r0, [sp, #0]
 8003246:	0005      	movs	r5, r0
 8003248:	2319      	movs	r3, #25
 800324a:	2201      	movs	r2, #1
 800324c:	0020      	movs	r0, r4
 800324e:	0209      	lsls	r1, r1, #8
 8003250:	f7ff fec0 	bl	8002fd4 <I2C_WaitOnFlagUntilTimeout>
 8003254:	1e06      	subs	r6, r0, #0
 8003256:	d1e5      	bne.n	8003224 <HAL_I2C_Mem_Write+0x34>
 8003258:	2321      	movs	r3, #33	; 0x21
 800325a:	9a05      	ldr	r2, [sp, #20]
 800325c:	0039      	movs	r1, r7
 800325e:	7013      	strb	r3, [r2, #0]
 8003260:	0023      	movs	r3, r4
 8003262:	3342      	adds	r3, #66	; 0x42
 8003264:	9305      	str	r3, [sp, #20]
 8003266:	2340      	movs	r3, #64	; 0x40
 8003268:	9a05      	ldr	r2, [sp, #20]
 800326a:	7013      	strb	r3, [r2, #0]
 800326c:	9b03      	ldr	r3, [sp, #12]
 800326e:	6460      	str	r0, [r4, #68]	; 0x44
 8003270:	6263      	str	r3, [r4, #36]	; 0x24
 8003272:	9b04      	ldr	r3, [sp, #16]
 8003274:	6360      	str	r0, [r4, #52]	; 0x34
 8003276:	8563      	strh	r3, [r4, #42]	; 0x2a
 8003278:	9b10      	ldr	r3, [sp, #64]	; 0x40
 800327a:	0020      	movs	r0, r4
 800327c:	9300      	str	r3, [sp, #0]
 800327e:	9a06      	ldr	r2, [sp, #24]
 8003280:	9b07      	ldr	r3, [sp, #28]
 8003282:	9501      	str	r5, [sp, #4]
 8003284:	f7ff fef8 	bl	8003078 <I2C_RequestMemoryWrite>
 8003288:	2800      	cmp	r0, #0
 800328a:	d002      	beq.n	8003292 <HAL_I2C_Mem_Write+0xa2>
 800328c:	9b02      	ldr	r3, [sp, #8]
 800328e:	701e      	strb	r6, [r3, #0]
 8003290:	e7c8      	b.n	8003224 <HAL_I2C_Mem_Write+0x34>
 8003292:	8d63      	ldrh	r3, [r4, #42]	; 0x2a
 8003294:	2bff      	cmp	r3, #255	; 0xff
 8003296:	d954      	bls.n	8003342 <HAL_I2C_Mem_Write+0x152>
 8003298:	22ff      	movs	r2, #255	; 0xff
 800329a:	2380      	movs	r3, #128	; 0x80
 800329c:	8522      	strh	r2, [r4, #40]	; 0x28
 800329e:	045b      	lsls	r3, r3, #17
 80032a0:	9000      	str	r0, [sp, #0]
 80032a2:	0039      	movs	r1, r7
 80032a4:	0020      	movs	r0, r4
 80032a6:	2680      	movs	r6, #128	; 0x80
 80032a8:	f7ff fe1a 	bl	8002ee0 <I2C_TransferConfig>
 80032ac:	04b6      	lsls	r6, r6, #18
 80032ae:	002a      	movs	r2, r5
 80032b0:	0020      	movs	r0, r4
 80032b2:	9910      	ldr	r1, [sp, #64]	; 0x40
 80032b4:	f7ff feb6 	bl	8003024 <I2C_WaitOnTXISFlagUntilTimeout>
 80032b8:	2800      	cmp	r0, #0
 80032ba:	d1b3      	bne.n	8003224 <HAL_I2C_Mem_Write+0x34>
 80032bc:	6a63      	ldr	r3, [r4, #36]	; 0x24
 80032be:	6822      	ldr	r2, [r4, #0]
 80032c0:	7819      	ldrb	r1, [r3, #0]
 80032c2:	3301      	adds	r3, #1
 80032c4:	6291      	str	r1, [r2, #40]	; 0x28
 80032c6:	6263      	str	r3, [r4, #36]	; 0x24
 80032c8:	8d63      	ldrh	r3, [r4, #42]	; 0x2a
 80032ca:	8d22      	ldrh	r2, [r4, #40]	; 0x28
 80032cc:	3b01      	subs	r3, #1
 80032ce:	b29b      	uxth	r3, r3
 80032d0:	8563      	strh	r3, [r4, #42]	; 0x2a
 80032d2:	3a01      	subs	r2, #1
 80032d4:	8d63      	ldrh	r3, [r4, #42]	; 0x2a
 80032d6:	b292      	uxth	r2, r2
 80032d8:	8522      	strh	r2, [r4, #40]	; 0x28
 80032da:	2b00      	cmp	r3, #0
 80032dc:	d017      	beq.n	800330e <HAL_I2C_Mem_Write+0x11e>
 80032de:	2a00      	cmp	r2, #0
 80032e0:	d115      	bne.n	800330e <HAL_I2C_Mem_Write+0x11e>
 80032e2:	2180      	movs	r1, #128	; 0x80
 80032e4:	0020      	movs	r0, r4
 80032e6:	9b10      	ldr	r3, [sp, #64]	; 0x40
 80032e8:	9500      	str	r5, [sp, #0]
 80032ea:	f7ff fe73 	bl	8002fd4 <I2C_WaitOnFlagUntilTimeout>
 80032ee:	2800      	cmp	r0, #0
 80032f0:	d000      	beq.n	80032f4 <HAL_I2C_Mem_Write+0x104>
 80032f2:	e797      	b.n	8003224 <HAL_I2C_Mem_Write+0x34>
 80032f4:	8d63      	ldrh	r3, [r4, #42]	; 0x2a
 80032f6:	2bff      	cmp	r3, #255	; 0xff
 80032f8:	d92b      	bls.n	8003352 <HAL_I2C_Mem_Write+0x162>
 80032fa:	23ff      	movs	r3, #255	; 0xff
 80032fc:	8523      	strh	r3, [r4, #40]	; 0x28
 80032fe:	2380      	movs	r3, #128	; 0x80
 8003300:	22ff      	movs	r2, #255	; 0xff
 8003302:	9000      	str	r0, [sp, #0]
 8003304:	045b      	lsls	r3, r3, #17
 8003306:	0039      	movs	r1, r7
 8003308:	0020      	movs	r0, r4
 800330a:	f7ff fde9 	bl	8002ee0 <I2C_TransferConfig>
 800330e:	8d63      	ldrh	r3, [r4, #42]	; 0x2a
 8003310:	2b00      	cmp	r3, #0
 8003312:	d1cc      	bne.n	80032ae <HAL_I2C_Mem_Write+0xbe>
 8003314:	002a      	movs	r2, r5
 8003316:	0020      	movs	r0, r4
 8003318:	9910      	ldr	r1, [sp, #64]	; 0x40
 800331a:	f7ff fe33 	bl	8002f84 <I2C_WaitOnSTOPFlagUntilTimeout>
 800331e:	2800      	cmp	r0, #0
 8003320:	d000      	beq.n	8003324 <HAL_I2C_Mem_Write+0x134>
 8003322:	e77f      	b.n	8003224 <HAL_I2C_Mem_Write+0x34>
 8003324:	2120      	movs	r1, #32
 8003326:	6823      	ldr	r3, [r4, #0]
 8003328:	4d0d      	ldr	r5, [pc, #52]	; (8003360 <HAL_I2C_Mem_Write+0x170>)
 800332a:	61d9      	str	r1, [r3, #28]
 800332c:	685a      	ldr	r2, [r3, #4]
 800332e:	402a      	ands	r2, r5
 8003330:	605a      	str	r2, [r3, #4]
 8003332:	0023      	movs	r3, r4
 8003334:	3341      	adds	r3, #65	; 0x41
 8003336:	7019      	strb	r1, [r3, #0]
 8003338:	9b05      	ldr	r3, [sp, #20]
 800333a:	3440      	adds	r4, #64	; 0x40
 800333c:	7018      	strb	r0, [r3, #0]
 800333e:	7020      	strb	r0, [r4, #0]
 8003340:	e771      	b.n	8003226 <HAL_I2C_Mem_Write+0x36>
 8003342:	2380      	movs	r3, #128	; 0x80
 8003344:	8d62      	ldrh	r2, [r4, #42]	; 0x2a
 8003346:	049b      	lsls	r3, r3, #18
 8003348:	b292      	uxth	r2, r2
 800334a:	8522      	strh	r2, [r4, #40]	; 0x28
 800334c:	b2d2      	uxtb	r2, r2
 800334e:	9000      	str	r0, [sp, #0]
 8003350:	e7a7      	b.n	80032a2 <HAL_I2C_Mem_Write+0xb2>
 8003352:	8d62      	ldrh	r2, [r4, #42]	; 0x2a
 8003354:	0033      	movs	r3, r6
 8003356:	b292      	uxth	r2, r2
 8003358:	8522      	strh	r2, [r4, #40]	; 0x28
 800335a:	b2d2      	uxtb	r2, r2
 800335c:	9000      	str	r0, [sp, #0]
 800335e:	e7d2      	b.n	8003306 <HAL_I2C_Mem_Write+0x116>
 8003360:	fe00e800 	.word	0xfe00e800

08003364 <HAL_I2C_Mem_Read>:
 8003364:	b5f0      	push	{r4, r5, r6, r7, lr}
 8003366:	b08b      	sub	sp, #44	; 0x2c
 8003368:	9309      	str	r3, [sp, #36]	; 0x24
 800336a:	ab10      	add	r3, sp, #64	; 0x40
 800336c:	9208      	str	r2, [sp, #32]
 800336e:	cb04      	ldmia	r3!, {r2}
 8003370:	0004      	movs	r4, r0
 8003372:	881b      	ldrh	r3, [r3, #0]
 8003374:	9205      	str	r2, [sp, #20]
 8003376:	9306      	str	r3, [sp, #24]
 8003378:	0003      	movs	r3, r0
 800337a:	3341      	adds	r3, #65	; 0x41
 800337c:	9307      	str	r3, [sp, #28]
 800337e:	781b      	ldrb	r3, [r3, #0]
 8003380:	000d      	movs	r5, r1
 8003382:	2002      	movs	r0, #2
 8003384:	2b20      	cmp	r3, #32
 8003386:	d108      	bne.n	800339a <HAL_I2C_Mem_Read+0x36>
 8003388:	2a00      	cmp	r2, #0
 800338a:	d002      	beq.n	8003392 <HAL_I2C_Mem_Read+0x2e>
 800338c:	9b06      	ldr	r3, [sp, #24]
 800338e:	2b00      	cmp	r3, #0
 8003390:	d105      	bne.n	800339e <HAL_I2C_Mem_Read+0x3a>
 8003392:	2380      	movs	r3, #128	; 0x80
 8003394:	009b      	lsls	r3, r3, #2
 8003396:	6463      	str	r3, [r4, #68]	; 0x44
 8003398:	2001      	movs	r0, #1
 800339a:	b00b      	add	sp, #44	; 0x2c
 800339c:	bdf0      	pop	{r4, r5, r6, r7, pc}
 800339e:	0023      	movs	r3, r4
 80033a0:	3340      	adds	r3, #64	; 0x40
 80033a2:	9304      	str	r3, [sp, #16]
 80033a4:	781b      	ldrb	r3, [r3, #0]
 80033a6:	2002      	movs	r0, #2
 80033a8:	2b01      	cmp	r3, #1
 80033aa:	d0f6      	beq.n	800339a <HAL_I2C_Mem_Read+0x36>
 80033ac:	2701      	movs	r7, #1
 80033ae:	9b04      	ldr	r3, [sp, #16]
 80033b0:	701f      	strb	r7, [r3, #0]
 80033b2:	f7ff fc77 	bl	8002ca4 <HAL_GetTick>
 80033b6:	2180      	movs	r1, #128	; 0x80
 80033b8:	9003      	str	r0, [sp, #12]
 80033ba:	9000      	str	r0, [sp, #0]
 80033bc:	2319      	movs	r3, #25
 80033be:	003a      	movs	r2, r7
 80033c0:	0020      	movs	r0, r4
 80033c2:	0209      	lsls	r1, r1, #8
 80033c4:	f7ff fe06 	bl	8002fd4 <I2C_WaitOnFlagUntilTimeout>
 80033c8:	1e06      	subs	r6, r0, #0
 80033ca:	d1e5      	bne.n	8003398 <HAL_I2C_Mem_Read+0x34>
 80033cc:	2322      	movs	r3, #34	; 0x22
 80033ce:	9a07      	ldr	r2, [sp, #28]
 80033d0:	0029      	movs	r1, r5
 80033d2:	7013      	strb	r3, [r2, #0]
 80033d4:	0023      	movs	r3, r4
 80033d6:	3342      	adds	r3, #66	; 0x42
 80033d8:	9307      	str	r3, [sp, #28]
 80033da:	2340      	movs	r3, #64	; 0x40
 80033dc:	9a07      	ldr	r2, [sp, #28]
 80033de:	7013      	strb	r3, [r2, #0]
 80033e0:	9b05      	ldr	r3, [sp, #20]
 80033e2:	6460      	str	r0, [r4, #68]	; 0x44
 80033e4:	6263      	str	r3, [r4, #36]	; 0x24
 80033e6:	9b06      	ldr	r3, [sp, #24]
 80033e8:	6360      	str	r0, [r4, #52]	; 0x34
 80033ea:	8563      	strh	r3, [r4, #42]	; 0x2a
 80033ec:	9b03      	ldr	r3, [sp, #12]
 80033ee:	0020      	movs	r0, r4
 80033f0:	9301      	str	r3, [sp, #4]
 80033f2:	9b12      	ldr	r3, [sp, #72]	; 0x48
 80033f4:	9a08      	ldr	r2, [sp, #32]
 80033f6:	9300      	str	r3, [sp, #0]
 80033f8:	9b09      	ldr	r3, [sp, #36]	; 0x24
 80033fa:	f7ff fe71 	bl	80030e0 <I2C_RequestMemoryRead>
 80033fe:	2800      	cmp	r0, #0
 8003400:	d002      	beq.n	8003408 <HAL_I2C_Mem_Read+0xa4>
 8003402:	9b04      	ldr	r3, [sp, #16]
 8003404:	701e      	strb	r6, [r3, #0]
 8003406:	e7c7      	b.n	8003398 <HAL_I2C_Mem_Read+0x34>
 8003408:	8d62      	ldrh	r2, [r4, #42]	; 0x2a
 800340a:	4b36      	ldr	r3, [pc, #216]	; (80034e4 <HAL_I2C_Mem_Read+0x180>)
 800340c:	2aff      	cmp	r2, #255	; 0xff
 800340e:	d959      	bls.n	80034c4 <HAL_I2C_Mem_Read+0x160>
 8003410:	22ff      	movs	r2, #255	; 0xff
 8003412:	8522      	strh	r2, [r4, #40]	; 0x28
 8003414:	9300      	str	r3, [sp, #0]
 8003416:	2380      	movs	r3, #128	; 0x80
 8003418:	045b      	lsls	r3, r3, #17
 800341a:	0029      	movs	r1, r5
 800341c:	0020      	movs	r0, r4
 800341e:	2680      	movs	r6, #128	; 0x80
 8003420:	f7ff fd5e 	bl	8002ee0 <I2C_TransferConfig>
 8003424:	27ff      	movs	r7, #255	; 0xff
 8003426:	04b6      	lsls	r6, r6, #18
 8003428:	9b03      	ldr	r3, [sp, #12]
 800342a:	2200      	movs	r2, #0
 800342c:	9300      	str	r3, [sp, #0]
 800342e:	2104      	movs	r1, #4
 8003430:	0020      	movs	r0, r4
 8003432:	9b12      	ldr	r3, [sp, #72]	; 0x48
 8003434:	f7ff fdce 	bl	8002fd4 <I2C_WaitOnFlagUntilTimeout>
 8003438:	2800      	cmp	r0, #0
 800343a:	d1ad      	bne.n	8003398 <HAL_I2C_Mem_Read+0x34>
 800343c:	6823      	ldr	r3, [r4, #0]
 800343e:	6a62      	ldr	r2, [r4, #36]	; 0x24
 8003440:	6a5b      	ldr	r3, [r3, #36]	; 0x24
 8003442:	7013      	strb	r3, [r2, #0]
 8003444:	6a63      	ldr	r3, [r4, #36]	; 0x24
 8003446:	8d22      	ldrh	r2, [r4, #40]	; 0x28
 8003448:	3301      	adds	r3, #1
 800344a:	6263      	str	r3, [r4, #36]	; 0x24
 800344c:	8d63      	ldrh	r3, [r4, #42]	; 0x2a
 800344e:	3a01      	subs	r2, #1
 8003450:	3b01      	subs	r3, #1
 8003452:	b29b      	uxth	r3, r3
 8003454:	8563      	strh	r3, [r4, #42]	; 0x2a
 8003456:	8d63      	ldrh	r3, [r4, #42]	; 0x2a
 8003458:	b292      	uxth	r2, r2
 800345a:	8522      	strh	r2, [r4, #40]	; 0x28
 800345c:	2b00      	cmp	r3, #0
 800345e:	d017      	beq.n	8003490 <HAL_I2C_Mem_Read+0x12c>
 8003460:	2a00      	cmp	r2, #0
 8003462:	d115      	bne.n	8003490 <HAL_I2C_Mem_Read+0x12c>
 8003464:	9b03      	ldr	r3, [sp, #12]
 8003466:	2180      	movs	r1, #128	; 0x80
 8003468:	9300      	str	r3, [sp, #0]
 800346a:	0020      	movs	r0, r4
 800346c:	9b12      	ldr	r3, [sp, #72]	; 0x48
 800346e:	f7ff fdb1 	bl	8002fd4 <I2C_WaitOnFlagUntilTimeout>
 8003472:	2800      	cmp	r0, #0
 8003474:	d000      	beq.n	8003478 <HAL_I2C_Mem_Read+0x114>
 8003476:	e78f      	b.n	8003398 <HAL_I2C_Mem_Read+0x34>
 8003478:	8d63      	ldrh	r3, [r4, #42]	; 0x2a
 800347a:	2bff      	cmp	r3, #255	; 0xff
 800347c:	d92a      	bls.n	80034d4 <HAL_I2C_Mem_Read+0x170>
 800347e:	2380      	movs	r3, #128	; 0x80
 8003480:	22ff      	movs	r2, #255	; 0xff
 8003482:	8527      	strh	r7, [r4, #40]	; 0x28
 8003484:	045b      	lsls	r3, r3, #17
 8003486:	9000      	str	r0, [sp, #0]
 8003488:	0029      	movs	r1, r5
 800348a:	0020      	movs	r0, r4
 800348c:	f7ff fd28 	bl	8002ee0 <I2C_TransferConfig>
 8003490:	8d63      	ldrh	r3, [r4, #42]	; 0x2a
 8003492:	2b00      	cmp	r3, #0
 8003494:	d1c8      	bne.n	8003428 <HAL_I2C_Mem_Read+0xc4>
 8003496:	0020      	movs	r0, r4
 8003498:	9a03      	ldr	r2, [sp, #12]
 800349a:	9912      	ldr	r1, [sp, #72]	; 0x48
 800349c:	f7ff fd72 	bl	8002f84 <I2C_WaitOnSTOPFlagUntilTimeout>
 80034a0:	2800      	cmp	r0, #0
 80034a2:	d000      	beq.n	80034a6 <HAL_I2C_Mem_Read+0x142>
 80034a4:	e778      	b.n	8003398 <HAL_I2C_Mem_Read+0x34>
 80034a6:	2120      	movs	r1, #32
 80034a8:	6823      	ldr	r3, [r4, #0]
 80034aa:	4d0f      	ldr	r5, [pc, #60]	; (80034e8 <HAL_I2C_Mem_Read+0x184>)
 80034ac:	61d9      	str	r1, [r3, #28]
 80034ae:	685a      	ldr	r2, [r3, #4]
 80034b0:	402a      	ands	r2, r5
 80034b2:	605a      	str	r2, [r3, #4]
 80034b4:	0023      	movs	r3, r4
 80034b6:	3341      	adds	r3, #65	; 0x41
 80034b8:	7019      	strb	r1, [r3, #0]
 80034ba:	9b07      	ldr	r3, [sp, #28]
 80034bc:	3440      	adds	r4, #64	; 0x40
 80034be:	7018      	strb	r0, [r3, #0]
 80034c0:	7020      	strb	r0, [r4, #0]
 80034c2:	e76a      	b.n	800339a <HAL_I2C_Mem_Read+0x36>
 80034c4:	8d62      	ldrh	r2, [r4, #42]	; 0x2a
 80034c6:	b292      	uxth	r2, r2
 80034c8:	8522      	strh	r2, [r4, #40]	; 0x28
 80034ca:	9300      	str	r3, [sp, #0]
 80034cc:	2380      	movs	r3, #128	; 0x80
 80034ce:	b2d2      	uxtb	r2, r2
 80034d0:	049b      	lsls	r3, r3, #18
 80034d2:	e7a2      	b.n	800341a <HAL_I2C_Mem_Read+0xb6>
 80034d4:	8d62      	ldrh	r2, [r4, #42]	; 0x2a
 80034d6:	0033      	movs	r3, r6
 80034d8:	b292      	uxth	r2, r2
 80034da:	8522      	strh	r2, [r4, #40]	; 0x28
 80034dc:	b2d2      	uxtb	r2, r2
 80034de:	9000      	str	r0, [sp, #0]
 80034e0:	e7d2      	b.n	8003488 <HAL_I2C_Mem_Read+0x124>
 80034e2:	46c0      	nop			; (mov r8, r8)
 80034e4:	80002400 	.word	0x80002400
 80034e8:	fe00e800 	.word	0xfe00e800

080034ec <HAL_I2CEx_ConfigAnalogFilter>:
 80034ec:	b5f0      	push	{r4, r5, r6, r7, lr}
 80034ee:	0004      	movs	r4, r0
 80034f0:	3441      	adds	r4, #65	; 0x41
 80034f2:	7822      	ldrb	r2, [r4, #0]
 80034f4:	0003      	movs	r3, r0
 80034f6:	000f      	movs	r7, r1
 80034f8:	2002      	movs	r0, #2
 80034fa:	b2d6      	uxtb	r6, r2
 80034fc:	2a20      	cmp	r2, #32
 80034fe:	d118      	bne.n	8003532 <HAL_I2CEx_ConfigAnalogFilter+0x46>
 8003500:	001d      	movs	r5, r3
 8003502:	3540      	adds	r5, #64	; 0x40
 8003504:	782a      	ldrb	r2, [r5, #0]
 8003506:	2a01      	cmp	r2, #1
 8003508:	d013      	beq.n	8003532 <HAL_I2CEx_ConfigAnalogFilter+0x46>
 800350a:	2224      	movs	r2, #36	; 0x24
 800350c:	7022      	strb	r2, [r4, #0]
 800350e:	681b      	ldr	r3, [r3, #0]
 8003510:	3a23      	subs	r2, #35	; 0x23
 8003512:	6819      	ldr	r1, [r3, #0]
 8003514:	4807      	ldr	r0, [pc, #28]	; (8003534 <HAL_I2CEx_ConfigAnalogFilter+0x48>)
 8003516:	4391      	bics	r1, r2
 8003518:	6019      	str	r1, [r3, #0]
 800351a:	6819      	ldr	r1, [r3, #0]
 800351c:	4001      	ands	r1, r0
 800351e:	2000      	movs	r0, #0
 8003520:	6019      	str	r1, [r3, #0]
 8003522:	6819      	ldr	r1, [r3, #0]
 8003524:	4339      	orrs	r1, r7
 8003526:	6019      	str	r1, [r3, #0]
 8003528:	6819      	ldr	r1, [r3, #0]
 800352a:	430a      	orrs	r2, r1
 800352c:	601a      	str	r2, [r3, #0]
 800352e:	7026      	strb	r6, [r4, #0]
 8003530:	7028      	strb	r0, [r5, #0]
 8003532:	bdf0      	pop	{r4, r5, r6, r7, pc}
 8003534:	ffffefff 	.word	0xffffefff

08003538 <HAL_I2CEx_ConfigDigitalFilter>:
 8003538:	0002      	movs	r2, r0
 800353a:	b5f0      	push	{r4, r5, r6, r7, lr}
 800353c:	3241      	adds	r2, #65	; 0x41
 800353e:	7814      	ldrb	r4, [r2, #0]
 8003540:	0003      	movs	r3, r0
 8003542:	b2e5      	uxtb	r5, r4
 8003544:	2002      	movs	r0, #2
 8003546:	2c20      	cmp	r4, #32
 8003548:	d117      	bne.n	800357a <HAL_I2CEx_ConfigDigitalFilter+0x42>
 800354a:	001c      	movs	r4, r3
 800354c:	3440      	adds	r4, #64	; 0x40
 800354e:	7826      	ldrb	r6, [r4, #0]
 8003550:	2e01      	cmp	r6, #1
 8003552:	d012      	beq.n	800357a <HAL_I2CEx_ConfigDigitalFilter+0x42>
 8003554:	3022      	adds	r0, #34	; 0x22
 8003556:	7010      	strb	r0, [r2, #0]
 8003558:	681b      	ldr	r3, [r3, #0]
 800355a:	3823      	subs	r0, #35	; 0x23
 800355c:	681e      	ldr	r6, [r3, #0]
 800355e:	4f07      	ldr	r7, [pc, #28]	; (800357c <HAL_I2CEx_ConfigDigitalFilter+0x44>)
 8003560:	4386      	bics	r6, r0
 8003562:	601e      	str	r6, [r3, #0]
 8003564:	681e      	ldr	r6, [r3, #0]
 8003566:	0209      	lsls	r1, r1, #8
 8003568:	403e      	ands	r6, r7
 800356a:	4331      	orrs	r1, r6
 800356c:	6019      	str	r1, [r3, #0]
 800356e:	6819      	ldr	r1, [r3, #0]
 8003570:	4308      	orrs	r0, r1
 8003572:	6018      	str	r0, [r3, #0]
 8003574:	2000      	movs	r0, #0
 8003576:	7015      	strb	r5, [r2, #0]
 8003578:	7020      	strb	r0, [r4, #0]
 800357a:	bdf0      	pop	{r4, r5, r6, r7, pc}
 800357c:	fffff0ff 	.word	0xfffff0ff

08003580 <HAL_RCC_GetSysClockFreq>:
 8003580:	220c      	movs	r2, #12
 8003582:	4b1d      	ldr	r3, [pc, #116]	; (80035f8 <HAL_RCC_GetSysClockFreq+0x78>)
 8003584:	b570      	push	{r4, r5, r6, lr}
 8003586:	68dc      	ldr	r4, [r3, #12]
 8003588:	4022      	ands	r2, r4
 800358a:	2a08      	cmp	r2, #8
 800358c:	d031      	beq.n	80035f2 <HAL_RCC_GetSysClockFreq+0x72>
 800358e:	2a0c      	cmp	r2, #12
 8003590:	d009      	beq.n	80035a6 <HAL_RCC_GetSysClockFreq+0x26>
 8003592:	2a04      	cmp	r2, #4
 8003594:	d125      	bne.n	80035e2 <HAL_RCC_GetSysClockFreq+0x62>
 8003596:	6818      	ldr	r0, [r3, #0]
 8003598:	4b18      	ldr	r3, [pc, #96]	; (80035fc <HAL_RCC_GetSysClockFreq+0x7c>)
 800359a:	06c0      	lsls	r0, r0, #27
 800359c:	17c0      	asrs	r0, r0, #31
 800359e:	4018      	ands	r0, r3
 80035a0:	4b17      	ldr	r3, [pc, #92]	; (8003600 <HAL_RCC_GetSysClockFreq+0x80>)
 80035a2:	18c0      	adds	r0, r0, r3
 80035a4:	bd70      	pop	{r4, r5, r6, pc}
 80035a6:	02a2      	lsls	r2, r4, #10
 80035a8:	4816      	ldr	r0, [pc, #88]	; (8003604 <HAL_RCC_GetSysClockFreq+0x84>)
 80035aa:	0f12      	lsrs	r2, r2, #28
 80035ac:	5c80      	ldrb	r0, [r0, r2]
 80035ae:	2280      	movs	r2, #128	; 0x80
 80035b0:	0224      	lsls	r4, r4, #8
 80035b2:	68d9      	ldr	r1, [r3, #12]
 80035b4:	0fa4      	lsrs	r4, r4, #30
 80035b6:	0252      	lsls	r2, r2, #9
 80035b8:	3401      	adds	r4, #1
 80035ba:	4211      	tst	r1, r2
 80035bc:	d009      	beq.n	80035d2 <HAL_RCC_GetSysClockFreq+0x52>
 80035be:	4a12      	ldr	r2, [pc, #72]	; (8003608 <HAL_RCC_GetSysClockFreq+0x88>)
 80035c0:	2300      	movs	r3, #0
 80035c2:	2100      	movs	r1, #0
 80035c4:	f7fc fe60 	bl	8000288 <__aeabi_lmul>
 80035c8:	0022      	movs	r2, r4
 80035ca:	2300      	movs	r3, #0
 80035cc:	f7fc fe3c 	bl	8000248 <__aeabi_uldivmod>
 80035d0:	e7e8      	b.n	80035a4 <HAL_RCC_GetSysClockFreq+0x24>
 80035d2:	681a      	ldr	r2, [r3, #0]
 80035d4:	2310      	movs	r3, #16
 80035d6:	421a      	tst	r2, r3
 80035d8:	d001      	beq.n	80035de <HAL_RCC_GetSysClockFreq+0x5e>
 80035da:	4a0c      	ldr	r2, [pc, #48]	; (800360c <HAL_RCC_GetSysClockFreq+0x8c>)
 80035dc:	e7f0      	b.n	80035c0 <HAL_RCC_GetSysClockFreq+0x40>
 80035de:	4a08      	ldr	r2, [pc, #32]	; (8003600 <HAL_RCC_GetSysClockFreq+0x80>)
 80035e0:	e7ee      	b.n	80035c0 <HAL_RCC_GetSysClockFreq+0x40>
 80035e2:	2080      	movs	r0, #128	; 0x80
 80035e4:	685b      	ldr	r3, [r3, #4]
 80035e6:	0200      	lsls	r0, r0, #8
 80035e8:	041b      	lsls	r3, r3, #16
 80035ea:	0f5b      	lsrs	r3, r3, #29
 80035ec:	3301      	adds	r3, #1
 80035ee:	4098      	lsls	r0, r3
 80035f0:	e7d8      	b.n	80035a4 <HAL_RCC_GetSysClockFreq+0x24>
 80035f2:	4805      	ldr	r0, [pc, #20]	; (8003608 <HAL_RCC_GetSysClockFreq+0x88>)
 80035f4:	e7d6      	b.n	80035a4 <HAL_RCC_GetSysClockFreq+0x24>
 80035f6:	46c0      	nop			; (mov r8, r8)
 80035f8:	40021000 	.word	0x40021000
 80035fc:	ff48e500 	.word	0xff48e500
 8003600:	00f42400 	.word	0x00f42400
 8003604:	080059f5 	.word	0x080059f5
 8003608:	007a1200 	.word	0x007a1200
 800360c:	003d0900 	.word	0x003d0900

08003610 <HAL_RCC_OscConfig>:
 8003610:	b5f0      	push	{r4, r5, r6, r7, lr}
 8003612:	0005      	movs	r5, r0
 8003614:	b087      	sub	sp, #28
 8003616:	2800      	cmp	r0, #0
 8003618:	d059      	beq.n	80036ce <HAL_RCC_OscConfig+0xbe>
 800361a:	230c      	movs	r3, #12
 800361c:	4cbf      	ldr	r4, [pc, #764]	; (800391c <HAL_RCC_OscConfig+0x30c>)
 800361e:	6802      	ldr	r2, [r0, #0]
 8003620:	68e6      	ldr	r6, [r4, #12]
 8003622:	68e7      	ldr	r7, [r4, #12]
 8003624:	401e      	ands	r6, r3
 8003626:	2380      	movs	r3, #128	; 0x80
 8003628:	025b      	lsls	r3, r3, #9
 800362a:	401f      	ands	r7, r3
 800362c:	07d2      	lsls	r2, r2, #31
 800362e:	d442      	bmi.n	80036b6 <HAL_RCC_OscConfig+0xa6>
 8003630:	682b      	ldr	r3, [r5, #0]
 8003632:	079b      	lsls	r3, r3, #30
 8003634:	d500      	bpl.n	8003638 <HAL_RCC_OscConfig+0x28>
 8003636:	e08b      	b.n	8003750 <HAL_RCC_OscConfig+0x140>
 8003638:	682b      	ldr	r3, [r5, #0]
 800363a:	06db      	lsls	r3, r3, #27
 800363c:	d529      	bpl.n	8003692 <HAL_RCC_OscConfig+0x82>
 800363e:	2e00      	cmp	r6, #0
 8003640:	d000      	beq.n	8003644 <HAL_RCC_OscConfig+0x34>
 8003642:	e0dc      	b.n	80037fe <HAL_RCC_OscConfig+0x1ee>
 8003644:	6823      	ldr	r3, [r4, #0]
 8003646:	059b      	lsls	r3, r3, #22
 8003648:	d502      	bpl.n	8003650 <HAL_RCC_OscConfig+0x40>
 800364a:	69eb      	ldr	r3, [r5, #28]
 800364c:	2b00      	cmp	r3, #0
 800364e:	d03e      	beq.n	80036ce <HAL_RCC_OscConfig+0xbe>
 8003650:	6862      	ldr	r2, [r4, #4]
 8003652:	49b3      	ldr	r1, [pc, #716]	; (8003920 <HAL_RCC_OscConfig+0x310>)
 8003654:	6a6b      	ldr	r3, [r5, #36]	; 0x24
 8003656:	400a      	ands	r2, r1
 8003658:	431a      	orrs	r2, r3
 800365a:	6062      	str	r2, [r4, #4]
 800365c:	6861      	ldr	r1, [r4, #4]
 800365e:	6a2a      	ldr	r2, [r5, #32]
 8003660:	0209      	lsls	r1, r1, #8
 8003662:	0a09      	lsrs	r1, r1, #8
 8003664:	0612      	lsls	r2, r2, #24
 8003666:	430a      	orrs	r2, r1
 8003668:	6062      	str	r2, [r4, #4]
 800366a:	2280      	movs	r2, #128	; 0x80
 800366c:	0b5b      	lsrs	r3, r3, #13
 800366e:	3301      	adds	r3, #1
 8003670:	0212      	lsls	r2, r2, #8
 8003672:	409a      	lsls	r2, r3
 8003674:	0013      	movs	r3, r2
 8003676:	68e1      	ldr	r1, [r4, #12]
 8003678:	060a      	lsls	r2, r1, #24
 800367a:	49aa      	ldr	r1, [pc, #680]	; (8003924 <HAL_RCC_OscConfig+0x314>)
 800367c:	0f12      	lsrs	r2, r2, #28
 800367e:	5c8a      	ldrb	r2, [r1, r2]
 8003680:	40d3      	lsrs	r3, r2
 8003682:	4aa9      	ldr	r2, [pc, #676]	; (8003928 <HAL_RCC_OscConfig+0x318>)
 8003684:	6013      	str	r3, [r2, #0]
 8003686:	4ba9      	ldr	r3, [pc, #676]	; (800392c <HAL_RCC_OscConfig+0x31c>)
 8003688:	6818      	ldr	r0, [r3, #0]
 800368a:	f7ff fac7 	bl	8002c1c <HAL_InitTick>
 800368e:	2800      	cmp	r0, #0
 8003690:	d134      	bne.n	80036fc <HAL_RCC_OscConfig+0xec>
 8003692:	682b      	ldr	r3, [r5, #0]
 8003694:	071b      	lsls	r3, r3, #28
 8003696:	d500      	bpl.n	800369a <HAL_RCC_OscConfig+0x8a>
 8003698:	e0e8      	b.n	800386c <HAL_RCC_OscConfig+0x25c>
 800369a:	682b      	ldr	r3, [r5, #0]
 800369c:	075b      	lsls	r3, r3, #29
 800369e:	d500      	bpl.n	80036a2 <HAL_RCC_OscConfig+0x92>
 80036a0:	e10a      	b.n	80038b8 <HAL_RCC_OscConfig+0x2a8>
 80036a2:	682b      	ldr	r3, [r5, #0]
 80036a4:	069b      	lsls	r3, r3, #26
 80036a6:	d500      	bpl.n	80036aa <HAL_RCC_OscConfig+0x9a>
 80036a8:	e191      	b.n	80039ce <HAL_RCC_OscConfig+0x3be>
 80036aa:	6aab      	ldr	r3, [r5, #40]	; 0x28
 80036ac:	2b00      	cmp	r3, #0
 80036ae:	d000      	beq.n	80036b2 <HAL_RCC_OscConfig+0xa2>
 80036b0:	e1c0      	b.n	8003a34 <HAL_RCC_OscConfig+0x424>
 80036b2:	2000      	movs	r0, #0
 80036b4:	e022      	b.n	80036fc <HAL_RCC_OscConfig+0xec>
 80036b6:	2e08      	cmp	r6, #8
 80036b8:	d003      	beq.n	80036c2 <HAL_RCC_OscConfig+0xb2>
 80036ba:	2e0c      	cmp	r6, #12
 80036bc:	d109      	bne.n	80036d2 <HAL_RCC_OscConfig+0xc2>
 80036be:	2f00      	cmp	r7, #0
 80036c0:	d007      	beq.n	80036d2 <HAL_RCC_OscConfig+0xc2>
 80036c2:	6823      	ldr	r3, [r4, #0]
 80036c4:	039b      	lsls	r3, r3, #14
 80036c6:	d5b3      	bpl.n	8003630 <HAL_RCC_OscConfig+0x20>
 80036c8:	686b      	ldr	r3, [r5, #4]
 80036ca:	2b00      	cmp	r3, #0
 80036cc:	d1b0      	bne.n	8003630 <HAL_RCC_OscConfig+0x20>
 80036ce:	2001      	movs	r0, #1
 80036d0:	e014      	b.n	80036fc <HAL_RCC_OscConfig+0xec>
 80036d2:	686a      	ldr	r2, [r5, #4]
 80036d4:	429a      	cmp	r2, r3
 80036d6:	d113      	bne.n	8003700 <HAL_RCC_OscConfig+0xf0>
 80036d8:	6822      	ldr	r2, [r4, #0]
 80036da:	4313      	orrs	r3, r2
 80036dc:	6023      	str	r3, [r4, #0]
 80036de:	f7ff fae1 	bl	8002ca4 <HAL_GetTick>
 80036e2:	9001      	str	r0, [sp, #4]
 80036e4:	2280      	movs	r2, #128	; 0x80
 80036e6:	6823      	ldr	r3, [r4, #0]
 80036e8:	0292      	lsls	r2, r2, #10
 80036ea:	4213      	tst	r3, r2
 80036ec:	d1a0      	bne.n	8003630 <HAL_RCC_OscConfig+0x20>
 80036ee:	f7ff fad9 	bl	8002ca4 <HAL_GetTick>
 80036f2:	9b01      	ldr	r3, [sp, #4]
 80036f4:	1ac0      	subs	r0, r0, r3
 80036f6:	2864      	cmp	r0, #100	; 0x64
 80036f8:	d9f4      	bls.n	80036e4 <HAL_RCC_OscConfig+0xd4>
 80036fa:	2003      	movs	r0, #3
 80036fc:	b007      	add	sp, #28
 80036fe:	bdf0      	pop	{r4, r5, r6, r7, pc}
 8003700:	21a0      	movs	r1, #160	; 0xa0
 8003702:	02c9      	lsls	r1, r1, #11
 8003704:	428a      	cmp	r2, r1
 8003706:	d105      	bne.n	8003714 <HAL_RCC_OscConfig+0x104>
 8003708:	2280      	movs	r2, #128	; 0x80
 800370a:	6821      	ldr	r1, [r4, #0]
 800370c:	02d2      	lsls	r2, r2, #11
 800370e:	430a      	orrs	r2, r1
 8003710:	6022      	str	r2, [r4, #0]
 8003712:	e7e1      	b.n	80036d8 <HAL_RCC_OscConfig+0xc8>
 8003714:	6821      	ldr	r1, [r4, #0]
 8003716:	4886      	ldr	r0, [pc, #536]	; (8003930 <HAL_RCC_OscConfig+0x320>)
 8003718:	4001      	ands	r1, r0
 800371a:	6021      	str	r1, [r4, #0]
 800371c:	6821      	ldr	r1, [r4, #0]
 800371e:	400b      	ands	r3, r1
 8003720:	9305      	str	r3, [sp, #20]
 8003722:	9b05      	ldr	r3, [sp, #20]
 8003724:	4983      	ldr	r1, [pc, #524]	; (8003934 <HAL_RCC_OscConfig+0x324>)
 8003726:	6823      	ldr	r3, [r4, #0]
 8003728:	400b      	ands	r3, r1
 800372a:	6023      	str	r3, [r4, #0]
 800372c:	2a00      	cmp	r2, #0
 800372e:	d1d6      	bne.n	80036de <HAL_RCC_OscConfig+0xce>
 8003730:	f7ff fab8 	bl	8002ca4 <HAL_GetTick>
 8003734:	9001      	str	r0, [sp, #4]
 8003736:	2280      	movs	r2, #128	; 0x80
 8003738:	6823      	ldr	r3, [r4, #0]
 800373a:	0292      	lsls	r2, r2, #10
 800373c:	4213      	tst	r3, r2
 800373e:	d100      	bne.n	8003742 <HAL_RCC_OscConfig+0x132>
 8003740:	e776      	b.n	8003630 <HAL_RCC_OscConfig+0x20>
 8003742:	f7ff faaf 	bl	8002ca4 <HAL_GetTick>
 8003746:	9b01      	ldr	r3, [sp, #4]
 8003748:	1ac0      	subs	r0, r0, r3
 800374a:	2864      	cmp	r0, #100	; 0x64
 800374c:	d9f3      	bls.n	8003736 <HAL_RCC_OscConfig+0x126>
 800374e:	e7d4      	b.n	80036fa <HAL_RCC_OscConfig+0xea>
 8003750:	68ea      	ldr	r2, [r5, #12]
 8003752:	2e04      	cmp	r6, #4
 8003754:	d003      	beq.n	800375e <HAL_RCC_OscConfig+0x14e>
 8003756:	2e0c      	cmp	r6, #12
 8003758:	d124      	bne.n	80037a4 <HAL_RCC_OscConfig+0x194>
 800375a:	2f00      	cmp	r7, #0
 800375c:	d122      	bne.n	80037a4 <HAL_RCC_OscConfig+0x194>
 800375e:	6823      	ldr	r3, [r4, #0]
 8003760:	075b      	lsls	r3, r3, #29
 8003762:	d501      	bpl.n	8003768 <HAL_RCC_OscConfig+0x158>
 8003764:	2a00      	cmp	r2, #0
 8003766:	d0b2      	beq.n	80036ce <HAL_RCC_OscConfig+0xbe>
 8003768:	6861      	ldr	r1, [r4, #4]
 800376a:	692b      	ldr	r3, [r5, #16]
 800376c:	4872      	ldr	r0, [pc, #456]	; (8003938 <HAL_RCC_OscConfig+0x328>)
 800376e:	021b      	lsls	r3, r3, #8
 8003770:	4001      	ands	r1, r0
 8003772:	430b      	orrs	r3, r1
 8003774:	2109      	movs	r1, #9
 8003776:	6063      	str	r3, [r4, #4]
 8003778:	6823      	ldr	r3, [r4, #0]
 800377a:	438b      	bics	r3, r1
 800377c:	4313      	orrs	r3, r2
 800377e:	6023      	str	r3, [r4, #0]
 8003780:	f7ff fefe 	bl	8003580 <HAL_RCC_GetSysClockFreq>
 8003784:	68e3      	ldr	r3, [r4, #12]
 8003786:	4a67      	ldr	r2, [pc, #412]	; (8003924 <HAL_RCC_OscConfig+0x314>)
 8003788:	061b      	lsls	r3, r3, #24
 800378a:	0f1b      	lsrs	r3, r3, #28
 800378c:	5cd3      	ldrb	r3, [r2, r3]
 800378e:	40d8      	lsrs	r0, r3
 8003790:	4b65      	ldr	r3, [pc, #404]	; (8003928 <HAL_RCC_OscConfig+0x318>)
 8003792:	6018      	str	r0, [r3, #0]
 8003794:	4b65      	ldr	r3, [pc, #404]	; (800392c <HAL_RCC_OscConfig+0x31c>)
 8003796:	6818      	ldr	r0, [r3, #0]
 8003798:	f7ff fa40 	bl	8002c1c <HAL_InitTick>
 800379c:	2800      	cmp	r0, #0
 800379e:	d100      	bne.n	80037a2 <HAL_RCC_OscConfig+0x192>
 80037a0:	e74a      	b.n	8003638 <HAL_RCC_OscConfig+0x28>
 80037a2:	e7ab      	b.n	80036fc <HAL_RCC_OscConfig+0xec>
 80037a4:	6823      	ldr	r3, [r4, #0]
 80037a6:	2a00      	cmp	r2, #0
 80037a8:	d018      	beq.n	80037dc <HAL_RCC_OscConfig+0x1cc>
 80037aa:	2109      	movs	r1, #9
 80037ac:	438b      	bics	r3, r1
 80037ae:	4313      	orrs	r3, r2
 80037b0:	6023      	str	r3, [r4, #0]
 80037b2:	f7ff fa77 	bl	8002ca4 <HAL_GetTick>
 80037b6:	0007      	movs	r7, r0
 80037b8:	2204      	movs	r2, #4
 80037ba:	6823      	ldr	r3, [r4, #0]
 80037bc:	4213      	tst	r3, r2
 80037be:	d007      	beq.n	80037d0 <HAL_RCC_OscConfig+0x1c0>
 80037c0:	6862      	ldr	r2, [r4, #4]
 80037c2:	692b      	ldr	r3, [r5, #16]
 80037c4:	495c      	ldr	r1, [pc, #368]	; (8003938 <HAL_RCC_OscConfig+0x328>)
 80037c6:	021b      	lsls	r3, r3, #8
 80037c8:	400a      	ands	r2, r1
 80037ca:	4313      	orrs	r3, r2
 80037cc:	6063      	str	r3, [r4, #4]
 80037ce:	e733      	b.n	8003638 <HAL_RCC_OscConfig+0x28>
 80037d0:	f7ff fa68 	bl	8002ca4 <HAL_GetTick>
 80037d4:	1bc0      	subs	r0, r0, r7
 80037d6:	2802      	cmp	r0, #2
 80037d8:	d9ee      	bls.n	80037b8 <HAL_RCC_OscConfig+0x1a8>
 80037da:	e78e      	b.n	80036fa <HAL_RCC_OscConfig+0xea>
 80037dc:	2201      	movs	r2, #1
 80037de:	4393      	bics	r3, r2
 80037e0:	6023      	str	r3, [r4, #0]
 80037e2:	f7ff fa5f 	bl	8002ca4 <HAL_GetTick>
 80037e6:	0007      	movs	r7, r0
 80037e8:	2204      	movs	r2, #4
 80037ea:	6823      	ldr	r3, [r4, #0]
 80037ec:	4213      	tst	r3, r2
 80037ee:	d100      	bne.n	80037f2 <HAL_RCC_OscConfig+0x1e2>
 80037f0:	e722      	b.n	8003638 <HAL_RCC_OscConfig+0x28>
 80037f2:	f7ff fa57 	bl	8002ca4 <HAL_GetTick>
 80037f6:	1bc0      	subs	r0, r0, r7
 80037f8:	2802      	cmp	r0, #2
 80037fa:	d9f5      	bls.n	80037e8 <HAL_RCC_OscConfig+0x1d8>
 80037fc:	e77d      	b.n	80036fa <HAL_RCC_OscConfig+0xea>
 80037fe:	69eb      	ldr	r3, [r5, #28]
 8003800:	2b00      	cmp	r3, #0
 8003802:	d020      	beq.n	8003846 <HAL_RCC_OscConfig+0x236>
 8003804:	2380      	movs	r3, #128	; 0x80
 8003806:	6822      	ldr	r2, [r4, #0]
 8003808:	005b      	lsls	r3, r3, #1
 800380a:	4313      	orrs	r3, r2
 800380c:	6023      	str	r3, [r4, #0]
 800380e:	f7ff fa49 	bl	8002ca4 <HAL_GetTick>
 8003812:	0007      	movs	r7, r0
 8003814:	2280      	movs	r2, #128	; 0x80
 8003816:	6823      	ldr	r3, [r4, #0]
 8003818:	0092      	lsls	r2, r2, #2
 800381a:	4213      	tst	r3, r2
 800381c:	d00d      	beq.n	800383a <HAL_RCC_OscConfig+0x22a>
 800381e:	6863      	ldr	r3, [r4, #4]
 8003820:	4a3f      	ldr	r2, [pc, #252]	; (8003920 <HAL_RCC_OscConfig+0x310>)
 8003822:	4013      	ands	r3, r2
 8003824:	6a6a      	ldr	r2, [r5, #36]	; 0x24
 8003826:	4313      	orrs	r3, r2
 8003828:	6063      	str	r3, [r4, #4]
 800382a:	6862      	ldr	r2, [r4, #4]
 800382c:	6a2b      	ldr	r3, [r5, #32]
 800382e:	0212      	lsls	r2, r2, #8
 8003830:	061b      	lsls	r3, r3, #24
 8003832:	0a12      	lsrs	r2, r2, #8
 8003834:	4313      	orrs	r3, r2
 8003836:	6063      	str	r3, [r4, #4]
 8003838:	e72b      	b.n	8003692 <HAL_RCC_OscConfig+0x82>
 800383a:	f7ff fa33 	bl	8002ca4 <HAL_GetTick>
 800383e:	1bc0      	subs	r0, r0, r7
 8003840:	2802      	cmp	r0, #2
 8003842:	d9e7      	bls.n	8003814 <HAL_RCC_OscConfig+0x204>
 8003844:	e759      	b.n	80036fa <HAL_RCC_OscConfig+0xea>
 8003846:	6823      	ldr	r3, [r4, #0]
 8003848:	4a3c      	ldr	r2, [pc, #240]	; (800393c <HAL_RCC_OscConfig+0x32c>)
 800384a:	4013      	ands	r3, r2
 800384c:	6023      	str	r3, [r4, #0]
 800384e:	f7ff fa29 	bl	8002ca4 <HAL_GetTick>
 8003852:	0007      	movs	r7, r0
 8003854:	2280      	movs	r2, #128	; 0x80
 8003856:	6823      	ldr	r3, [r4, #0]
 8003858:	0092      	lsls	r2, r2, #2
 800385a:	4213      	tst	r3, r2
 800385c:	d100      	bne.n	8003860 <HAL_RCC_OscConfig+0x250>
 800385e:	e718      	b.n	8003692 <HAL_RCC_OscConfig+0x82>
 8003860:	f7ff fa20 	bl	8002ca4 <HAL_GetTick>
 8003864:	1bc0      	subs	r0, r0, r7
 8003866:	2802      	cmp	r0, #2
 8003868:	d9f4      	bls.n	8003854 <HAL_RCC_OscConfig+0x244>
 800386a:	e746      	b.n	80036fa <HAL_RCC_OscConfig+0xea>
 800386c:	696a      	ldr	r2, [r5, #20]
 800386e:	2301      	movs	r3, #1
 8003870:	2a00      	cmp	r2, #0
 8003872:	d010      	beq.n	8003896 <HAL_RCC_OscConfig+0x286>
 8003874:	6d22      	ldr	r2, [r4, #80]	; 0x50
 8003876:	4313      	orrs	r3, r2
 8003878:	6523      	str	r3, [r4, #80]	; 0x50
 800387a:	f7ff fa13 	bl	8002ca4 <HAL_GetTick>
 800387e:	0007      	movs	r7, r0
 8003880:	2202      	movs	r2, #2
 8003882:	6d23      	ldr	r3, [r4, #80]	; 0x50
 8003884:	4213      	tst	r3, r2
 8003886:	d000      	beq.n	800388a <HAL_RCC_OscConfig+0x27a>
 8003888:	e707      	b.n	800369a <HAL_RCC_OscConfig+0x8a>
 800388a:	f7ff fa0b 	bl	8002ca4 <HAL_GetTick>
 800388e:	1bc0      	subs	r0, r0, r7
 8003890:	2802      	cmp	r0, #2
 8003892:	d9f5      	bls.n	8003880 <HAL_RCC_OscConfig+0x270>
 8003894:	e731      	b.n	80036fa <HAL_RCC_OscConfig+0xea>
 8003896:	6d22      	ldr	r2, [r4, #80]	; 0x50
 8003898:	439a      	bics	r2, r3
 800389a:	6522      	str	r2, [r4, #80]	; 0x50
 800389c:	f7ff fa02 	bl	8002ca4 <HAL_GetTick>
 80038a0:	0007      	movs	r7, r0
 80038a2:	2202      	movs	r2, #2
 80038a4:	6d23      	ldr	r3, [r4, #80]	; 0x50
 80038a6:	4213      	tst	r3, r2
 80038a8:	d100      	bne.n	80038ac <HAL_RCC_OscConfig+0x29c>
 80038aa:	e6f6      	b.n	800369a <HAL_RCC_OscConfig+0x8a>
 80038ac:	f7ff f9fa 	bl	8002ca4 <HAL_GetTick>
 80038b0:	1bc0      	subs	r0, r0, r7
 80038b2:	2802      	cmp	r0, #2
 80038b4:	d9f5      	bls.n	80038a2 <HAL_RCC_OscConfig+0x292>
 80038b6:	e720      	b.n	80036fa <HAL_RCC_OscConfig+0xea>
 80038b8:	2380      	movs	r3, #128	; 0x80
 80038ba:	2100      	movs	r1, #0
 80038bc:	6ba2      	ldr	r2, [r4, #56]	; 0x38
 80038be:	055b      	lsls	r3, r3, #21
 80038c0:	9101      	str	r1, [sp, #4]
 80038c2:	421a      	tst	r2, r3
 80038c4:	d104      	bne.n	80038d0 <HAL_RCC_OscConfig+0x2c0>
 80038c6:	6ba2      	ldr	r2, [r4, #56]	; 0x38
 80038c8:	4313      	orrs	r3, r2
 80038ca:	63a3      	str	r3, [r4, #56]	; 0x38
 80038cc:	2301      	movs	r3, #1
 80038ce:	9301      	str	r3, [sp, #4]
 80038d0:	2280      	movs	r2, #128	; 0x80
 80038d2:	4f1b      	ldr	r7, [pc, #108]	; (8003940 <HAL_RCC_OscConfig+0x330>)
 80038d4:	0052      	lsls	r2, r2, #1
 80038d6:	683b      	ldr	r3, [r7, #0]
 80038d8:	4213      	tst	r3, r2
 80038da:	d008      	beq.n	80038ee <HAL_RCC_OscConfig+0x2de>
 80038dc:	2280      	movs	r2, #128	; 0x80
 80038de:	68ab      	ldr	r3, [r5, #8]
 80038e0:	0052      	lsls	r2, r2, #1
 80038e2:	4293      	cmp	r3, r2
 80038e4:	d12e      	bne.n	8003944 <HAL_RCC_OscConfig+0x334>
 80038e6:	6d22      	ldr	r2, [r4, #80]	; 0x50
 80038e8:	4313      	orrs	r3, r2
 80038ea:	6523      	str	r3, [r4, #80]	; 0x50
 80038ec:	e04f      	b.n	800398e <HAL_RCC_OscConfig+0x37e>
 80038ee:	2280      	movs	r2, #128	; 0x80
 80038f0:	683b      	ldr	r3, [r7, #0]
 80038f2:	0052      	lsls	r2, r2, #1
 80038f4:	4313      	orrs	r3, r2
 80038f6:	603b      	str	r3, [r7, #0]
 80038f8:	f7ff f9d4 	bl	8002ca4 <HAL_GetTick>
 80038fc:	2380      	movs	r3, #128	; 0x80
 80038fe:	005b      	lsls	r3, r3, #1
 8003900:	9002      	str	r0, [sp, #8]
 8003902:	9303      	str	r3, [sp, #12]
 8003904:	683b      	ldr	r3, [r7, #0]
 8003906:	9a03      	ldr	r2, [sp, #12]
 8003908:	4213      	tst	r3, r2
 800390a:	d1e7      	bne.n	80038dc <HAL_RCC_OscConfig+0x2cc>
 800390c:	f7ff f9ca 	bl	8002ca4 <HAL_GetTick>
 8003910:	9b02      	ldr	r3, [sp, #8]
 8003912:	1ac0      	subs	r0, r0, r3
 8003914:	2864      	cmp	r0, #100	; 0x64
 8003916:	d9f5      	bls.n	8003904 <HAL_RCC_OscConfig+0x2f4>
 8003918:	e6ef      	b.n	80036fa <HAL_RCC_OscConfig+0xea>
 800391a:	46c0      	nop			; (mov r8, r8)
 800391c:	40021000 	.word	0x40021000
 8003920:	ffff1fff 	.word	0xffff1fff
 8003924:	080059dd 	.word	0x080059dd
 8003928:	20000000 	.word	0x20000000
 800392c:	20000008 	.word	0x20000008
 8003930:	fffeffff 	.word	0xfffeffff
 8003934:	fffbffff 	.word	0xfffbffff
 8003938:	ffffe0ff 	.word	0xffffe0ff
 800393c:	fffffeff 	.word	0xfffffeff
 8003940:	40007000 	.word	0x40007000
 8003944:	2b00      	cmp	r3, #0
 8003946:	d116      	bne.n	8003976 <HAL_RCC_OscConfig+0x366>
 8003948:	6d23      	ldr	r3, [r4, #80]	; 0x50
 800394a:	4a6b      	ldr	r2, [pc, #428]	; (8003af8 <HAL_RCC_OscConfig+0x4e8>)
 800394c:	4013      	ands	r3, r2
 800394e:	6523      	str	r3, [r4, #80]	; 0x50
 8003950:	6d23      	ldr	r3, [r4, #80]	; 0x50
 8003952:	4a6a      	ldr	r2, [pc, #424]	; (8003afc <HAL_RCC_OscConfig+0x4ec>)
 8003954:	4013      	ands	r3, r2
 8003956:	6523      	str	r3, [r4, #80]	; 0x50
 8003958:	f7ff f9a4 	bl	8002ca4 <HAL_GetTick>
 800395c:	0007      	movs	r7, r0
 800395e:	2280      	movs	r2, #128	; 0x80
 8003960:	6d23      	ldr	r3, [r4, #80]	; 0x50
 8003962:	0092      	lsls	r2, r2, #2
 8003964:	4213      	tst	r3, r2
 8003966:	d01a      	beq.n	800399e <HAL_RCC_OscConfig+0x38e>
 8003968:	f7ff f99c 	bl	8002ca4 <HAL_GetTick>
 800396c:	4b64      	ldr	r3, [pc, #400]	; (8003b00 <HAL_RCC_OscConfig+0x4f0>)
 800396e:	1bc0      	subs	r0, r0, r7
 8003970:	4298      	cmp	r0, r3
 8003972:	d9f4      	bls.n	800395e <HAL_RCC_OscConfig+0x34e>
 8003974:	e6c1      	b.n	80036fa <HAL_RCC_OscConfig+0xea>
 8003976:	21a0      	movs	r1, #160	; 0xa0
 8003978:	00c9      	lsls	r1, r1, #3
 800397a:	428b      	cmp	r3, r1
 800397c:	d118      	bne.n	80039b0 <HAL_RCC_OscConfig+0x3a0>
 800397e:	2380      	movs	r3, #128	; 0x80
 8003980:	6d21      	ldr	r1, [r4, #80]	; 0x50
 8003982:	00db      	lsls	r3, r3, #3
 8003984:	430b      	orrs	r3, r1
 8003986:	6523      	str	r3, [r4, #80]	; 0x50
 8003988:	6d23      	ldr	r3, [r4, #80]	; 0x50
 800398a:	431a      	orrs	r2, r3
 800398c:	6522      	str	r2, [r4, #80]	; 0x50
 800398e:	f7ff f989 	bl	8002ca4 <HAL_GetTick>
 8003992:	0007      	movs	r7, r0
 8003994:	2280      	movs	r2, #128	; 0x80
 8003996:	6d23      	ldr	r3, [r4, #80]	; 0x50
 8003998:	0092      	lsls	r2, r2, #2
 800399a:	4213      	tst	r3, r2
 800399c:	d010      	beq.n	80039c0 <HAL_RCC_OscConfig+0x3b0>
 800399e:	9b01      	ldr	r3, [sp, #4]
 80039a0:	2b01      	cmp	r3, #1
 80039a2:	d000      	beq.n	80039a6 <HAL_RCC_OscConfig+0x396>
 80039a4:	e67d      	b.n	80036a2 <HAL_RCC_OscConfig+0x92>
 80039a6:	6ba3      	ldr	r3, [r4, #56]	; 0x38
 80039a8:	4a56      	ldr	r2, [pc, #344]	; (8003b04 <HAL_RCC_OscConfig+0x4f4>)
 80039aa:	4013      	ands	r3, r2
 80039ac:	63a3      	str	r3, [r4, #56]	; 0x38
 80039ae:	e678      	b.n	80036a2 <HAL_RCC_OscConfig+0x92>
 80039b0:	6d23      	ldr	r3, [r4, #80]	; 0x50
 80039b2:	4a51      	ldr	r2, [pc, #324]	; (8003af8 <HAL_RCC_OscConfig+0x4e8>)
 80039b4:	4013      	ands	r3, r2
 80039b6:	6523      	str	r3, [r4, #80]	; 0x50
 80039b8:	6d23      	ldr	r3, [r4, #80]	; 0x50
 80039ba:	4a50      	ldr	r2, [pc, #320]	; (8003afc <HAL_RCC_OscConfig+0x4ec>)
 80039bc:	4013      	ands	r3, r2
 80039be:	e794      	b.n	80038ea <HAL_RCC_OscConfig+0x2da>
 80039c0:	f7ff f970 	bl	8002ca4 <HAL_GetTick>
 80039c4:	4b4e      	ldr	r3, [pc, #312]	; (8003b00 <HAL_RCC_OscConfig+0x4f0>)
 80039c6:	1bc0      	subs	r0, r0, r7
 80039c8:	4298      	cmp	r0, r3
 80039ca:	d9e3      	bls.n	8003994 <HAL_RCC_OscConfig+0x384>
 80039cc:	e695      	b.n	80036fa <HAL_RCC_OscConfig+0xea>
 80039ce:	69a9      	ldr	r1, [r5, #24]
 80039d0:	2301      	movs	r3, #1
 80039d2:	4a4d      	ldr	r2, [pc, #308]	; (8003b08 <HAL_RCC_OscConfig+0x4f8>)
 80039d4:	2900      	cmp	r1, #0
 80039d6:	d018      	beq.n	8003a0a <HAL_RCC_OscConfig+0x3fa>
 80039d8:	68a1      	ldr	r1, [r4, #8]
 80039da:	4319      	orrs	r1, r3
 80039dc:	60a1      	str	r1, [r4, #8]
 80039de:	6b61      	ldr	r1, [r4, #52]	; 0x34
 80039e0:	430b      	orrs	r3, r1
 80039e2:	6363      	str	r3, [r4, #52]	; 0x34
 80039e4:	2380      	movs	r3, #128	; 0x80
 80039e6:	6a11      	ldr	r1, [r2, #32]
 80039e8:	019b      	lsls	r3, r3, #6
 80039ea:	430b      	orrs	r3, r1
 80039ec:	6213      	str	r3, [r2, #32]
 80039ee:	f7ff f959 	bl	8002ca4 <HAL_GetTick>
 80039f2:	0007      	movs	r7, r0
 80039f4:	2202      	movs	r2, #2
 80039f6:	68a3      	ldr	r3, [r4, #8]
 80039f8:	4213      	tst	r3, r2
 80039fa:	d000      	beq.n	80039fe <HAL_RCC_OscConfig+0x3ee>
 80039fc:	e655      	b.n	80036aa <HAL_RCC_OscConfig+0x9a>
 80039fe:	f7ff f951 	bl	8002ca4 <HAL_GetTick>
 8003a02:	1bc0      	subs	r0, r0, r7
 8003a04:	2802      	cmp	r0, #2
 8003a06:	d9f5      	bls.n	80039f4 <HAL_RCC_OscConfig+0x3e4>
 8003a08:	e677      	b.n	80036fa <HAL_RCC_OscConfig+0xea>
 8003a0a:	68a1      	ldr	r1, [r4, #8]
 8003a0c:	4399      	bics	r1, r3
 8003a0e:	60a1      	str	r1, [r4, #8]
 8003a10:	6a13      	ldr	r3, [r2, #32]
 8003a12:	493e      	ldr	r1, [pc, #248]	; (8003b0c <HAL_RCC_OscConfig+0x4fc>)
 8003a14:	400b      	ands	r3, r1
 8003a16:	6213      	str	r3, [r2, #32]
 8003a18:	f7ff f944 	bl	8002ca4 <HAL_GetTick>
 8003a1c:	0007      	movs	r7, r0
 8003a1e:	2202      	movs	r2, #2
 8003a20:	68a3      	ldr	r3, [r4, #8]
 8003a22:	4213      	tst	r3, r2
 8003a24:	d100      	bne.n	8003a28 <HAL_RCC_OscConfig+0x418>
 8003a26:	e640      	b.n	80036aa <HAL_RCC_OscConfig+0x9a>
 8003a28:	f7ff f93c 	bl	8002ca4 <HAL_GetTick>
 8003a2c:	1bc0      	subs	r0, r0, r7
 8003a2e:	2802      	cmp	r0, #2
 8003a30:	d9f5      	bls.n	8003a1e <HAL_RCC_OscConfig+0x40e>
 8003a32:	e662      	b.n	80036fa <HAL_RCC_OscConfig+0xea>
 8003a34:	2e0c      	cmp	r6, #12
 8003a36:	d043      	beq.n	8003ac0 <HAL_RCC_OscConfig+0x4b0>
 8003a38:	4a35      	ldr	r2, [pc, #212]	; (8003b10 <HAL_RCC_OscConfig+0x500>)
 8003a3a:	2b02      	cmp	r3, #2
 8003a3c:	d12e      	bne.n	8003a9c <HAL_RCC_OscConfig+0x48c>
 8003a3e:	6823      	ldr	r3, [r4, #0]
 8003a40:	2780      	movs	r7, #128	; 0x80
 8003a42:	4013      	ands	r3, r2
 8003a44:	6023      	str	r3, [r4, #0]
 8003a46:	f7ff f92d 	bl	8002ca4 <HAL_GetTick>
 8003a4a:	0006      	movs	r6, r0
 8003a4c:	04bf      	lsls	r7, r7, #18
 8003a4e:	6823      	ldr	r3, [r4, #0]
 8003a50:	423b      	tst	r3, r7
 8003a52:	d11d      	bne.n	8003a90 <HAL_RCC_OscConfig+0x480>
 8003a54:	6b29      	ldr	r1, [r5, #48]	; 0x30
 8003a56:	6aeb      	ldr	r3, [r5, #44]	; 0x2c
 8003a58:	68e2      	ldr	r2, [r4, #12]
 8003a5a:	430b      	orrs	r3, r1
 8003a5c:	492d      	ldr	r1, [pc, #180]	; (8003b14 <HAL_RCC_OscConfig+0x504>)
 8003a5e:	2680      	movs	r6, #128	; 0x80
 8003a60:	400a      	ands	r2, r1
 8003a62:	4313      	orrs	r3, r2
 8003a64:	6b6a      	ldr	r2, [r5, #52]	; 0x34
 8003a66:	04b6      	lsls	r6, r6, #18
 8003a68:	4313      	orrs	r3, r2
 8003a6a:	60e3      	str	r3, [r4, #12]
 8003a6c:	2380      	movs	r3, #128	; 0x80
 8003a6e:	6822      	ldr	r2, [r4, #0]
 8003a70:	045b      	lsls	r3, r3, #17
 8003a72:	4313      	orrs	r3, r2
 8003a74:	6023      	str	r3, [r4, #0]
 8003a76:	f7ff f915 	bl	8002ca4 <HAL_GetTick>
 8003a7a:	0005      	movs	r5, r0
 8003a7c:	6823      	ldr	r3, [r4, #0]
 8003a7e:	4233      	tst	r3, r6
 8003a80:	d000      	beq.n	8003a84 <HAL_RCC_OscConfig+0x474>
 8003a82:	e616      	b.n	80036b2 <HAL_RCC_OscConfig+0xa2>
 8003a84:	f7ff f90e 	bl	8002ca4 <HAL_GetTick>
 8003a88:	1b40      	subs	r0, r0, r5
 8003a8a:	2802      	cmp	r0, #2
 8003a8c:	d9f6      	bls.n	8003a7c <HAL_RCC_OscConfig+0x46c>
 8003a8e:	e634      	b.n	80036fa <HAL_RCC_OscConfig+0xea>
 8003a90:	f7ff f908 	bl	8002ca4 <HAL_GetTick>
 8003a94:	1b80      	subs	r0, r0, r6
 8003a96:	2802      	cmp	r0, #2
 8003a98:	d9d9      	bls.n	8003a4e <HAL_RCC_OscConfig+0x43e>
 8003a9a:	e62e      	b.n	80036fa <HAL_RCC_OscConfig+0xea>
 8003a9c:	6823      	ldr	r3, [r4, #0]
 8003a9e:	2680      	movs	r6, #128	; 0x80
 8003aa0:	4013      	ands	r3, r2
 8003aa2:	6023      	str	r3, [r4, #0]
 8003aa4:	f7ff f8fe 	bl	8002ca4 <HAL_GetTick>
 8003aa8:	0005      	movs	r5, r0
 8003aaa:	04b6      	lsls	r6, r6, #18
 8003aac:	6823      	ldr	r3, [r4, #0]
 8003aae:	4233      	tst	r3, r6
 8003ab0:	d100      	bne.n	8003ab4 <HAL_RCC_OscConfig+0x4a4>
 8003ab2:	e5fe      	b.n	80036b2 <HAL_RCC_OscConfig+0xa2>
 8003ab4:	f7ff f8f6 	bl	8002ca4 <HAL_GetTick>
 8003ab8:	1b40      	subs	r0, r0, r5
 8003aba:	2802      	cmp	r0, #2
 8003abc:	d9f6      	bls.n	8003aac <HAL_RCC_OscConfig+0x49c>
 8003abe:	e61c      	b.n	80036fa <HAL_RCC_OscConfig+0xea>
 8003ac0:	0018      	movs	r0, r3
 8003ac2:	2b01      	cmp	r3, #1
 8003ac4:	d100      	bne.n	8003ac8 <HAL_RCC_OscConfig+0x4b8>
 8003ac6:	e619      	b.n	80036fc <HAL_RCC_OscConfig+0xec>
 8003ac8:	2280      	movs	r2, #128	; 0x80
 8003aca:	68e3      	ldr	r3, [r4, #12]
 8003acc:	6ae9      	ldr	r1, [r5, #44]	; 0x2c
 8003ace:	0252      	lsls	r2, r2, #9
 8003ad0:	401a      	ands	r2, r3
 8003ad2:	428a      	cmp	r2, r1
 8003ad4:	d000      	beq.n	8003ad8 <HAL_RCC_OscConfig+0x4c8>
 8003ad6:	e5fa      	b.n	80036ce <HAL_RCC_OscConfig+0xbe>
 8003ad8:	22f0      	movs	r2, #240	; 0xf0
 8003ada:	6b29      	ldr	r1, [r5, #48]	; 0x30
 8003adc:	0392      	lsls	r2, r2, #14
 8003ade:	401a      	ands	r2, r3
 8003ae0:	428a      	cmp	r2, r1
 8003ae2:	d000      	beq.n	8003ae6 <HAL_RCC_OscConfig+0x4d6>
 8003ae4:	e5f3      	b.n	80036ce <HAL_RCC_OscConfig+0xbe>
 8003ae6:	22c0      	movs	r2, #192	; 0xc0
 8003ae8:	0412      	lsls	r2, r2, #16
 8003aea:	4013      	ands	r3, r2
 8003aec:	6b6a      	ldr	r2, [r5, #52]	; 0x34
 8003aee:	4293      	cmp	r3, r2
 8003af0:	d100      	bne.n	8003af4 <HAL_RCC_OscConfig+0x4e4>
 8003af2:	e5de      	b.n	80036b2 <HAL_RCC_OscConfig+0xa2>
 8003af4:	e5eb      	b.n	80036ce <HAL_RCC_OscConfig+0xbe>
 8003af6:	46c0      	nop			; (mov r8, r8)
 8003af8:	fffffeff 	.word	0xfffffeff
 8003afc:	fffffbff 	.word	0xfffffbff
 8003b00:	00001388 	.word	0x00001388
 8003b04:	efffffff 	.word	0xefffffff
 8003b08:	40010000 	.word	0x40010000
 8003b0c:	ffffdfff 	.word	0xffffdfff
 8003b10:	feffffff 	.word	0xfeffffff
 8003b14:	ff02ffff 	.word	0xff02ffff

08003b18 <HAL_RCC_ClockConfig>:
 8003b18:	b5f7      	push	{r0, r1, r2, r4, r5, r6, r7, lr}
 8003b1a:	1e04      	subs	r4, r0, #0
 8003b1c:	9101      	str	r1, [sp, #4]
 8003b1e:	d101      	bne.n	8003b24 <HAL_RCC_ClockConfig+0xc>
 8003b20:	2001      	movs	r0, #1
 8003b22:	bdfe      	pop	{r1, r2, r3, r4, r5, r6, r7, pc}
 8003b24:	2601      	movs	r6, #1
 8003b26:	4d5b      	ldr	r5, [pc, #364]	; (8003c94 <HAL_RCC_ClockConfig+0x17c>)
 8003b28:	9a01      	ldr	r2, [sp, #4]
 8003b2a:	682b      	ldr	r3, [r5, #0]
 8003b2c:	4033      	ands	r3, r6
 8003b2e:	4293      	cmp	r3, r2
 8003b30:	d331      	bcc.n	8003b96 <HAL_RCC_ClockConfig+0x7e>
 8003b32:	6822      	ldr	r2, [r4, #0]
 8003b34:	0793      	lsls	r3, r2, #30
 8003b36:	d443      	bmi.n	8003bc0 <HAL_RCC_ClockConfig+0xa8>
 8003b38:	07d3      	lsls	r3, r2, #31
 8003b3a:	d449      	bmi.n	8003bd0 <HAL_RCC_ClockConfig+0xb8>
 8003b3c:	2601      	movs	r6, #1
 8003b3e:	682b      	ldr	r3, [r5, #0]
 8003b40:	9a01      	ldr	r2, [sp, #4]
 8003b42:	4033      	ands	r3, r6
 8003b44:	4293      	cmp	r3, r2
 8003b46:	d909      	bls.n	8003b5c <HAL_RCC_ClockConfig+0x44>
 8003b48:	682b      	ldr	r3, [r5, #0]
 8003b4a:	43b3      	bics	r3, r6
 8003b4c:	602b      	str	r3, [r5, #0]
 8003b4e:	f7ff f8a9 	bl	8002ca4 <HAL_GetTick>
 8003b52:	0007      	movs	r7, r0
 8003b54:	682b      	ldr	r3, [r5, #0]
 8003b56:	4233      	tst	r3, r6
 8003b58:	d000      	beq.n	8003b5c <HAL_RCC_ClockConfig+0x44>
 8003b5a:	e08c      	b.n	8003c76 <HAL_RCC_ClockConfig+0x15e>
 8003b5c:	6822      	ldr	r2, [r4, #0]
 8003b5e:	4d4e      	ldr	r5, [pc, #312]	; (8003c98 <HAL_RCC_ClockConfig+0x180>)
 8003b60:	0753      	lsls	r3, r2, #29
 8003b62:	d500      	bpl.n	8003b66 <HAL_RCC_ClockConfig+0x4e>
 8003b64:	e08f      	b.n	8003c86 <HAL_RCC_ClockConfig+0x16e>
 8003b66:	0713      	lsls	r3, r2, #28
 8003b68:	d506      	bpl.n	8003b78 <HAL_RCC_ClockConfig+0x60>
 8003b6a:	68ea      	ldr	r2, [r5, #12]
 8003b6c:	6923      	ldr	r3, [r4, #16]
 8003b6e:	494b      	ldr	r1, [pc, #300]	; (8003c9c <HAL_RCC_ClockConfig+0x184>)
 8003b70:	00db      	lsls	r3, r3, #3
 8003b72:	400a      	ands	r2, r1
 8003b74:	4313      	orrs	r3, r2
 8003b76:	60eb      	str	r3, [r5, #12]
 8003b78:	f7ff fd02 	bl	8003580 <HAL_RCC_GetSysClockFreq>
 8003b7c:	68eb      	ldr	r3, [r5, #12]
 8003b7e:	4a48      	ldr	r2, [pc, #288]	; (8003ca0 <HAL_RCC_ClockConfig+0x188>)
 8003b80:	061b      	lsls	r3, r3, #24
 8003b82:	0f1b      	lsrs	r3, r3, #28
 8003b84:	5cd3      	ldrb	r3, [r2, r3]
 8003b86:	40d8      	lsrs	r0, r3
 8003b88:	4b46      	ldr	r3, [pc, #280]	; (8003ca4 <HAL_RCC_ClockConfig+0x18c>)
 8003b8a:	6018      	str	r0, [r3, #0]
 8003b8c:	4b46      	ldr	r3, [pc, #280]	; (8003ca8 <HAL_RCC_ClockConfig+0x190>)
 8003b8e:	6818      	ldr	r0, [r3, #0]
 8003b90:	f7ff f844 	bl	8002c1c <HAL_InitTick>
 8003b94:	e7c5      	b.n	8003b22 <HAL_RCC_ClockConfig+0xa>
 8003b96:	682b      	ldr	r3, [r5, #0]
 8003b98:	9a01      	ldr	r2, [sp, #4]
 8003b9a:	43b3      	bics	r3, r6
 8003b9c:	4313      	orrs	r3, r2
 8003b9e:	602b      	str	r3, [r5, #0]
 8003ba0:	f7ff f880 	bl	8002ca4 <HAL_GetTick>
 8003ba4:	0007      	movs	r7, r0
 8003ba6:	682b      	ldr	r3, [r5, #0]
 8003ba8:	9a01      	ldr	r2, [sp, #4]
 8003baa:	4033      	ands	r3, r6
 8003bac:	4293      	cmp	r3, r2
 8003bae:	d0c0      	beq.n	8003b32 <HAL_RCC_ClockConfig+0x1a>
 8003bb0:	f7ff f878 	bl	8002ca4 <HAL_GetTick>
 8003bb4:	4b3d      	ldr	r3, [pc, #244]	; (8003cac <HAL_RCC_ClockConfig+0x194>)
 8003bb6:	1bc0      	subs	r0, r0, r7
 8003bb8:	4298      	cmp	r0, r3
 8003bba:	d9f4      	bls.n	8003ba6 <HAL_RCC_ClockConfig+0x8e>
 8003bbc:	2003      	movs	r0, #3
 8003bbe:	e7b0      	b.n	8003b22 <HAL_RCC_ClockConfig+0xa>
 8003bc0:	20f0      	movs	r0, #240	; 0xf0
 8003bc2:	4935      	ldr	r1, [pc, #212]	; (8003c98 <HAL_RCC_ClockConfig+0x180>)
 8003bc4:	68cb      	ldr	r3, [r1, #12]
 8003bc6:	4383      	bics	r3, r0
 8003bc8:	68a0      	ldr	r0, [r4, #8]
 8003bca:	4303      	orrs	r3, r0
 8003bcc:	60cb      	str	r3, [r1, #12]
 8003bce:	e7b3      	b.n	8003b38 <HAL_RCC_ClockConfig+0x20>
 8003bd0:	4e31      	ldr	r6, [pc, #196]	; (8003c98 <HAL_RCC_ClockConfig+0x180>)
 8003bd2:	6862      	ldr	r2, [r4, #4]
 8003bd4:	6833      	ldr	r3, [r6, #0]
 8003bd6:	2a02      	cmp	r2, #2
 8003bd8:	d118      	bne.n	8003c0c <HAL_RCC_ClockConfig+0xf4>
 8003bda:	039b      	lsls	r3, r3, #14
 8003bdc:	d5a0      	bpl.n	8003b20 <HAL_RCC_ClockConfig+0x8>
 8003bde:	2103      	movs	r1, #3
 8003be0:	68f3      	ldr	r3, [r6, #12]
 8003be2:	438b      	bics	r3, r1
 8003be4:	4313      	orrs	r3, r2
 8003be6:	60f3      	str	r3, [r6, #12]
 8003be8:	f7ff f85c 	bl	8002ca4 <HAL_GetTick>
 8003bec:	6863      	ldr	r3, [r4, #4]
 8003bee:	0007      	movs	r7, r0
 8003bf0:	2b02      	cmp	r3, #2
 8003bf2:	d118      	bne.n	8003c26 <HAL_RCC_ClockConfig+0x10e>
 8003bf4:	220c      	movs	r2, #12
 8003bf6:	68f3      	ldr	r3, [r6, #12]
 8003bf8:	4013      	ands	r3, r2
 8003bfa:	2b08      	cmp	r3, #8
 8003bfc:	d09e      	beq.n	8003b3c <HAL_RCC_ClockConfig+0x24>
 8003bfe:	f7ff f851 	bl	8002ca4 <HAL_GetTick>
 8003c02:	4b2a      	ldr	r3, [pc, #168]	; (8003cac <HAL_RCC_ClockConfig+0x194>)
 8003c04:	1bc0      	subs	r0, r0, r7
 8003c06:	4298      	cmp	r0, r3
 8003c08:	d9f4      	bls.n	8003bf4 <HAL_RCC_ClockConfig+0xdc>
 8003c0a:	e7d7      	b.n	8003bbc <HAL_RCC_ClockConfig+0xa4>
 8003c0c:	2a03      	cmp	r2, #3
 8003c0e:	d102      	bne.n	8003c16 <HAL_RCC_ClockConfig+0xfe>
 8003c10:	019b      	lsls	r3, r3, #6
 8003c12:	d4e4      	bmi.n	8003bde <HAL_RCC_ClockConfig+0xc6>
 8003c14:	e784      	b.n	8003b20 <HAL_RCC_ClockConfig+0x8>
 8003c16:	2a01      	cmp	r2, #1
 8003c18:	d102      	bne.n	8003c20 <HAL_RCC_ClockConfig+0x108>
 8003c1a:	075b      	lsls	r3, r3, #29
 8003c1c:	d4df      	bmi.n	8003bde <HAL_RCC_ClockConfig+0xc6>
 8003c1e:	e77f      	b.n	8003b20 <HAL_RCC_ClockConfig+0x8>
 8003c20:	059b      	lsls	r3, r3, #22
 8003c22:	d4dc      	bmi.n	8003bde <HAL_RCC_ClockConfig+0xc6>
 8003c24:	e77c      	b.n	8003b20 <HAL_RCC_ClockConfig+0x8>
 8003c26:	2b03      	cmp	r3, #3
 8003c28:	d10b      	bne.n	8003c42 <HAL_RCC_ClockConfig+0x12a>
 8003c2a:	220c      	movs	r2, #12
 8003c2c:	68f3      	ldr	r3, [r6, #12]
 8003c2e:	4013      	ands	r3, r2
 8003c30:	4293      	cmp	r3, r2
 8003c32:	d083      	beq.n	8003b3c <HAL_RCC_ClockConfig+0x24>
 8003c34:	f7ff f836 	bl	8002ca4 <HAL_GetTick>
 8003c38:	4b1c      	ldr	r3, [pc, #112]	; (8003cac <HAL_RCC_ClockConfig+0x194>)
 8003c3a:	1bc0      	subs	r0, r0, r7
 8003c3c:	4298      	cmp	r0, r3
 8003c3e:	d9f4      	bls.n	8003c2a <HAL_RCC_ClockConfig+0x112>
 8003c40:	e7bc      	b.n	8003bbc <HAL_RCC_ClockConfig+0xa4>
 8003c42:	2b01      	cmp	r3, #1
 8003c44:	d011      	beq.n	8003c6a <HAL_RCC_ClockConfig+0x152>
 8003c46:	220c      	movs	r2, #12
 8003c48:	68f3      	ldr	r3, [r6, #12]
 8003c4a:	4213      	tst	r3, r2
 8003c4c:	d100      	bne.n	8003c50 <HAL_RCC_ClockConfig+0x138>
 8003c4e:	e775      	b.n	8003b3c <HAL_RCC_ClockConfig+0x24>
 8003c50:	f7ff f828 	bl	8002ca4 <HAL_GetTick>
 8003c54:	4b15      	ldr	r3, [pc, #84]	; (8003cac <HAL_RCC_ClockConfig+0x194>)
 8003c56:	1bc0      	subs	r0, r0, r7
 8003c58:	4298      	cmp	r0, r3
 8003c5a:	d9f4      	bls.n	8003c46 <HAL_RCC_ClockConfig+0x12e>
 8003c5c:	e7ae      	b.n	8003bbc <HAL_RCC_ClockConfig+0xa4>
 8003c5e:	f7ff f821 	bl	8002ca4 <HAL_GetTick>
 8003c62:	4b12      	ldr	r3, [pc, #72]	; (8003cac <HAL_RCC_ClockConfig+0x194>)
 8003c64:	1bc0      	subs	r0, r0, r7
 8003c66:	4298      	cmp	r0, r3
 8003c68:	d8a8      	bhi.n	8003bbc <HAL_RCC_ClockConfig+0xa4>
 8003c6a:	220c      	movs	r2, #12
 8003c6c:	68f3      	ldr	r3, [r6, #12]
 8003c6e:	4013      	ands	r3, r2
 8003c70:	2b04      	cmp	r3, #4
 8003c72:	d1f4      	bne.n	8003c5e <HAL_RCC_ClockConfig+0x146>
 8003c74:	e762      	b.n	8003b3c <HAL_RCC_ClockConfig+0x24>
 8003c76:	f7ff f815 	bl	8002ca4 <HAL_GetTick>
 8003c7a:	4b0c      	ldr	r3, [pc, #48]	; (8003cac <HAL_RCC_ClockConfig+0x194>)
 8003c7c:	1bc0      	subs	r0, r0, r7
 8003c7e:	4298      	cmp	r0, r3
 8003c80:	d800      	bhi.n	8003c84 <HAL_RCC_ClockConfig+0x16c>
 8003c82:	e767      	b.n	8003b54 <HAL_RCC_ClockConfig+0x3c>
 8003c84:	e79a      	b.n	8003bbc <HAL_RCC_ClockConfig+0xa4>
 8003c86:	68eb      	ldr	r3, [r5, #12]
 8003c88:	4909      	ldr	r1, [pc, #36]	; (8003cb0 <HAL_RCC_ClockConfig+0x198>)
 8003c8a:	400b      	ands	r3, r1
 8003c8c:	68e1      	ldr	r1, [r4, #12]
 8003c8e:	430b      	orrs	r3, r1
 8003c90:	60eb      	str	r3, [r5, #12]
 8003c92:	e768      	b.n	8003b66 <HAL_RCC_ClockConfig+0x4e>
 8003c94:	40022000 	.word	0x40022000
 8003c98:	40021000 	.word	0x40021000
 8003c9c:	ffffc7ff 	.word	0xffffc7ff
 8003ca0:	080059dd 	.word	0x080059dd
 8003ca4:	20000000 	.word	0x20000000
 8003ca8:	20000008 	.word	0x20000008
 8003cac:	00001388 	.word	0x00001388
 8003cb0:	fffff8ff 	.word	0xfffff8ff

08003cb4 <HAL_RCC_GetPCLK1Freq>:
 8003cb4:	4b04      	ldr	r3, [pc, #16]	; (8003cc8 <HAL_RCC_GetPCLK1Freq+0x14>)
 8003cb6:	4a05      	ldr	r2, [pc, #20]	; (8003ccc <HAL_RCC_GetPCLK1Freq+0x18>)
 8003cb8:	68db      	ldr	r3, [r3, #12]
 8003cba:	055b      	lsls	r3, r3, #21
 8003cbc:	0f5b      	lsrs	r3, r3, #29
 8003cbe:	5cd3      	ldrb	r3, [r2, r3]
 8003cc0:	4a03      	ldr	r2, [pc, #12]	; (8003cd0 <HAL_RCC_GetPCLK1Freq+0x1c>)
 8003cc2:	6810      	ldr	r0, [r2, #0]
 8003cc4:	40d8      	lsrs	r0, r3
 8003cc6:	4770      	bx	lr
 8003cc8:	40021000 	.word	0x40021000
 8003ccc:	080059ed 	.word	0x080059ed
 8003cd0:	20000000 	.word	0x20000000

08003cd4 <HAL_RCC_GetPCLK2Freq>:
 8003cd4:	4b04      	ldr	r3, [pc, #16]	; (8003ce8 <HAL_RCC_GetPCLK2Freq+0x14>)
 8003cd6:	4a05      	ldr	r2, [pc, #20]	; (8003cec <HAL_RCC_GetPCLK2Freq+0x18>)
 8003cd8:	68db      	ldr	r3, [r3, #12]
 8003cda:	049b      	lsls	r3, r3, #18
 8003cdc:	0f5b      	lsrs	r3, r3, #29
 8003cde:	5cd3      	ldrb	r3, [r2, r3]
 8003ce0:	4a03      	ldr	r2, [pc, #12]	; (8003cf0 <HAL_RCC_GetPCLK2Freq+0x1c>)
 8003ce2:	6810      	ldr	r0, [r2, #0]
 8003ce4:	40d8      	lsrs	r0, r3
 8003ce6:	4770      	bx	lr
 8003ce8:	40021000 	.word	0x40021000
 8003cec:	080059ed 	.word	0x080059ed
 8003cf0:	20000000 	.word	0x20000000

08003cf4 <HAL_RCCEx_PeriphCLKConfig>:
 8003cf4:	2382      	movs	r3, #130	; 0x82
 8003cf6:	b5f7      	push	{r0, r1, r2, r4, r5, r6, r7, lr}
 8003cf8:	6802      	ldr	r2, [r0, #0]
 8003cfa:	011b      	lsls	r3, r3, #4
 8003cfc:	0005      	movs	r5, r0
 8003cfe:	421a      	tst	r2, r3
 8003d00:	d047      	beq.n	8003d92 <HAL_RCCEx_PeriphCLKConfig+0x9e>
 8003d02:	2380      	movs	r3, #128	; 0x80
 8003d04:	2100      	movs	r1, #0
 8003d06:	4c60      	ldr	r4, [pc, #384]	; (8003e88 <HAL_RCCEx_PeriphCLKConfig+0x194>)
 8003d08:	055b      	lsls	r3, r3, #21
 8003d0a:	6ba2      	ldr	r2, [r4, #56]	; 0x38
 8003d0c:	9100      	str	r1, [sp, #0]
 8003d0e:	421a      	tst	r2, r3
 8003d10:	d104      	bne.n	8003d1c <HAL_RCCEx_PeriphCLKConfig+0x28>
 8003d12:	6ba2      	ldr	r2, [r4, #56]	; 0x38
 8003d14:	4313      	orrs	r3, r2
 8003d16:	63a3      	str	r3, [r4, #56]	; 0x38
 8003d18:	2301      	movs	r3, #1
 8003d1a:	9300      	str	r3, [sp, #0]
 8003d1c:	2780      	movs	r7, #128	; 0x80
 8003d1e:	4e5b      	ldr	r6, [pc, #364]	; (8003e8c <HAL_RCCEx_PeriphCLKConfig+0x198>)
 8003d20:	007f      	lsls	r7, r7, #1
 8003d22:	6833      	ldr	r3, [r6, #0]
 8003d24:	423b      	tst	r3, r7
 8003d26:	d06d      	beq.n	8003e04 <HAL_RCCEx_PeriphCLKConfig+0x110>
 8003d28:	686b      	ldr	r3, [r5, #4]
 8003d2a:	21c0      	movs	r1, #192	; 0xc0
 8003d2c:	001e      	movs	r6, r3
 8003d2e:	22c0      	movs	r2, #192	; 0xc0
 8003d30:	6820      	ldr	r0, [r4, #0]
 8003d32:	0389      	lsls	r1, r1, #14
 8003d34:	4008      	ands	r0, r1
 8003d36:	400e      	ands	r6, r1
 8003d38:	0292      	lsls	r2, r2, #10
 8003d3a:	4286      	cmp	r6, r0
 8003d3c:	d103      	bne.n	8003d46 <HAL_RCCEx_PeriphCLKConfig+0x52>
 8003d3e:	68a8      	ldr	r0, [r5, #8]
 8003d40:	4001      	ands	r1, r0
 8003d42:	42b1      	cmp	r1, r6
 8003d44:	d007      	beq.n	8003d56 <HAL_RCCEx_PeriphCLKConfig+0x62>
 8003d46:	0019      	movs	r1, r3
 8003d48:	4011      	ands	r1, r2
 8003d4a:	4291      	cmp	r1, r2
 8003d4c:	d103      	bne.n	8003d56 <HAL_RCCEx_PeriphCLKConfig+0x62>
 8003d4e:	6821      	ldr	r1, [r4, #0]
 8003d50:	2001      	movs	r0, #1
 8003d52:	0389      	lsls	r1, r1, #14
 8003d54:	d466      	bmi.n	8003e24 <HAL_RCCEx_PeriphCLKConfig+0x130>
 8003d56:	6d21      	ldr	r1, [r4, #80]	; 0x50
 8003d58:	0008      	movs	r0, r1
 8003d5a:	4010      	ands	r0, r2
 8003d5c:	4211      	tst	r1, r2
 8003d5e:	d162      	bne.n	8003e26 <HAL_RCCEx_PeriphCLKConfig+0x132>
 8003d60:	6869      	ldr	r1, [r5, #4]
 8003d62:	23c0      	movs	r3, #192	; 0xc0
 8003d64:	000a      	movs	r2, r1
 8003d66:	029b      	lsls	r3, r3, #10
 8003d68:	401a      	ands	r2, r3
 8003d6a:	429a      	cmp	r2, r3
 8003d6c:	d107      	bne.n	8003d7e <HAL_RCCEx_PeriphCLKConfig+0x8a>
 8003d6e:	6823      	ldr	r3, [r4, #0]
 8003d70:	4847      	ldr	r0, [pc, #284]	; (8003e90 <HAL_RCCEx_PeriphCLKConfig+0x19c>)
 8003d72:	4003      	ands	r3, r0
 8003d74:	20c0      	movs	r0, #192	; 0xc0
 8003d76:	0380      	lsls	r0, r0, #14
 8003d78:	4001      	ands	r1, r0
 8003d7a:	430b      	orrs	r3, r1
 8003d7c:	6023      	str	r3, [r4, #0]
 8003d7e:	6d23      	ldr	r3, [r4, #80]	; 0x50
 8003d80:	431a      	orrs	r2, r3
 8003d82:	9b00      	ldr	r3, [sp, #0]
 8003d84:	6522      	str	r2, [r4, #80]	; 0x50
 8003d86:	2b01      	cmp	r3, #1
 8003d88:	d103      	bne.n	8003d92 <HAL_RCCEx_PeriphCLKConfig+0x9e>
 8003d8a:	6ba3      	ldr	r3, [r4, #56]	; 0x38
 8003d8c:	4a41      	ldr	r2, [pc, #260]	; (8003e94 <HAL_RCCEx_PeriphCLKConfig+0x1a0>)
 8003d8e:	4013      	ands	r3, r2
 8003d90:	63a3      	str	r3, [r4, #56]	; 0x38
 8003d92:	682b      	ldr	r3, [r5, #0]
 8003d94:	07da      	lsls	r2, r3, #31
 8003d96:	d506      	bpl.n	8003da6 <HAL_RCCEx_PeriphCLKConfig+0xb2>
 8003d98:	2003      	movs	r0, #3
 8003d9a:	493b      	ldr	r1, [pc, #236]	; (8003e88 <HAL_RCCEx_PeriphCLKConfig+0x194>)
 8003d9c:	6cca      	ldr	r2, [r1, #76]	; 0x4c
 8003d9e:	4382      	bics	r2, r0
 8003da0:	68e8      	ldr	r0, [r5, #12]
 8003da2:	4302      	orrs	r2, r0
 8003da4:	64ca      	str	r2, [r1, #76]	; 0x4c
 8003da6:	079a      	lsls	r2, r3, #30
 8003da8:	d506      	bpl.n	8003db8 <HAL_RCCEx_PeriphCLKConfig+0xc4>
 8003daa:	200c      	movs	r0, #12
 8003dac:	4936      	ldr	r1, [pc, #216]	; (8003e88 <HAL_RCCEx_PeriphCLKConfig+0x194>)
 8003dae:	6cca      	ldr	r2, [r1, #76]	; 0x4c
 8003db0:	4382      	bics	r2, r0
 8003db2:	6928      	ldr	r0, [r5, #16]
 8003db4:	4302      	orrs	r2, r0
 8003db6:	64ca      	str	r2, [r1, #76]	; 0x4c
 8003db8:	075a      	lsls	r2, r3, #29
 8003dba:	d506      	bpl.n	8003dca <HAL_RCCEx_PeriphCLKConfig+0xd6>
 8003dbc:	4932      	ldr	r1, [pc, #200]	; (8003e88 <HAL_RCCEx_PeriphCLKConfig+0x194>)
 8003dbe:	4836      	ldr	r0, [pc, #216]	; (8003e98 <HAL_RCCEx_PeriphCLKConfig+0x1a4>)
 8003dc0:	6cca      	ldr	r2, [r1, #76]	; 0x4c
 8003dc2:	4002      	ands	r2, r0
 8003dc4:	6968      	ldr	r0, [r5, #20]
 8003dc6:	4302      	orrs	r2, r0
 8003dc8:	64ca      	str	r2, [r1, #76]	; 0x4c
 8003dca:	071a      	lsls	r2, r3, #28
 8003dcc:	d506      	bpl.n	8003ddc <HAL_RCCEx_PeriphCLKConfig+0xe8>
 8003dce:	492e      	ldr	r1, [pc, #184]	; (8003e88 <HAL_RCCEx_PeriphCLKConfig+0x194>)
 8003dd0:	4832      	ldr	r0, [pc, #200]	; (8003e9c <HAL_RCCEx_PeriphCLKConfig+0x1a8>)
 8003dd2:	6cca      	ldr	r2, [r1, #76]	; 0x4c
 8003dd4:	4002      	ands	r2, r0
 8003dd6:	69a8      	ldr	r0, [r5, #24]
 8003dd8:	4302      	orrs	r2, r0
 8003dda:	64ca      	str	r2, [r1, #76]	; 0x4c
 8003ddc:	065a      	lsls	r2, r3, #25
 8003dde:	d506      	bpl.n	8003dee <HAL_RCCEx_PeriphCLKConfig+0xfa>
 8003de0:	4929      	ldr	r1, [pc, #164]	; (8003e88 <HAL_RCCEx_PeriphCLKConfig+0x194>)
 8003de2:	482f      	ldr	r0, [pc, #188]	; (8003ea0 <HAL_RCCEx_PeriphCLKConfig+0x1ac>)
 8003de4:	6cca      	ldr	r2, [r1, #76]	; 0x4c
 8003de6:	4002      	ands	r2, r0
 8003de8:	6a28      	ldr	r0, [r5, #32]
 8003dea:	4302      	orrs	r2, r0
 8003dec:	64ca      	str	r2, [r1, #76]	; 0x4c
 8003dee:	2000      	movs	r0, #0
 8003df0:	061b      	lsls	r3, r3, #24
 8003df2:	d517      	bpl.n	8003e24 <HAL_RCCEx_PeriphCLKConfig+0x130>
 8003df4:	4a24      	ldr	r2, [pc, #144]	; (8003e88 <HAL_RCCEx_PeriphCLKConfig+0x194>)
 8003df6:	492b      	ldr	r1, [pc, #172]	; (8003ea4 <HAL_RCCEx_PeriphCLKConfig+0x1b0>)
 8003df8:	6cd3      	ldr	r3, [r2, #76]	; 0x4c
 8003dfa:	400b      	ands	r3, r1
 8003dfc:	69e9      	ldr	r1, [r5, #28]
 8003dfe:	430b      	orrs	r3, r1
 8003e00:	64d3      	str	r3, [r2, #76]	; 0x4c
 8003e02:	e00f      	b.n	8003e24 <HAL_RCCEx_PeriphCLKConfig+0x130>
 8003e04:	6833      	ldr	r3, [r6, #0]
 8003e06:	433b      	orrs	r3, r7
 8003e08:	6033      	str	r3, [r6, #0]
 8003e0a:	f7fe ff4b 	bl	8002ca4 <HAL_GetTick>
 8003e0e:	9001      	str	r0, [sp, #4]
 8003e10:	6833      	ldr	r3, [r6, #0]
 8003e12:	423b      	tst	r3, r7
 8003e14:	d188      	bne.n	8003d28 <HAL_RCCEx_PeriphCLKConfig+0x34>
 8003e16:	f7fe ff45 	bl	8002ca4 <HAL_GetTick>
 8003e1a:	9b01      	ldr	r3, [sp, #4]
 8003e1c:	1ac0      	subs	r0, r0, r3
 8003e1e:	2864      	cmp	r0, #100	; 0x64
 8003e20:	d9f6      	bls.n	8003e10 <HAL_RCCEx_PeriphCLKConfig+0x11c>
 8003e22:	2003      	movs	r0, #3
 8003e24:	bdfe      	pop	{r1, r2, r3, r4, r5, r6, r7, pc}
 8003e26:	6829      	ldr	r1, [r5, #0]
 8003e28:	4013      	ands	r3, r2
 8003e2a:	4298      	cmp	r0, r3
 8003e2c:	d001      	beq.n	8003e32 <HAL_RCCEx_PeriphCLKConfig+0x13e>
 8003e2e:	068b      	lsls	r3, r1, #26
 8003e30:	d409      	bmi.n	8003e46 <HAL_RCCEx_PeriphCLKConfig+0x152>
 8003e32:	23c0      	movs	r3, #192	; 0xc0
 8003e34:	68aa      	ldr	r2, [r5, #8]
 8003e36:	029b      	lsls	r3, r3, #10
 8003e38:	4013      	ands	r3, r2
 8003e3a:	4283      	cmp	r3, r0
 8003e3c:	d100      	bne.n	8003e40 <HAL_RCCEx_PeriphCLKConfig+0x14c>
 8003e3e:	e78f      	b.n	8003d60 <HAL_RCCEx_PeriphCLKConfig+0x6c>
 8003e40:	050b      	lsls	r3, r1, #20
 8003e42:	d400      	bmi.n	8003e46 <HAL_RCCEx_PeriphCLKConfig+0x152>
 8003e44:	e78c      	b.n	8003d60 <HAL_RCCEx_PeriphCLKConfig+0x6c>
 8003e46:	2280      	movs	r2, #128	; 0x80
 8003e48:	6d21      	ldr	r1, [r4, #80]	; 0x50
 8003e4a:	6d20      	ldr	r0, [r4, #80]	; 0x50
 8003e4c:	0312      	lsls	r2, r2, #12
 8003e4e:	4302      	orrs	r2, r0
 8003e50:	6522      	str	r2, [r4, #80]	; 0x50
 8003e52:	6d22      	ldr	r2, [r4, #80]	; 0x50
 8003e54:	4b14      	ldr	r3, [pc, #80]	; (8003ea8 <HAL_RCCEx_PeriphCLKConfig+0x1b4>)
 8003e56:	4815      	ldr	r0, [pc, #84]	; (8003eac <HAL_RCCEx_PeriphCLKConfig+0x1b8>)
 8003e58:	400b      	ands	r3, r1
 8003e5a:	4002      	ands	r2, r0
 8003e5c:	6522      	str	r2, [r4, #80]	; 0x50
 8003e5e:	6523      	str	r3, [r4, #80]	; 0x50
 8003e60:	05cb      	lsls	r3, r1, #23
 8003e62:	d400      	bmi.n	8003e66 <HAL_RCCEx_PeriphCLKConfig+0x172>
 8003e64:	e77c      	b.n	8003d60 <HAL_RCCEx_PeriphCLKConfig+0x6c>
 8003e66:	f7fe ff1d 	bl	8002ca4 <HAL_GetTick>
 8003e6a:	2780      	movs	r7, #128	; 0x80
 8003e6c:	0006      	movs	r6, r0
 8003e6e:	00bf      	lsls	r7, r7, #2
 8003e70:	6d23      	ldr	r3, [r4, #80]	; 0x50
 8003e72:	423b      	tst	r3, r7
 8003e74:	d000      	beq.n	8003e78 <HAL_RCCEx_PeriphCLKConfig+0x184>
 8003e76:	e773      	b.n	8003d60 <HAL_RCCEx_PeriphCLKConfig+0x6c>
 8003e78:	f7fe ff14 	bl	8002ca4 <HAL_GetTick>
 8003e7c:	4b0c      	ldr	r3, [pc, #48]	; (8003eb0 <HAL_RCCEx_PeriphCLKConfig+0x1bc>)
 8003e7e:	1b80      	subs	r0, r0, r6
 8003e80:	4298      	cmp	r0, r3
 8003e82:	d9f5      	bls.n	8003e70 <HAL_RCCEx_PeriphCLKConfig+0x17c>
 8003e84:	e7cd      	b.n	8003e22 <HAL_RCCEx_PeriphCLKConfig+0x12e>
 8003e86:	46c0      	nop			; (mov r8, r8)
 8003e88:	40021000 	.word	0x40021000
 8003e8c:	40007000 	.word	0x40007000
 8003e90:	ffcfffff 	.word	0xffcfffff
 8003e94:	efffffff 	.word	0xefffffff
 8003e98:	fffff3ff 	.word	0xfffff3ff
 8003e9c:	ffffcfff 	.word	0xffffcfff
 8003ea0:	fbffffff 	.word	0xfbffffff
 8003ea4:	fff3ffff 	.word	0xfff3ffff
 8003ea8:	fffcffff 	.word	0xfffcffff
 8003eac:	fff7ffff 	.word	0xfff7ffff
 8003eb0:	00001388 	.word	0x00001388

08003eb4 <TIM_Base_SetConfig>:
 8003eb4:	2280      	movs	r2, #128	; 0x80
 8003eb6:	b510      	push	{r4, lr}
 8003eb8:	6803      	ldr	r3, [r0, #0]
 8003eba:	05d2      	lsls	r2, r2, #23
 8003ebc:	4290      	cmp	r0, r2
 8003ebe:	d005      	beq.n	8003ecc <TIM_Base_SetConfig+0x18>
 8003ec0:	4c10      	ldr	r4, [pc, #64]	; (8003f04 <TIM_Base_SetConfig+0x50>)
 8003ec2:	42a0      	cmp	r0, r4
 8003ec4:	d002      	beq.n	8003ecc <TIM_Base_SetConfig+0x18>
 8003ec6:	4c10      	ldr	r4, [pc, #64]	; (8003f08 <TIM_Base_SetConfig+0x54>)
 8003ec8:	42a0      	cmp	r0, r4
 8003eca:	d10f      	bne.n	8003eec <TIM_Base_SetConfig+0x38>
 8003ecc:	2470      	movs	r4, #112	; 0x70
 8003ece:	43a3      	bics	r3, r4
 8003ed0:	684c      	ldr	r4, [r1, #4]
 8003ed2:	4323      	orrs	r3, r4
 8003ed4:	4290      	cmp	r0, r2
 8003ed6:	d005      	beq.n	8003ee4 <TIM_Base_SetConfig+0x30>
 8003ed8:	4a0a      	ldr	r2, [pc, #40]	; (8003f04 <TIM_Base_SetConfig+0x50>)
 8003eda:	4290      	cmp	r0, r2
 8003edc:	d002      	beq.n	8003ee4 <TIM_Base_SetConfig+0x30>
 8003ede:	4a0a      	ldr	r2, [pc, #40]	; (8003f08 <TIM_Base_SetConfig+0x54>)
 8003ee0:	4290      	cmp	r0, r2
 8003ee2:	d103      	bne.n	8003eec <TIM_Base_SetConfig+0x38>
 8003ee4:	4a09      	ldr	r2, [pc, #36]	; (8003f0c <TIM_Base_SetConfig+0x58>)
 8003ee6:	4013      	ands	r3, r2
 8003ee8:	68ca      	ldr	r2, [r1, #12]
 8003eea:	4313      	orrs	r3, r2
 8003eec:	2280      	movs	r2, #128	; 0x80
 8003eee:	4393      	bics	r3, r2
 8003ef0:	690a      	ldr	r2, [r1, #16]
 8003ef2:	4313      	orrs	r3, r2
 8003ef4:	6003      	str	r3, [r0, #0]
 8003ef6:	688b      	ldr	r3, [r1, #8]
 8003ef8:	62c3      	str	r3, [r0, #44]	; 0x2c
 8003efa:	680b      	ldr	r3, [r1, #0]
 8003efc:	6283      	str	r3, [r0, #40]	; 0x28
 8003efe:	2301      	movs	r3, #1
 8003f00:	6143      	str	r3, [r0, #20]
 8003f02:	bd10      	pop	{r4, pc}
 8003f04:	40010800 	.word	0x40010800
 8003f08:	40011400 	.word	0x40011400
 8003f0c:	fffffcff 	.word	0xfffffcff

08003f10 <HAL_TIM_Base_Init>:
 8003f10:	b570      	push	{r4, r5, r6, lr}
 8003f12:	0004      	movs	r4, r0
 8003f14:	2001      	movs	r0, #1
 8003f16:	2c00      	cmp	r4, #0
 8003f18:	d01d      	beq.n	8003f56 <HAL_TIM_Base_Init+0x46>
 8003f1a:	0025      	movs	r5, r4
 8003f1c:	3539      	adds	r5, #57	; 0x39
 8003f1e:	782b      	ldrb	r3, [r5, #0]
 8003f20:	b2da      	uxtb	r2, r3
 8003f22:	2b00      	cmp	r3, #0
 8003f24:	d105      	bne.n	8003f32 <HAL_TIM_Base_Init+0x22>
 8003f26:	0023      	movs	r3, r4
 8003f28:	3338      	adds	r3, #56	; 0x38
 8003f2a:	0020      	movs	r0, r4
 8003f2c:	701a      	strb	r2, [r3, #0]
 8003f2e:	f7fe fd8f 	bl	8002a50 <HAL_TIM_Base_MspInit>
 8003f32:	2302      	movs	r3, #2
 8003f34:	702b      	strb	r3, [r5, #0]
 8003f36:	6820      	ldr	r0, [r4, #0]
 8003f38:	1d21      	adds	r1, r4, #4
 8003f3a:	f7ff ffbb 	bl	8003eb4 <TIM_Base_SetConfig>
 8003f3e:	0022      	movs	r2, r4
 8003f40:	2301      	movs	r3, #1
 8003f42:	2000      	movs	r0, #0
 8003f44:	323e      	adds	r2, #62	; 0x3e
 8003f46:	7013      	strb	r3, [r2, #0]
 8003f48:	343d      	adds	r4, #61	; 0x3d
 8003f4a:	3a04      	subs	r2, #4
 8003f4c:	7013      	strb	r3, [r2, #0]
 8003f4e:	7053      	strb	r3, [r2, #1]
 8003f50:	7093      	strb	r3, [r2, #2]
 8003f52:	7023      	strb	r3, [r4, #0]
 8003f54:	702b      	strb	r3, [r5, #0]
 8003f56:	bd70      	pop	{r4, r5, r6, pc}

08003f58 <HAL_TIM_Base_Start_IT>:
 8003f58:	0002      	movs	r2, r0
 8003f5a:	0003      	movs	r3, r0
 8003f5c:	2001      	movs	r0, #1
 8003f5e:	3239      	adds	r2, #57	; 0x39
 8003f60:	7811      	ldrb	r1, [r2, #0]
 8003f62:	4281      	cmp	r1, r0
 8003f64:	d119      	bne.n	8003f9a <HAL_TIM_Base_Start_IT+0x42>
 8003f66:	2102      	movs	r1, #2
 8003f68:	7011      	strb	r1, [r2, #0]
 8003f6a:	681b      	ldr	r3, [r3, #0]
 8003f6c:	68da      	ldr	r2, [r3, #12]
 8003f6e:	4302      	orrs	r2, r0
 8003f70:	60da      	str	r2, [r3, #12]
 8003f72:	2280      	movs	r2, #128	; 0x80
 8003f74:	05d2      	lsls	r2, r2, #23
 8003f76:	4293      	cmp	r3, r2
 8003f78:	d005      	beq.n	8003f86 <HAL_TIM_Base_Start_IT+0x2e>
 8003f7a:	4a0b      	ldr	r2, [pc, #44]	; (8003fa8 <HAL_TIM_Base_Start_IT+0x50>)
 8003f7c:	4293      	cmp	r3, r2
 8003f7e:	d002      	beq.n	8003f86 <HAL_TIM_Base_Start_IT+0x2e>
 8003f80:	4a0a      	ldr	r2, [pc, #40]	; (8003fac <HAL_TIM_Base_Start_IT+0x54>)
 8003f82:	4293      	cmp	r3, r2
 8003f84:	d10a      	bne.n	8003f9c <HAL_TIM_Base_Start_IT+0x44>
 8003f86:	2107      	movs	r1, #7
 8003f88:	689a      	ldr	r2, [r3, #8]
 8003f8a:	2000      	movs	r0, #0
 8003f8c:	400a      	ands	r2, r1
 8003f8e:	2a06      	cmp	r2, #6
 8003f90:	d003      	beq.n	8003f9a <HAL_TIM_Base_Start_IT+0x42>
 8003f92:	2201      	movs	r2, #1
 8003f94:	6819      	ldr	r1, [r3, #0]
 8003f96:	430a      	orrs	r2, r1
 8003f98:	601a      	str	r2, [r3, #0]
 8003f9a:	4770      	bx	lr
 8003f9c:	681a      	ldr	r2, [r3, #0]
 8003f9e:	4310      	orrs	r0, r2
 8003fa0:	6018      	str	r0, [r3, #0]
 8003fa2:	2000      	movs	r0, #0
 8003fa4:	e7f9      	b.n	8003f9a <HAL_TIM_Base_Start_IT+0x42>
 8003fa6:	46c0      	nop			; (mov r8, r8)
 8003fa8:	40010800 	.word	0x40010800
 8003fac:	40011400 	.word	0x40011400

08003fb0 <HAL_TIM_PeriodElapsedCallback>:
 8003fb0:	4770      	bx	lr

08003fb2 <HAL_TIM_OC_DelayElapsedCallback>:
 8003fb2:	4770      	bx	lr

08003fb4 <HAL_TIM_IC_CaptureCallback>:
 8003fb4:	4770      	bx	lr

08003fb6 <HAL_TIM_PWM_PulseFinishedCallback>:
 8003fb6:	4770      	bx	lr

08003fb8 <HAL_TIM_TriggerCallback>:
 8003fb8:	4770      	bx	lr

08003fba <HAL_TIM_IRQHandler>:
 8003fba:	2202      	movs	r2, #2
 8003fbc:	6803      	ldr	r3, [r0, #0]
 8003fbe:	b510      	push	{r4, lr}
 8003fc0:	6919      	ldr	r1, [r3, #16]
 8003fc2:	0004      	movs	r4, r0
 8003fc4:	4211      	tst	r1, r2
 8003fc6:	d00d      	beq.n	8003fe4 <HAL_TIM_IRQHandler+0x2a>
 8003fc8:	68d9      	ldr	r1, [r3, #12]
 8003fca:	4211      	tst	r1, r2
 8003fcc:	d00a      	beq.n	8003fe4 <HAL_TIM_IRQHandler+0x2a>
 8003fce:	3a05      	subs	r2, #5
 8003fd0:	611a      	str	r2, [r3, #16]
 8003fd2:	3204      	adds	r2, #4
 8003fd4:	7602      	strb	r2, [r0, #24]
 8003fd6:	699b      	ldr	r3, [r3, #24]
 8003fd8:	079b      	lsls	r3, r3, #30
 8003fda:	d05e      	beq.n	800409a <HAL_TIM_IRQHandler+0xe0>
 8003fdc:	f7ff ffea 	bl	8003fb4 <HAL_TIM_IC_CaptureCallback>
 8003fe0:	2300      	movs	r3, #0
 8003fe2:	7623      	strb	r3, [r4, #24]
 8003fe4:	2204      	movs	r2, #4
 8003fe6:	6823      	ldr	r3, [r4, #0]
 8003fe8:	6919      	ldr	r1, [r3, #16]
 8003fea:	4211      	tst	r1, r2
 8003fec:	d010      	beq.n	8004010 <HAL_TIM_IRQHandler+0x56>
 8003fee:	68d9      	ldr	r1, [r3, #12]
 8003ff0:	4211      	tst	r1, r2
 8003ff2:	d00d      	beq.n	8004010 <HAL_TIM_IRQHandler+0x56>
 8003ff4:	3a09      	subs	r2, #9
 8003ff6:	611a      	str	r2, [r3, #16]
 8003ff8:	3207      	adds	r2, #7
 8003ffa:	7622      	strb	r2, [r4, #24]
 8003ffc:	699a      	ldr	r2, [r3, #24]
 8003ffe:	23c0      	movs	r3, #192	; 0xc0
 8004000:	009b      	lsls	r3, r3, #2
 8004002:	0020      	movs	r0, r4
 8004004:	421a      	tst	r2, r3
 8004006:	d04e      	beq.n	80040a6 <HAL_TIM_IRQHandler+0xec>
 8004008:	f7ff ffd4 	bl	8003fb4 <HAL_TIM_IC_CaptureCallback>
 800400c:	2300      	movs	r3, #0
 800400e:	7623      	strb	r3, [r4, #24]
 8004010:	2208      	movs	r2, #8
 8004012:	6823      	ldr	r3, [r4, #0]
 8004014:	6919      	ldr	r1, [r3, #16]
 8004016:	4211      	tst	r1, r2
 8004018:	d00e      	beq.n	8004038 <HAL_TIM_IRQHandler+0x7e>
 800401a:	68d9      	ldr	r1, [r3, #12]
 800401c:	4211      	tst	r1, r2
 800401e:	d00b      	beq.n	8004038 <HAL_TIM_IRQHandler+0x7e>
 8004020:	3a11      	subs	r2, #17
 8004022:	611a      	str	r2, [r3, #16]
 8004024:	320d      	adds	r2, #13
 8004026:	7622      	strb	r2, [r4, #24]
 8004028:	69db      	ldr	r3, [r3, #28]
 800402a:	0020      	movs	r0, r4
 800402c:	079b      	lsls	r3, r3, #30
 800402e:	d040      	beq.n	80040b2 <HAL_TIM_IRQHandler+0xf8>
 8004030:	f7ff ffc0 	bl	8003fb4 <HAL_TIM_IC_CaptureCallback>
 8004034:	2300      	movs	r3, #0
 8004036:	7623      	strb	r3, [r4, #24]
 8004038:	2210      	movs	r2, #16
 800403a:	6823      	ldr	r3, [r4, #0]
 800403c:	6919      	ldr	r1, [r3, #16]
 800403e:	4211      	tst	r1, r2
 8004040:	d010      	beq.n	8004064 <HAL_TIM_IRQHandler+0xaa>
 8004042:	68d9      	ldr	r1, [r3, #12]
 8004044:	4211      	tst	r1, r2
 8004046:	d00d      	beq.n	8004064 <HAL_TIM_IRQHandler+0xaa>
 8004048:	3a21      	subs	r2, #33	; 0x21
 800404a:	611a      	str	r2, [r3, #16]
 800404c:	3219      	adds	r2, #25
 800404e:	7622      	strb	r2, [r4, #24]
 8004050:	69da      	ldr	r2, [r3, #28]
 8004052:	23c0      	movs	r3, #192	; 0xc0
 8004054:	009b      	lsls	r3, r3, #2
 8004056:	0020      	movs	r0, r4
 8004058:	421a      	tst	r2, r3
 800405a:	d030      	beq.n	80040be <HAL_TIM_IRQHandler+0x104>
 800405c:	f7ff ffaa 	bl	8003fb4 <HAL_TIM_IC_CaptureCallback>
 8004060:	2300      	movs	r3, #0
 8004062:	7623      	strb	r3, [r4, #24]
 8004064:	2201      	movs	r2, #1
 8004066:	6823      	ldr	r3, [r4, #0]
 8004068:	6919      	ldr	r1, [r3, #16]
 800406a:	4211      	tst	r1, r2
 800406c:	d007      	beq.n	800407e <HAL_TIM_IRQHandler+0xc4>
 800406e:	68d9      	ldr	r1, [r3, #12]
 8004070:	4211      	tst	r1, r2
 8004072:	d004      	beq.n	800407e <HAL_TIM_IRQHandler+0xc4>
 8004074:	3a03      	subs	r2, #3
 8004076:	0020      	movs	r0, r4
 8004078:	611a      	str	r2, [r3, #16]
 800407a:	f7ff ff99 	bl	8003fb0 <HAL_TIM_PeriodElapsedCallback>
 800407e:	2240      	movs	r2, #64	; 0x40
 8004080:	6823      	ldr	r3, [r4, #0]
 8004082:	6919      	ldr	r1, [r3, #16]
 8004084:	4211      	tst	r1, r2
 8004086:	d007      	beq.n	8004098 <HAL_TIM_IRQHandler+0xde>
 8004088:	68d9      	ldr	r1, [r3, #12]
 800408a:	4211      	tst	r1, r2
 800408c:	d004      	beq.n	8004098 <HAL_TIM_IRQHandler+0xde>
 800408e:	3a81      	subs	r2, #129	; 0x81
 8004090:	0020      	movs	r0, r4
 8004092:	611a      	str	r2, [r3, #16]
 8004094:	f7ff ff90 	bl	8003fb8 <HAL_TIM_TriggerCallback>
 8004098:	bd10      	pop	{r4, pc}
 800409a:	f7ff ff8a 	bl	8003fb2 <HAL_TIM_OC_DelayElapsedCallback>
 800409e:	0020      	movs	r0, r4
 80040a0:	f7ff ff89 	bl	8003fb6 <HAL_TIM_PWM_PulseFinishedCallback>
 80040a4:	e79c      	b.n	8003fe0 <HAL_TIM_IRQHandler+0x26>
 80040a6:	f7ff ff84 	bl	8003fb2 <HAL_TIM_OC_DelayElapsedCallback>
 80040aa:	0020      	movs	r0, r4
 80040ac:	f7ff ff83 	bl	8003fb6 <HAL_TIM_PWM_PulseFinishedCallback>
 80040b0:	e7ac      	b.n	800400c <HAL_TIM_IRQHandler+0x52>
 80040b2:	f7ff ff7e 	bl	8003fb2 <HAL_TIM_OC_DelayElapsedCallback>
 80040b6:	0020      	movs	r0, r4
 80040b8:	f7ff ff7d 	bl	8003fb6 <HAL_TIM_PWM_PulseFinishedCallback>
 80040bc:	e7ba      	b.n	8004034 <HAL_TIM_IRQHandler+0x7a>
 80040be:	f7ff ff78 	bl	8003fb2 <HAL_TIM_OC_DelayElapsedCallback>
 80040c2:	0020      	movs	r0, r4
 80040c4:	f7ff ff77 	bl	8003fb6 <HAL_TIM_PWM_PulseFinishedCallback>
 80040c8:	e7ca      	b.n	8004060 <HAL_TIM_IRQHandler+0xa6>
	...

080040cc <HAL_TIMEx_MasterConfigSynchronization>:
 80040cc:	b570      	push	{r4, r5, r6, lr}
 80040ce:	0004      	movs	r4, r0
 80040d0:	2202      	movs	r2, #2
 80040d2:	3438      	adds	r4, #56	; 0x38
 80040d4:	7825      	ldrb	r5, [r4, #0]
 80040d6:	0003      	movs	r3, r0
 80040d8:	0010      	movs	r0, r2
 80040da:	2d01      	cmp	r5, #1
 80040dc:	d01d      	beq.n	800411a <HAL_TIMEx_MasterConfigSynchronization+0x4e>
 80040de:	001d      	movs	r5, r3
 80040e0:	2670      	movs	r6, #112	; 0x70
 80040e2:	3539      	adds	r5, #57	; 0x39
 80040e4:	702a      	strb	r2, [r5, #0]
 80040e6:	681b      	ldr	r3, [r3, #0]
 80040e8:	6858      	ldr	r0, [r3, #4]
 80040ea:	689a      	ldr	r2, [r3, #8]
 80040ec:	43b0      	bics	r0, r6
 80040ee:	680e      	ldr	r6, [r1, #0]
 80040f0:	4330      	orrs	r0, r6
 80040f2:	6058      	str	r0, [r3, #4]
 80040f4:	2080      	movs	r0, #128	; 0x80
 80040f6:	05c0      	lsls	r0, r0, #23
 80040f8:	4283      	cmp	r3, r0
 80040fa:	d005      	beq.n	8004108 <HAL_TIMEx_MasterConfigSynchronization+0x3c>
 80040fc:	4807      	ldr	r0, [pc, #28]	; (800411c <HAL_TIMEx_MasterConfigSynchronization+0x50>)
 80040fe:	4283      	cmp	r3, r0
 8004100:	d002      	beq.n	8004108 <HAL_TIMEx_MasterConfigSynchronization+0x3c>
 8004102:	4807      	ldr	r0, [pc, #28]	; (8004120 <HAL_TIMEx_MasterConfigSynchronization+0x54>)
 8004104:	4283      	cmp	r3, r0
 8004106:	d104      	bne.n	8004112 <HAL_TIMEx_MasterConfigSynchronization+0x46>
 8004108:	2080      	movs	r0, #128	; 0x80
 800410a:	6849      	ldr	r1, [r1, #4]
 800410c:	4382      	bics	r2, r0
 800410e:	430a      	orrs	r2, r1
 8004110:	609a      	str	r2, [r3, #8]
 8004112:	2301      	movs	r3, #1
 8004114:	2000      	movs	r0, #0
 8004116:	702b      	strb	r3, [r5, #0]
 8004118:	7020      	strb	r0, [r4, #0]
 800411a:	bd70      	pop	{r4, r5, r6, pc}
 800411c:	40010800 	.word	0x40010800
 8004120:	40011400 	.word	0x40011400

08004124 <UART_SetConfig>:
 8004124:	b5f8      	push	{r3, r4, r5, r6, r7, lr}
 8004126:	0004      	movs	r4, r0
 8004128:	6925      	ldr	r5, [r4, #16]
 800412a:	68a1      	ldr	r1, [r4, #8]
 800412c:	6802      	ldr	r2, [r0, #0]
 800412e:	4329      	orrs	r1, r5
 8004130:	6965      	ldr	r5, [r4, #20]
 8004132:	69c3      	ldr	r3, [r0, #28]
 8004134:	4329      	orrs	r1, r5
 8004136:	6810      	ldr	r0, [r2, #0]
 8004138:	4d72      	ldr	r5, [pc, #456]	; (8004304 <UART_SetConfig+0x1e0>)
 800413a:	4319      	orrs	r1, r3
 800413c:	4028      	ands	r0, r5
 800413e:	4301      	orrs	r1, r0
 8004140:	6011      	str	r1, [r2, #0]
 8004142:	6851      	ldr	r1, [r2, #4]
 8004144:	4870      	ldr	r0, [pc, #448]	; (8004308 <UART_SetConfig+0x1e4>)
 8004146:	4d71      	ldr	r5, [pc, #452]	; (800430c <UART_SetConfig+0x1e8>)
 8004148:	4001      	ands	r1, r0
 800414a:	68e0      	ldr	r0, [r4, #12]
 800414c:	4301      	orrs	r1, r0
 800414e:	6051      	str	r1, [r2, #4]
 8004150:	69a0      	ldr	r0, [r4, #24]
 8004152:	42aa      	cmp	r2, r5
 8004154:	d001      	beq.n	800415a <UART_SetConfig+0x36>
 8004156:	6a21      	ldr	r1, [r4, #32]
 8004158:	4308      	orrs	r0, r1
 800415a:	6891      	ldr	r1, [r2, #8]
 800415c:	4e6c      	ldr	r6, [pc, #432]	; (8004310 <UART_SetConfig+0x1ec>)
 800415e:	4031      	ands	r1, r6
 8004160:	4301      	orrs	r1, r0
 8004162:	6091      	str	r1, [r2, #8]
 8004164:	496b      	ldr	r1, [pc, #428]	; (8004314 <UART_SetConfig+0x1f0>)
 8004166:	428a      	cmp	r2, r1
 8004168:	d10f      	bne.n	800418a <UART_SetConfig+0x66>
 800416a:	2103      	movs	r1, #3
 800416c:	4a6a      	ldr	r2, [pc, #424]	; (8004318 <UART_SetConfig+0x1f4>)
 800416e:	6cd2      	ldr	r2, [r2, #76]	; 0x4c
 8004170:	400a      	ands	r2, r1
 8004172:	3a01      	subs	r2, #1
 8004174:	4969      	ldr	r1, [pc, #420]	; (800431c <UART_SetConfig+0x1f8>)
 8004176:	2a02      	cmp	r2, #2
 8004178:	d90f      	bls.n	800419a <UART_SetConfig+0x76>
 800417a:	2280      	movs	r2, #128	; 0x80
 800417c:	0212      	lsls	r2, r2, #8
 800417e:	4293      	cmp	r3, r2
 8004180:	d100      	bne.n	8004184 <UART_SetConfig+0x60>
 8004182:	e069      	b.n	8004258 <UART_SetConfig+0x134>
 8004184:	f7ff fda6 	bl	8003cd4 <HAL_RCC_GetPCLK2Freq>
 8004188:	e09c      	b.n	80042c4 <UART_SetConfig+0x1a0>
 800418a:	4965      	ldr	r1, [pc, #404]	; (8004320 <UART_SetConfig+0x1fc>)
 800418c:	428a      	cmp	r2, r1
 800418e:	d113      	bne.n	80041b8 <UART_SetConfig+0x94>
 8004190:	210c      	movs	r1, #12
 8004192:	4a61      	ldr	r2, [pc, #388]	; (8004318 <UART_SetConfig+0x1f4>)
 8004194:	6cd2      	ldr	r2, [r2, #76]	; 0x4c
 8004196:	400a      	ands	r2, r1
 8004198:	4962      	ldr	r1, [pc, #392]	; (8004324 <UART_SetConfig+0x200>)
 800419a:	5c88      	ldrb	r0, [r1, r2]
 800419c:	2280      	movs	r2, #128	; 0x80
 800419e:	0212      	lsls	r2, r2, #8
 80041a0:	4293      	cmp	r3, r2
 80041a2:	d000      	beq.n	80041a6 <UART_SetConfig+0x82>
 80041a4:	e07f      	b.n	80042a6 <UART_SetConfig+0x182>
 80041a6:	2808      	cmp	r0, #8
 80041a8:	d818      	bhi.n	80041dc <UART_SetConfig+0xb8>
 80041aa:	f7fb ffad 	bl	8000108 <__gnu_thumb1_case_uqi>
 80041ae:	5550      	.short	0x5550
 80041b0:	17791758 	.word	0x17791758
 80041b4:	1717      	.short	0x1717
 80041b6:	63          	.byte	0x63
 80041b7:	00          	.byte	0x00
 80041b8:	42aa      	cmp	r2, r5
 80041ba:	d10f      	bne.n	80041dc <UART_SetConfig+0xb8>
 80041bc:	21c0      	movs	r1, #192	; 0xc0
 80041be:	2080      	movs	r0, #128	; 0x80
 80041c0:	4a55      	ldr	r2, [pc, #340]	; (8004318 <UART_SetConfig+0x1f4>)
 80041c2:	0109      	lsls	r1, r1, #4
 80041c4:	6cd3      	ldr	r3, [r2, #76]	; 0x4c
 80041c6:	0100      	lsls	r0, r0, #4
 80041c8:	400b      	ands	r3, r1
 80041ca:	4283      	cmp	r3, r0
 80041cc:	d016      	beq.n	80041fc <UART_SetConfig+0xd8>
 80041ce:	d807      	bhi.n	80041e0 <UART_SetConfig+0xbc>
 80041d0:	2b00      	cmp	r3, #0
 80041d2:	d00a      	beq.n	80041ea <UART_SetConfig+0xc6>
 80041d4:	2280      	movs	r2, #128	; 0x80
 80041d6:	00d2      	lsls	r2, r2, #3
 80041d8:	4293      	cmp	r3, r2
 80041da:	d035      	beq.n	8004248 <UART_SetConfig+0x124>
 80041dc:	2001      	movs	r0, #1
 80041de:	e009      	b.n	80041f4 <UART_SetConfig+0xd0>
 80041e0:	428b      	cmp	r3, r1
 80041e2:	d1fb      	bne.n	80041dc <UART_SetConfig+0xb8>
 80041e4:	2080      	movs	r0, #128	; 0x80
 80041e6:	0200      	lsls	r0, r0, #8
 80041e8:	e012      	b.n	8004210 <UART_SetConfig+0xec>
 80041ea:	f7ff fd63 	bl	8003cb4 <HAL_RCC_GetPCLK1Freq>
 80041ee:	2800      	cmp	r0, #0
 80041f0:	d10e      	bne.n	8004210 <UART_SetConfig+0xec>
 80041f2:	2000      	movs	r0, #0
 80041f4:	2300      	movs	r3, #0
 80041f6:	6663      	str	r3, [r4, #100]	; 0x64
 80041f8:	66a3      	str	r3, [r4, #104]	; 0x68
 80041fa:	bdf8      	pop	{r3, r4, r5, r6, r7, pc}
 80041fc:	2310      	movs	r3, #16
 80041fe:	6810      	ldr	r0, [r2, #0]
 8004200:	4018      	ands	r0, r3
 8004202:	4243      	negs	r3, r0
 8004204:	4158      	adcs	r0, r3
 8004206:	4b48      	ldr	r3, [pc, #288]	; (8004328 <UART_SetConfig+0x204>)
 8004208:	4240      	negs	r0, r0
 800420a:	4018      	ands	r0, r3
 800420c:	4b47      	ldr	r3, [pc, #284]	; (800432c <UART_SetConfig+0x208>)
 800420e:	18c0      	adds	r0, r0, r3
 8004210:	2203      	movs	r2, #3
 8004212:	6863      	ldr	r3, [r4, #4]
 8004214:	435a      	muls	r2, r3
 8004216:	4282      	cmp	r2, r0
 8004218:	d8e0      	bhi.n	80041dc <UART_SetConfig+0xb8>
 800421a:	031a      	lsls	r2, r3, #12
 800421c:	4282      	cmp	r2, r0
 800421e:	d3dd      	bcc.n	80041dc <UART_SetConfig+0xb8>
 8004220:	2700      	movs	r7, #0
 8004222:	0e02      	lsrs	r2, r0, #24
 8004224:	0201      	lsls	r1, r0, #8
 8004226:	085e      	lsrs	r6, r3, #1
 8004228:	1989      	adds	r1, r1, r6
 800422a:	417a      	adcs	r2, r7
 800422c:	0008      	movs	r0, r1
 800422e:	0011      	movs	r1, r2
 8004230:	001a      	movs	r2, r3
 8004232:	003b      	movs	r3, r7
 8004234:	f7fc f808 	bl	8000248 <__aeabi_uldivmod>
 8004238:	4b3d      	ldr	r3, [pc, #244]	; (8004330 <UART_SetConfig+0x20c>)
 800423a:	18c2      	adds	r2, r0, r3
 800423c:	4b3d      	ldr	r3, [pc, #244]	; (8004334 <UART_SetConfig+0x210>)
 800423e:	429a      	cmp	r2, r3
 8004240:	d8cc      	bhi.n	80041dc <UART_SetConfig+0xb8>
 8004242:	6823      	ldr	r3, [r4, #0]
 8004244:	60d8      	str	r0, [r3, #12]
 8004246:	e7d4      	b.n	80041f2 <UART_SetConfig+0xce>
 8004248:	f7ff f99a 	bl	8003580 <HAL_RCC_GetSysClockFreq>
 800424c:	e7cf      	b.n	80041ee <UART_SetConfig+0xca>
 800424e:	f7ff fd31 	bl	8003cb4 <HAL_RCC_GetPCLK1Freq>
 8004252:	1e03      	subs	r3, r0, #0
 8004254:	d0cd      	beq.n	80041f2 <UART_SetConfig+0xce>
 8004256:	e00d      	b.n	8004274 <UART_SetConfig+0x150>
 8004258:	f7ff fd3c 	bl	8003cd4 <HAL_RCC_GetPCLK2Freq>
 800425c:	e7f9      	b.n	8004252 <UART_SetConfig+0x12e>
 800425e:	4b2e      	ldr	r3, [pc, #184]	; (8004318 <UART_SetConfig+0x1f4>)
 8004260:	4a32      	ldr	r2, [pc, #200]	; (800432c <UART_SetConfig+0x208>)
 8004262:	6818      	ldr	r0, [r3, #0]
 8004264:	2310      	movs	r3, #16
 8004266:	4018      	ands	r0, r3
 8004268:	4243      	negs	r3, r0
 800426a:	4158      	adcs	r0, r3
 800426c:	4b2e      	ldr	r3, [pc, #184]	; (8004328 <UART_SetConfig+0x204>)
 800426e:	4240      	negs	r0, r0
 8004270:	4003      	ands	r3, r0
 8004272:	189b      	adds	r3, r3, r2
 8004274:	0058      	lsls	r0, r3, #1
 8004276:	6863      	ldr	r3, [r4, #4]
 8004278:	6861      	ldr	r1, [r4, #4]
 800427a:	085b      	lsrs	r3, r3, #1
 800427c:	18c0      	adds	r0, r0, r3
 800427e:	f7fb ff57 	bl	8000130 <__udivsi3>
 8004282:	492d      	ldr	r1, [pc, #180]	; (8004338 <UART_SetConfig+0x214>)
 8004284:	b282      	uxth	r2, r0
 8004286:	3a10      	subs	r2, #16
 8004288:	0403      	lsls	r3, r0, #16
 800428a:	428a      	cmp	r2, r1
 800428c:	d8a6      	bhi.n	80041dc <UART_SetConfig+0xb8>
 800428e:	220f      	movs	r2, #15
 8004290:	031b      	lsls	r3, r3, #12
 8004292:	4390      	bics	r0, r2
 8004294:	b280      	uxth	r0, r0
 8004296:	6822      	ldr	r2, [r4, #0]
 8004298:	0f5b      	lsrs	r3, r3, #29
 800429a:	4318      	orrs	r0, r3
 800429c:	60d0      	str	r0, [r2, #12]
 800429e:	e7a8      	b.n	80041f2 <UART_SetConfig+0xce>
 80042a0:	f7ff f96e 	bl	8003580 <HAL_RCC_GetSysClockFreq>
 80042a4:	e7d5      	b.n	8004252 <UART_SetConfig+0x12e>
 80042a6:	2808      	cmp	r0, #8
 80042a8:	d898      	bhi.n	80041dc <UART_SetConfig+0xb8>
 80042aa:	f7fb ff37 	bl	800011c <__gnu_thumb1_case_shi>
 80042ae:	0009      	.short	0x0009
 80042b0:	000fff6b 	.word	0x000fff6b
 80042b4:	0025ff97 	.word	0x0025ff97
 80042b8:	ff97ff97 	.word	0xff97ff97
 80042bc:	0028ff97 	.word	0x0028ff97
 80042c0:	f7ff fcf8 	bl	8003cb4 <HAL_RCC_GetPCLK1Freq>
 80042c4:	2800      	cmp	r0, #0
 80042c6:	d100      	bne.n	80042ca <UART_SetConfig+0x1a6>
 80042c8:	e793      	b.n	80041f2 <UART_SetConfig+0xce>
 80042ca:	e00a      	b.n	80042e2 <UART_SetConfig+0x1be>
 80042cc:	4b12      	ldr	r3, [pc, #72]	; (8004318 <UART_SetConfig+0x1f4>)
 80042ce:	6818      	ldr	r0, [r3, #0]
 80042d0:	2310      	movs	r3, #16
 80042d2:	4018      	ands	r0, r3
 80042d4:	4243      	negs	r3, r0
 80042d6:	4158      	adcs	r0, r3
 80042d8:	4b13      	ldr	r3, [pc, #76]	; (8004328 <UART_SetConfig+0x204>)
 80042da:	4240      	negs	r0, r0
 80042dc:	4018      	ands	r0, r3
 80042de:	4b13      	ldr	r3, [pc, #76]	; (800432c <UART_SetConfig+0x208>)
 80042e0:	18c0      	adds	r0, r0, r3
 80042e2:	6863      	ldr	r3, [r4, #4]
 80042e4:	6861      	ldr	r1, [r4, #4]
 80042e6:	085b      	lsrs	r3, r3, #1
 80042e8:	1818      	adds	r0, r3, r0
 80042ea:	f7fb ff21 	bl	8000130 <__udivsi3>
 80042ee:	b280      	uxth	r0, r0
 80042f0:	0002      	movs	r2, r0
 80042f2:	4b11      	ldr	r3, [pc, #68]	; (8004338 <UART_SetConfig+0x214>)
 80042f4:	3a10      	subs	r2, #16
 80042f6:	e7a2      	b.n	800423e <UART_SetConfig+0x11a>
 80042f8:	f7ff f942 	bl	8003580 <HAL_RCC_GetSysClockFreq>
 80042fc:	e7e2      	b.n	80042c4 <UART_SetConfig+0x1a0>
 80042fe:	2080      	movs	r0, #128	; 0x80
 8004300:	0200      	lsls	r0, r0, #8
 8004302:	e7ee      	b.n	80042e2 <UART_SetConfig+0x1be>
 8004304:	efff69f3 	.word	0xefff69f3
 8004308:	ffffcfff 	.word	0xffffcfff
 800430c:	40004800 	.word	0x40004800
 8004310:	fffff4ff 	.word	0xfffff4ff
 8004314:	40013800 	.word	0x40013800
 8004318:	40021000 	.word	0x40021000
 800431c:	080059fe 	.word	0x080059fe
 8004320:	40004400 	.word	0x40004400
 8004324:	08005a01 	.word	0x08005a01
 8004328:	00b71b00 	.word	0x00b71b00
 800432c:	003d0900 	.word	0x003d0900
 8004330:	fffffd00 	.word	0xfffffd00
 8004334:	000ffcff 	.word	0x000ffcff
 8004338:	0000ffef 	.word	0x0000ffef

0800433c <UART_AdvFeatureConfig>:
 800433c:	6a43      	ldr	r3, [r0, #36]	; 0x24
 800433e:	b530      	push	{r4, r5, lr}
 8004340:	07da      	lsls	r2, r3, #31
 8004342:	d506      	bpl.n	8004352 <UART_AdvFeatureConfig+0x16>
 8004344:	6801      	ldr	r1, [r0, #0]
 8004346:	4c28      	ldr	r4, [pc, #160]	; (80043e8 <UART_AdvFeatureConfig+0xac>)
 8004348:	684a      	ldr	r2, [r1, #4]
 800434a:	4022      	ands	r2, r4
 800434c:	6a84      	ldr	r4, [r0, #40]	; 0x28
 800434e:	4322      	orrs	r2, r4
 8004350:	604a      	str	r2, [r1, #4]
 8004352:	079a      	lsls	r2, r3, #30
 8004354:	d506      	bpl.n	8004364 <UART_AdvFeatureConfig+0x28>
 8004356:	6801      	ldr	r1, [r0, #0]
 8004358:	4c24      	ldr	r4, [pc, #144]	; (80043ec <UART_AdvFeatureConfig+0xb0>)
 800435a:	684a      	ldr	r2, [r1, #4]
 800435c:	4022      	ands	r2, r4
 800435e:	6ac4      	ldr	r4, [r0, #44]	; 0x2c
 8004360:	4322      	orrs	r2, r4
 8004362:	604a      	str	r2, [r1, #4]
 8004364:	075a      	lsls	r2, r3, #29
 8004366:	d506      	bpl.n	8004376 <UART_AdvFeatureConfig+0x3a>
 8004368:	6801      	ldr	r1, [r0, #0]
 800436a:	4c21      	ldr	r4, [pc, #132]	; (80043f0 <UART_AdvFeatureConfig+0xb4>)
 800436c:	684a      	ldr	r2, [r1, #4]
 800436e:	4022      	ands	r2, r4
 8004370:	6b04      	ldr	r4, [r0, #48]	; 0x30
 8004372:	4322      	orrs	r2, r4
 8004374:	604a      	str	r2, [r1, #4]
 8004376:	071a      	lsls	r2, r3, #28
 8004378:	d506      	bpl.n	8004388 <UART_AdvFeatureConfig+0x4c>
 800437a:	6801      	ldr	r1, [r0, #0]
 800437c:	4c1d      	ldr	r4, [pc, #116]	; (80043f4 <UART_AdvFeatureConfig+0xb8>)
 800437e:	684a      	ldr	r2, [r1, #4]
 8004380:	4022      	ands	r2, r4
 8004382:	6b44      	ldr	r4, [r0, #52]	; 0x34
 8004384:	4322      	orrs	r2, r4
 8004386:	604a      	str	r2, [r1, #4]
 8004388:	06da      	lsls	r2, r3, #27
 800438a:	d506      	bpl.n	800439a <UART_AdvFeatureConfig+0x5e>
 800438c:	6801      	ldr	r1, [r0, #0]
 800438e:	4c1a      	ldr	r4, [pc, #104]	; (80043f8 <UART_AdvFeatureConfig+0xbc>)
 8004390:	688a      	ldr	r2, [r1, #8]
 8004392:	4022      	ands	r2, r4
 8004394:	6b84      	ldr	r4, [r0, #56]	; 0x38
 8004396:	4322      	orrs	r2, r4
 8004398:	608a      	str	r2, [r1, #8]
 800439a:	069a      	lsls	r2, r3, #26
 800439c:	d506      	bpl.n	80043ac <UART_AdvFeatureConfig+0x70>
 800439e:	6801      	ldr	r1, [r0, #0]
 80043a0:	4c16      	ldr	r4, [pc, #88]	; (80043fc <UART_AdvFeatureConfig+0xc0>)
 80043a2:	688a      	ldr	r2, [r1, #8]
 80043a4:	4022      	ands	r2, r4
 80043a6:	6bc4      	ldr	r4, [r0, #60]	; 0x3c
 80043a8:	4322      	orrs	r2, r4
 80043aa:	608a      	str	r2, [r1, #8]
 80043ac:	065a      	lsls	r2, r3, #25
 80043ae:	d510      	bpl.n	80043d2 <UART_AdvFeatureConfig+0x96>
 80043b0:	6801      	ldr	r1, [r0, #0]
 80043b2:	4d13      	ldr	r5, [pc, #76]	; (8004400 <UART_AdvFeatureConfig+0xc4>)
 80043b4:	684a      	ldr	r2, [r1, #4]
 80043b6:	6c04      	ldr	r4, [r0, #64]	; 0x40
 80043b8:	402a      	ands	r2, r5
 80043ba:	4322      	orrs	r2, r4
 80043bc:	604a      	str	r2, [r1, #4]
 80043be:	2280      	movs	r2, #128	; 0x80
 80043c0:	0352      	lsls	r2, r2, #13
 80043c2:	4294      	cmp	r4, r2
 80043c4:	d105      	bne.n	80043d2 <UART_AdvFeatureConfig+0x96>
 80043c6:	684a      	ldr	r2, [r1, #4]
 80043c8:	4c0e      	ldr	r4, [pc, #56]	; (8004404 <UART_AdvFeatureConfig+0xc8>)
 80043ca:	4022      	ands	r2, r4
 80043cc:	6c44      	ldr	r4, [r0, #68]	; 0x44
 80043ce:	4322      	orrs	r2, r4
 80043d0:	604a      	str	r2, [r1, #4]
 80043d2:	061b      	lsls	r3, r3, #24
 80043d4:	d506      	bpl.n	80043e4 <UART_AdvFeatureConfig+0xa8>
 80043d6:	6802      	ldr	r2, [r0, #0]
 80043d8:	490b      	ldr	r1, [pc, #44]	; (8004408 <UART_AdvFeatureConfig+0xcc>)
 80043da:	6853      	ldr	r3, [r2, #4]
 80043dc:	400b      	ands	r3, r1
 80043de:	6c81      	ldr	r1, [r0, #72]	; 0x48
 80043e0:	430b      	orrs	r3, r1
 80043e2:	6053      	str	r3, [r2, #4]
 80043e4:	bd30      	pop	{r4, r5, pc}
 80043e6:	46c0      	nop			; (mov r8, r8)
 80043e8:	fffdffff 	.word	0xfffdffff
 80043ec:	fffeffff 	.word	0xfffeffff
 80043f0:	fffbffff 	.word	0xfffbffff
 80043f4:	ffff7fff 	.word	0xffff7fff
 80043f8:	ffffefff 	.word	0xffffefff
 80043fc:	ffffdfff 	.word	0xffffdfff
 8004400:	ffefffff 	.word	0xffefffff
 8004404:	ff9fffff 	.word	0xff9fffff
 8004408:	fff7ffff 	.word	0xfff7ffff

0800440c <UART_WaitOnFlagUntilTimeout>:
 800440c:	b5f7      	push	{r0, r1, r2, r4, r5, r6, r7, lr}
 800440e:	2780      	movs	r7, #128	; 0x80
 8004410:	0004      	movs	r4, r0
 8004412:	000d      	movs	r5, r1
 8004414:	0016      	movs	r6, r2
 8004416:	9301      	str	r3, [sp, #4]
 8004418:	013f      	lsls	r7, r7, #4
 800441a:	6822      	ldr	r2, [r4, #0]
 800441c:	69d3      	ldr	r3, [r2, #28]
 800441e:	402b      	ands	r3, r5
 8004420:	1b5b      	subs	r3, r3, r5
 8004422:	4259      	negs	r1, r3
 8004424:	414b      	adcs	r3, r1
 8004426:	42b3      	cmp	r3, r6
 8004428:	d001      	beq.n	800442e <UART_WaitOnFlagUntilTimeout+0x22>
 800442a:	2000      	movs	r0, #0
 800442c:	e01c      	b.n	8004468 <UART_WaitOnFlagUntilTimeout+0x5c>
 800442e:	9b08      	ldr	r3, [sp, #32]
 8004430:	3301      	adds	r3, #1
 8004432:	d0f3      	beq.n	800441c <UART_WaitOnFlagUntilTimeout+0x10>
 8004434:	f7fe fc36 	bl	8002ca4 <HAL_GetTick>
 8004438:	9b01      	ldr	r3, [sp, #4]
 800443a:	9a08      	ldr	r2, [sp, #32]
 800443c:	1ac0      	subs	r0, r0, r3
 800443e:	6823      	ldr	r3, [r4, #0]
 8004440:	4290      	cmp	r0, r2
 8004442:	d801      	bhi.n	8004448 <UART_WaitOnFlagUntilTimeout+0x3c>
 8004444:	2a00      	cmp	r2, #0
 8004446:	d110      	bne.n	800446a <UART_WaitOnFlagUntilTimeout+0x5e>
 8004448:	681a      	ldr	r2, [r3, #0]
 800444a:	4913      	ldr	r1, [pc, #76]	; (8004498 <UART_WaitOnFlagUntilTimeout+0x8c>)
 800444c:	400a      	ands	r2, r1
 800444e:	601a      	str	r2, [r3, #0]
 8004450:	689a      	ldr	r2, [r3, #8]
 8004452:	31a3      	adds	r1, #163	; 0xa3
 8004454:	31ff      	adds	r1, #255	; 0xff
 8004456:	438a      	bics	r2, r1
 8004458:	609a      	str	r2, [r3, #8]
 800445a:	2320      	movs	r3, #32
 800445c:	67a3      	str	r3, [r4, #120]	; 0x78
 800445e:	67e3      	str	r3, [r4, #124]	; 0x7c
 8004460:	2300      	movs	r3, #0
 8004462:	2003      	movs	r0, #3
 8004464:	3474      	adds	r4, #116	; 0x74
 8004466:	7023      	strb	r3, [r4, #0]
 8004468:	bdfe      	pop	{r1, r2, r3, r4, r5, r6, r7, pc}
 800446a:	2104      	movs	r1, #4
 800446c:	681a      	ldr	r2, [r3, #0]
 800446e:	420a      	tst	r2, r1
 8004470:	d0d3      	beq.n	800441a <UART_WaitOnFlagUntilTimeout+0xe>
 8004472:	69da      	ldr	r2, [r3, #28]
 8004474:	423a      	tst	r2, r7
 8004476:	d0d0      	beq.n	800441a <UART_WaitOnFlagUntilTimeout+0xe>
 8004478:	621f      	str	r7, [r3, #32]
 800447a:	681a      	ldr	r2, [r3, #0]
 800447c:	4906      	ldr	r1, [pc, #24]	; (8004498 <UART_WaitOnFlagUntilTimeout+0x8c>)
 800447e:	400a      	ands	r2, r1
 8004480:	601a      	str	r2, [r3, #0]
 8004482:	689a      	ldr	r2, [r3, #8]
 8004484:	31a3      	adds	r1, #163	; 0xa3
 8004486:	31ff      	adds	r1, #255	; 0xff
 8004488:	438a      	bics	r2, r1
 800448a:	609a      	str	r2, [r3, #8]
 800448c:	2320      	movs	r3, #32
 800448e:	1d22      	adds	r2, r4, #4
 8004490:	67a3      	str	r3, [r4, #120]	; 0x78
 8004492:	67e3      	str	r3, [r4, #124]	; 0x7c
 8004494:	67d3      	str	r3, [r2, #124]	; 0x7c
 8004496:	e7e3      	b.n	8004460 <UART_WaitOnFlagUntilTimeout+0x54>
 8004498:	fffffe5f 	.word	0xfffffe5f

0800449c <HAL_UART_Transmit>:
 800449c:	b5f0      	push	{r4, r5, r6, r7, lr}
 800449e:	b087      	sub	sp, #28
 80044a0:	9305      	str	r3, [sp, #20]
 80044a2:	6f83      	ldr	r3, [r0, #120]	; 0x78
 80044a4:	0004      	movs	r4, r0
 80044a6:	000d      	movs	r5, r1
 80044a8:	0016      	movs	r6, r2
 80044aa:	2002      	movs	r0, #2
 80044ac:	2b20      	cmp	r3, #32
 80044ae:	d151      	bne.n	8004554 <HAL_UART_Transmit+0xb8>
 80044b0:	3801      	subs	r0, #1
 80044b2:	2900      	cmp	r1, #0
 80044b4:	d04e      	beq.n	8004554 <HAL_UART_Transmit+0xb8>
 80044b6:	2a00      	cmp	r2, #0
 80044b8:	d04c      	beq.n	8004554 <HAL_UART_Transmit+0xb8>
 80044ba:	2380      	movs	r3, #128	; 0x80
 80044bc:	68a2      	ldr	r2, [r4, #8]
 80044be:	015b      	lsls	r3, r3, #5
 80044c0:	429a      	cmp	r2, r3
 80044c2:	d104      	bne.n	80044ce <HAL_UART_Transmit+0x32>
 80044c4:	6923      	ldr	r3, [r4, #16]
 80044c6:	2b00      	cmp	r3, #0
 80044c8:	d101      	bne.n	80044ce <HAL_UART_Transmit+0x32>
 80044ca:	4201      	tst	r1, r0
 80044cc:	d142      	bne.n	8004554 <HAL_UART_Transmit+0xb8>
 80044ce:	0023      	movs	r3, r4
 80044d0:	3374      	adds	r3, #116	; 0x74
 80044d2:	9303      	str	r3, [sp, #12]
 80044d4:	781b      	ldrb	r3, [r3, #0]
 80044d6:	2002      	movs	r0, #2
 80044d8:	2b01      	cmp	r3, #1
 80044da:	d03b      	beq.n	8004554 <HAL_UART_Transmit+0xb8>
 80044dc:	2301      	movs	r3, #1
 80044de:	9a03      	ldr	r2, [sp, #12]
 80044e0:	7013      	strb	r3, [r2, #0]
 80044e2:	2200      	movs	r2, #0
 80044e4:	1d23      	adds	r3, r4, #4
 80044e6:	67da      	str	r2, [r3, #124]	; 0x7c
 80044e8:	2321      	movs	r3, #33	; 0x21
 80044ea:	67a3      	str	r3, [r4, #120]	; 0x78
 80044ec:	f7fe fbda 	bl	8002ca4 <HAL_GetTick>
 80044f0:	0023      	movs	r3, r4
 80044f2:	3350      	adds	r3, #80	; 0x50
 80044f4:	801e      	strh	r6, [r3, #0]
 80044f6:	3302      	adds	r3, #2
 80044f8:	801e      	strh	r6, [r3, #0]
 80044fa:	9304      	str	r3, [sp, #16]
 80044fc:	2380      	movs	r3, #128	; 0x80
 80044fe:	68a2      	ldr	r2, [r4, #8]
 8004500:	0007      	movs	r7, r0
 8004502:	2600      	movs	r6, #0
 8004504:	015b      	lsls	r3, r3, #5
 8004506:	429a      	cmp	r2, r3
 8004508:	d104      	bne.n	8004514 <HAL_UART_Transmit+0x78>
 800450a:	6923      	ldr	r3, [r4, #16]
 800450c:	42b3      	cmp	r3, r6
 800450e:	d101      	bne.n	8004514 <HAL_UART_Transmit+0x78>
 8004510:	002e      	movs	r6, r5
 8004512:	001d      	movs	r5, r3
 8004514:	2300      	movs	r3, #0
 8004516:	9a03      	ldr	r2, [sp, #12]
 8004518:	7013      	strb	r3, [r2, #0]
 800451a:	0023      	movs	r3, r4
 800451c:	3352      	adds	r3, #82	; 0x52
 800451e:	881b      	ldrh	r3, [r3, #0]
 8004520:	b29a      	uxth	r2, r3
 8004522:	2b00      	cmp	r3, #0
 8004524:	d10b      	bne.n	800453e <HAL_UART_Transmit+0xa2>
 8004526:	9b05      	ldr	r3, [sp, #20]
 8004528:	2140      	movs	r1, #64	; 0x40
 800452a:	9300      	str	r3, [sp, #0]
 800452c:	0020      	movs	r0, r4
 800452e:	003b      	movs	r3, r7
 8004530:	f7ff ff6c 	bl	800440c <UART_WaitOnFlagUntilTimeout>
 8004534:	2800      	cmp	r0, #0
 8004536:	d10c      	bne.n	8004552 <HAL_UART_Transmit+0xb6>
 8004538:	2320      	movs	r3, #32
 800453a:	67a3      	str	r3, [r4, #120]	; 0x78
 800453c:	e00a      	b.n	8004554 <HAL_UART_Transmit+0xb8>
 800453e:	9b05      	ldr	r3, [sp, #20]
 8004540:	2200      	movs	r2, #0
 8004542:	9300      	str	r3, [sp, #0]
 8004544:	2180      	movs	r1, #128	; 0x80
 8004546:	003b      	movs	r3, r7
 8004548:	0020      	movs	r0, r4
 800454a:	f7ff ff5f 	bl	800440c <UART_WaitOnFlagUntilTimeout>
 800454e:	2800      	cmp	r0, #0
 8004550:	d002      	beq.n	8004558 <HAL_UART_Transmit+0xbc>
 8004552:	2003      	movs	r0, #3
 8004554:	b007      	add	sp, #28
 8004556:	bdf0      	pop	{r4, r5, r6, r7, pc}
 8004558:	6822      	ldr	r2, [r4, #0]
 800455a:	2d00      	cmp	r5, #0
 800455c:	d10b      	bne.n	8004576 <HAL_UART_Transmit+0xda>
 800455e:	8833      	ldrh	r3, [r6, #0]
 8004560:	3602      	adds	r6, #2
 8004562:	05db      	lsls	r3, r3, #23
 8004564:	0ddb      	lsrs	r3, r3, #23
 8004566:	6293      	str	r3, [r2, #40]	; 0x28
 8004568:	9b04      	ldr	r3, [sp, #16]
 800456a:	9a04      	ldr	r2, [sp, #16]
 800456c:	881b      	ldrh	r3, [r3, #0]
 800456e:	3b01      	subs	r3, #1
 8004570:	b29b      	uxth	r3, r3
 8004572:	8013      	strh	r3, [r2, #0]
 8004574:	e7d1      	b.n	800451a <HAL_UART_Transmit+0x7e>
 8004576:	782b      	ldrb	r3, [r5, #0]
 8004578:	3501      	adds	r5, #1
 800457a:	6293      	str	r3, [r2, #40]	; 0x28
 800457c:	e7f4      	b.n	8004568 <HAL_UART_Transmit+0xcc>
	...

08004580 <UART_CheckIdleState>:
 8004580:	b573      	push	{r0, r1, r4, r5, r6, lr}
 8004582:	2600      	movs	r6, #0
 8004584:	0004      	movs	r4, r0
 8004586:	1d03      	adds	r3, r0, #4
 8004588:	67de      	str	r6, [r3, #124]	; 0x7c
 800458a:	f7fe fb8b 	bl	8002ca4 <HAL_GetTick>
 800458e:	6823      	ldr	r3, [r4, #0]
 8004590:	0005      	movs	r5, r0
 8004592:	681b      	ldr	r3, [r3, #0]
 8004594:	071b      	lsls	r3, r3, #28
 8004596:	d416      	bmi.n	80045c6 <UART_CheckIdleState+0x46>
 8004598:	6823      	ldr	r3, [r4, #0]
 800459a:	681b      	ldr	r3, [r3, #0]
 800459c:	075b      	lsls	r3, r3, #29
 800459e:	d50a      	bpl.n	80045b6 <UART_CheckIdleState+0x36>
 80045a0:	2180      	movs	r1, #128	; 0x80
 80045a2:	4b0f      	ldr	r3, [pc, #60]	; (80045e0 <UART_CheckIdleState+0x60>)
 80045a4:	2200      	movs	r2, #0
 80045a6:	9300      	str	r3, [sp, #0]
 80045a8:	0020      	movs	r0, r4
 80045aa:	002b      	movs	r3, r5
 80045ac:	03c9      	lsls	r1, r1, #15
 80045ae:	f7ff ff2d 	bl	800440c <UART_WaitOnFlagUntilTimeout>
 80045b2:	2800      	cmp	r0, #0
 80045b4:	d112      	bne.n	80045dc <UART_CheckIdleState+0x5c>
 80045b6:	2320      	movs	r3, #32
 80045b8:	2000      	movs	r0, #0
 80045ba:	67a3      	str	r3, [r4, #120]	; 0x78
 80045bc:	67e3      	str	r3, [r4, #124]	; 0x7c
 80045be:	6620      	str	r0, [r4, #96]	; 0x60
 80045c0:	3474      	adds	r4, #116	; 0x74
 80045c2:	7020      	strb	r0, [r4, #0]
 80045c4:	e00b      	b.n	80045de <UART_CheckIdleState+0x5e>
 80045c6:	2180      	movs	r1, #128	; 0x80
 80045c8:	4b05      	ldr	r3, [pc, #20]	; (80045e0 <UART_CheckIdleState+0x60>)
 80045ca:	0032      	movs	r2, r6
 80045cc:	9300      	str	r3, [sp, #0]
 80045ce:	0389      	lsls	r1, r1, #14
 80045d0:	0003      	movs	r3, r0
 80045d2:	0020      	movs	r0, r4
 80045d4:	f7ff ff1a 	bl	800440c <UART_WaitOnFlagUntilTimeout>
 80045d8:	2800      	cmp	r0, #0
 80045da:	d0dd      	beq.n	8004598 <UART_CheckIdleState+0x18>
 80045dc:	2003      	movs	r0, #3
 80045de:	bd76      	pop	{r1, r2, r4, r5, r6, pc}
 80045e0:	01ffffff 	.word	0x01ffffff

080045e4 <HAL_UART_Init>:
 80045e4:	b510      	push	{r4, lr}
 80045e6:	1e04      	subs	r4, r0, #0
 80045e8:	d101      	bne.n	80045ee <HAL_UART_Init+0xa>
 80045ea:	2001      	movs	r0, #1
 80045ec:	bd10      	pop	{r4, pc}
 80045ee:	6f83      	ldr	r3, [r0, #120]	; 0x78
 80045f0:	2b00      	cmp	r3, #0
 80045f2:	d104      	bne.n	80045fe <HAL_UART_Init+0x1a>
 80045f4:	0002      	movs	r2, r0
 80045f6:	3274      	adds	r2, #116	; 0x74
 80045f8:	7013      	strb	r3, [r2, #0]
 80045fa:	f7fe fa5d 	bl	8002ab8 <HAL_UART_MspInit>
 80045fe:	2324      	movs	r3, #36	; 0x24
 8004600:	2101      	movs	r1, #1
 8004602:	6822      	ldr	r2, [r4, #0]
 8004604:	67a3      	str	r3, [r4, #120]	; 0x78
 8004606:	6813      	ldr	r3, [r2, #0]
 8004608:	0020      	movs	r0, r4
 800460a:	438b      	bics	r3, r1
 800460c:	6013      	str	r3, [r2, #0]
 800460e:	f7ff fd89 	bl	8004124 <UART_SetConfig>
 8004612:	2801      	cmp	r0, #1
 8004614:	d0e9      	beq.n	80045ea <HAL_UART_Init+0x6>
 8004616:	6a63      	ldr	r3, [r4, #36]	; 0x24
 8004618:	2b00      	cmp	r3, #0
 800461a:	d002      	beq.n	8004622 <HAL_UART_Init+0x3e>
 800461c:	0020      	movs	r0, r4
 800461e:	f7ff fe8d 	bl	800433c <UART_AdvFeatureConfig>
 8004622:	6823      	ldr	r3, [r4, #0]
 8004624:	4907      	ldr	r1, [pc, #28]	; (8004644 <HAL_UART_Init+0x60>)
 8004626:	685a      	ldr	r2, [r3, #4]
 8004628:	0020      	movs	r0, r4
 800462a:	400a      	ands	r2, r1
 800462c:	212a      	movs	r1, #42	; 0x2a
 800462e:	605a      	str	r2, [r3, #4]
 8004630:	689a      	ldr	r2, [r3, #8]
 8004632:	438a      	bics	r2, r1
 8004634:	609a      	str	r2, [r3, #8]
 8004636:	2201      	movs	r2, #1
 8004638:	6819      	ldr	r1, [r3, #0]
 800463a:	430a      	orrs	r2, r1
 800463c:	601a      	str	r2, [r3, #0]
 800463e:	f7ff ff9f 	bl	8004580 <UART_CheckIdleState>
 8004642:	e7d3      	b.n	80045ec <HAL_UART_Init+0x8>
 8004644:	ffffb7ff 	.word	0xffffb7ff

08004648 <__errno>:
 8004648:	4b01      	ldr	r3, [pc, #4]	; (8004650 <__errno+0x8>)
 800464a:	6818      	ldr	r0, [r3, #0]
 800464c:	4770      	bx	lr
 800464e:	46c0      	nop			; (mov r8, r8)
 8004650:	2000000c 	.word	0x2000000c

08004654 <__libc_init_array>:
 8004654:	b570      	push	{r4, r5, r6, lr}
 8004656:	2600      	movs	r6, #0
 8004658:	4d0c      	ldr	r5, [pc, #48]	; (800468c <__libc_init_array+0x38>)
 800465a:	4c0d      	ldr	r4, [pc, #52]	; (8004690 <__libc_init_array+0x3c>)
 800465c:	1b64      	subs	r4, r4, r5
 800465e:	10a4      	asrs	r4, r4, #2
 8004660:	42a6      	cmp	r6, r4
 8004662:	d109      	bne.n	8004678 <__libc_init_array+0x24>
 8004664:	2600      	movs	r6, #0
 8004666:	f001 f845 	bl	80056f4 <_init>
 800466a:	4d0a      	ldr	r5, [pc, #40]	; (8004694 <__libc_init_array+0x40>)
 800466c:	4c0a      	ldr	r4, [pc, #40]	; (8004698 <__libc_init_array+0x44>)
 800466e:	1b64      	subs	r4, r4, r5
 8004670:	10a4      	asrs	r4, r4, #2
 8004672:	42a6      	cmp	r6, r4
 8004674:	d105      	bne.n	8004682 <__libc_init_array+0x2e>
 8004676:	bd70      	pop	{r4, r5, r6, pc}
 8004678:	00b3      	lsls	r3, r6, #2
 800467a:	58eb      	ldr	r3, [r5, r3]
 800467c:	4798      	blx	r3
 800467e:	3601      	adds	r6, #1
 8004680:	e7ee      	b.n	8004660 <__libc_init_array+0xc>
 8004682:	00b3      	lsls	r3, r6, #2
 8004684:	58eb      	ldr	r3, [r5, r3]
 8004686:	4798      	blx	r3
 8004688:	3601      	adds	r6, #1
 800468a:	e7f2      	b.n	8004672 <__libc_init_array+0x1e>
 800468c:	08005ab0 	.word	0x08005ab0
 8004690:	08005ab0 	.word	0x08005ab0
 8004694:	08005ab0 	.word	0x08005ab0
 8004698:	08005ab4 	.word	0x08005ab4

0800469c <malloc>:
 800469c:	b510      	push	{r4, lr}
 800469e:	4b03      	ldr	r3, [pc, #12]	; (80046ac <malloc+0x10>)
 80046a0:	0001      	movs	r1, r0
 80046a2:	6818      	ldr	r0, [r3, #0]
 80046a4:	f000 f856 	bl	8004754 <_malloc_r>
 80046a8:	bd10      	pop	{r4, pc}
 80046aa:	46c0      	nop			; (mov r8, r8)
 80046ac:	2000000c 	.word	0x2000000c

080046b0 <memset>:
 80046b0:	0003      	movs	r3, r0
 80046b2:	1882      	adds	r2, r0, r2
 80046b4:	4293      	cmp	r3, r2
 80046b6:	d100      	bne.n	80046ba <memset+0xa>
 80046b8:	4770      	bx	lr
 80046ba:	7019      	strb	r1, [r3, #0]
 80046bc:	3301      	adds	r3, #1
 80046be:	e7f9      	b.n	80046b4 <memset+0x4>

080046c0 <_free_r>:
 80046c0:	b570      	push	{r4, r5, r6, lr}
 80046c2:	0005      	movs	r5, r0
 80046c4:	2900      	cmp	r1, #0
 80046c6:	d010      	beq.n	80046ea <_free_r+0x2a>
 80046c8:	1f0c      	subs	r4, r1, #4
 80046ca:	6823      	ldr	r3, [r4, #0]
 80046cc:	2b00      	cmp	r3, #0
 80046ce:	da00      	bge.n	80046d2 <_free_r+0x12>
 80046d0:	18e4      	adds	r4, r4, r3
 80046d2:	0028      	movs	r0, r5
 80046d4:	f000 fc50 	bl	8004f78 <__malloc_lock>
 80046d8:	4a1d      	ldr	r2, [pc, #116]	; (8004750 <_free_r+0x90>)
 80046da:	6813      	ldr	r3, [r2, #0]
 80046dc:	2b00      	cmp	r3, #0
 80046de:	d105      	bne.n	80046ec <_free_r+0x2c>
 80046e0:	6063      	str	r3, [r4, #4]
 80046e2:	6014      	str	r4, [r2, #0]
 80046e4:	0028      	movs	r0, r5
 80046e6:	f000 fc4f 	bl	8004f88 <__malloc_unlock>
 80046ea:	bd70      	pop	{r4, r5, r6, pc}
 80046ec:	42a3      	cmp	r3, r4
 80046ee:	d908      	bls.n	8004702 <_free_r+0x42>
 80046f0:	6821      	ldr	r1, [r4, #0]
 80046f2:	1860      	adds	r0, r4, r1
 80046f4:	4283      	cmp	r3, r0
 80046f6:	d1f3      	bne.n	80046e0 <_free_r+0x20>
 80046f8:	6818      	ldr	r0, [r3, #0]
 80046fa:	685b      	ldr	r3, [r3, #4]
 80046fc:	1841      	adds	r1, r0, r1
 80046fe:	6021      	str	r1, [r4, #0]
 8004700:	e7ee      	b.n	80046e0 <_free_r+0x20>
 8004702:	001a      	movs	r2, r3
 8004704:	685b      	ldr	r3, [r3, #4]
 8004706:	2b00      	cmp	r3, #0
 8004708:	d001      	beq.n	800470e <_free_r+0x4e>
 800470a:	42a3      	cmp	r3, r4
 800470c:	d9f9      	bls.n	8004702 <_free_r+0x42>
 800470e:	6811      	ldr	r1, [r2, #0]
 8004710:	1850      	adds	r0, r2, r1
 8004712:	42a0      	cmp	r0, r4
 8004714:	d10b      	bne.n	800472e <_free_r+0x6e>
 8004716:	6820      	ldr	r0, [r4, #0]
 8004718:	1809      	adds	r1, r1, r0
 800471a:	1850      	adds	r0, r2, r1
 800471c:	6011      	str	r1, [r2, #0]
 800471e:	4283      	cmp	r3, r0
 8004720:	d1e0      	bne.n	80046e4 <_free_r+0x24>
 8004722:	6818      	ldr	r0, [r3, #0]
 8004724:	685b      	ldr	r3, [r3, #4]
 8004726:	1841      	adds	r1, r0, r1
 8004728:	6011      	str	r1, [r2, #0]
 800472a:	6053      	str	r3, [r2, #4]
 800472c:	e7da      	b.n	80046e4 <_free_r+0x24>
 800472e:	42a0      	cmp	r0, r4
 8004730:	d902      	bls.n	8004738 <_free_r+0x78>
 8004732:	230c      	movs	r3, #12
 8004734:	602b      	str	r3, [r5, #0]
 8004736:	e7d5      	b.n	80046e4 <_free_r+0x24>
 8004738:	6821      	ldr	r1, [r4, #0]
 800473a:	1860      	adds	r0, r4, r1
 800473c:	4283      	cmp	r3, r0
 800473e:	d103      	bne.n	8004748 <_free_r+0x88>
 8004740:	6818      	ldr	r0, [r3, #0]
 8004742:	685b      	ldr	r3, [r3, #4]
 8004744:	1841      	adds	r1, r0, r1
 8004746:	6021      	str	r1, [r4, #0]
 8004748:	6063      	str	r3, [r4, #4]
 800474a:	6054      	str	r4, [r2, #4]
 800474c:	e7ca      	b.n	80046e4 <_free_r+0x24>
 800474e:	46c0      	nop			; (mov r8, r8)
 8004750:	20000090 	.word	0x20000090

08004754 <_malloc_r>:
 8004754:	b5f8      	push	{r3, r4, r5, r6, r7, lr}
 8004756:	2303      	movs	r3, #3
 8004758:	1ccd      	adds	r5, r1, #3
 800475a:	439d      	bics	r5, r3
 800475c:	3508      	adds	r5, #8
 800475e:	0006      	movs	r6, r0
 8004760:	2d0c      	cmp	r5, #12
 8004762:	d21f      	bcs.n	80047a4 <_malloc_r+0x50>
 8004764:	250c      	movs	r5, #12
 8004766:	42a9      	cmp	r1, r5
 8004768:	d81e      	bhi.n	80047a8 <_malloc_r+0x54>
 800476a:	0030      	movs	r0, r6
 800476c:	f000 fc04 	bl	8004f78 <__malloc_lock>
 8004770:	4925      	ldr	r1, [pc, #148]	; (8004808 <_malloc_r+0xb4>)
 8004772:	680a      	ldr	r2, [r1, #0]
 8004774:	0014      	movs	r4, r2
 8004776:	2c00      	cmp	r4, #0
 8004778:	d11a      	bne.n	80047b0 <_malloc_r+0x5c>
 800477a:	4f24      	ldr	r7, [pc, #144]	; (800480c <_malloc_r+0xb8>)
 800477c:	683b      	ldr	r3, [r7, #0]
 800477e:	2b00      	cmp	r3, #0
 8004780:	d104      	bne.n	800478c <_malloc_r+0x38>
 8004782:	0021      	movs	r1, r4
 8004784:	0030      	movs	r0, r6
 8004786:	f000 f8d9 	bl	800493c <_sbrk_r>
 800478a:	6038      	str	r0, [r7, #0]
 800478c:	0029      	movs	r1, r5
 800478e:	0030      	movs	r0, r6
 8004790:	f000 f8d4 	bl	800493c <_sbrk_r>
 8004794:	1c43      	adds	r3, r0, #1
 8004796:	d12b      	bne.n	80047f0 <_malloc_r+0x9c>
 8004798:	230c      	movs	r3, #12
 800479a:	0030      	movs	r0, r6
 800479c:	6033      	str	r3, [r6, #0]
 800479e:	f000 fbf3 	bl	8004f88 <__malloc_unlock>
 80047a2:	e003      	b.n	80047ac <_malloc_r+0x58>
 80047a4:	2d00      	cmp	r5, #0
 80047a6:	dade      	bge.n	8004766 <_malloc_r+0x12>
 80047a8:	230c      	movs	r3, #12
 80047aa:	6033      	str	r3, [r6, #0]
 80047ac:	2000      	movs	r0, #0
 80047ae:	bdf8      	pop	{r3, r4, r5, r6, r7, pc}
 80047b0:	6823      	ldr	r3, [r4, #0]
 80047b2:	1b5b      	subs	r3, r3, r5
 80047b4:	d419      	bmi.n	80047ea <_malloc_r+0x96>
 80047b6:	2b0b      	cmp	r3, #11
 80047b8:	d903      	bls.n	80047c2 <_malloc_r+0x6e>
 80047ba:	6023      	str	r3, [r4, #0]
 80047bc:	18e4      	adds	r4, r4, r3
 80047be:	6025      	str	r5, [r4, #0]
 80047c0:	e003      	b.n	80047ca <_malloc_r+0x76>
 80047c2:	6863      	ldr	r3, [r4, #4]
 80047c4:	42a2      	cmp	r2, r4
 80047c6:	d10e      	bne.n	80047e6 <_malloc_r+0x92>
 80047c8:	600b      	str	r3, [r1, #0]
 80047ca:	0030      	movs	r0, r6
 80047cc:	f000 fbdc 	bl	8004f88 <__malloc_unlock>
 80047d0:	0020      	movs	r0, r4
 80047d2:	2207      	movs	r2, #7
 80047d4:	300b      	adds	r0, #11
 80047d6:	1d23      	adds	r3, r4, #4
 80047d8:	4390      	bics	r0, r2
 80047da:	1ac2      	subs	r2, r0, r3
 80047dc:	4298      	cmp	r0, r3
 80047de:	d0e6      	beq.n	80047ae <_malloc_r+0x5a>
 80047e0:	1a1b      	subs	r3, r3, r0
 80047e2:	50a3      	str	r3, [r4, r2]
 80047e4:	e7e3      	b.n	80047ae <_malloc_r+0x5a>
 80047e6:	6053      	str	r3, [r2, #4]
 80047e8:	e7ef      	b.n	80047ca <_malloc_r+0x76>
 80047ea:	0022      	movs	r2, r4
 80047ec:	6864      	ldr	r4, [r4, #4]
 80047ee:	e7c2      	b.n	8004776 <_malloc_r+0x22>
 80047f0:	2303      	movs	r3, #3
 80047f2:	1cc4      	adds	r4, r0, #3
 80047f4:	439c      	bics	r4, r3
 80047f6:	42a0      	cmp	r0, r4
 80047f8:	d0e1      	beq.n	80047be <_malloc_r+0x6a>
 80047fa:	1a21      	subs	r1, r4, r0
 80047fc:	0030      	movs	r0, r6
 80047fe:	f000 f89d 	bl	800493c <_sbrk_r>
 8004802:	1c43      	adds	r3, r0, #1
 8004804:	d1db      	bne.n	80047be <_malloc_r+0x6a>
 8004806:	e7c7      	b.n	8004798 <_malloc_r+0x44>
 8004808:	20000090 	.word	0x20000090
 800480c:	20000094 	.word	0x20000094

08004810 <iprintf>:
 8004810:	b40f      	push	{r0, r1, r2, r3}
 8004812:	4b0b      	ldr	r3, [pc, #44]	; (8004840 <iprintf+0x30>)
 8004814:	b513      	push	{r0, r1, r4, lr}
 8004816:	681c      	ldr	r4, [r3, #0]
 8004818:	2c00      	cmp	r4, #0
 800481a:	d005      	beq.n	8004828 <iprintf+0x18>
 800481c:	69a3      	ldr	r3, [r4, #24]
 800481e:	2b00      	cmp	r3, #0
 8004820:	d102      	bne.n	8004828 <iprintf+0x18>
 8004822:	0020      	movs	r0, r4
 8004824:	f000 fa98 	bl	8004d58 <__sinit>
 8004828:	ab05      	add	r3, sp, #20
 800482a:	0020      	movs	r0, r4
 800482c:	9a04      	ldr	r2, [sp, #16]
 800482e:	68a1      	ldr	r1, [r4, #8]
 8004830:	9301      	str	r3, [sp, #4]
 8004832:	f000 fbd9 	bl	8004fe8 <_vfiprintf_r>
 8004836:	bc16      	pop	{r1, r2, r4}
 8004838:	bc08      	pop	{r3}
 800483a:	b004      	add	sp, #16
 800483c:	4718      	bx	r3
 800483e:	46c0      	nop			; (mov r8, r8)
 8004840:	2000000c 	.word	0x2000000c

08004844 <_puts_r>:
 8004844:	b570      	push	{r4, r5, r6, lr}
 8004846:	0005      	movs	r5, r0
 8004848:	000e      	movs	r6, r1
 800484a:	2800      	cmp	r0, #0
 800484c:	d004      	beq.n	8004858 <_puts_r+0x14>
 800484e:	6983      	ldr	r3, [r0, #24]
 8004850:	2b00      	cmp	r3, #0
 8004852:	d101      	bne.n	8004858 <_puts_r+0x14>
 8004854:	f000 fa80 	bl	8004d58 <__sinit>
 8004858:	69ab      	ldr	r3, [r5, #24]
 800485a:	68ac      	ldr	r4, [r5, #8]
 800485c:	2b00      	cmp	r3, #0
 800485e:	d102      	bne.n	8004866 <_puts_r+0x22>
 8004860:	0028      	movs	r0, r5
 8004862:	f000 fa79 	bl	8004d58 <__sinit>
 8004866:	4b2d      	ldr	r3, [pc, #180]	; (800491c <_puts_r+0xd8>)
 8004868:	429c      	cmp	r4, r3
 800486a:	d122      	bne.n	80048b2 <_puts_r+0x6e>
 800486c:	686c      	ldr	r4, [r5, #4]
 800486e:	6e63      	ldr	r3, [r4, #100]	; 0x64
 8004870:	07db      	lsls	r3, r3, #31
 8004872:	d405      	bmi.n	8004880 <_puts_r+0x3c>
 8004874:	89a3      	ldrh	r3, [r4, #12]
 8004876:	059b      	lsls	r3, r3, #22
 8004878:	d402      	bmi.n	8004880 <_puts_r+0x3c>
 800487a:	6da0      	ldr	r0, [r4, #88]	; 0x58
 800487c:	f000 fb0d 	bl	8004e9a <__retarget_lock_acquire_recursive>
 8004880:	89a3      	ldrh	r3, [r4, #12]
 8004882:	071b      	lsls	r3, r3, #28
 8004884:	d502      	bpl.n	800488c <_puts_r+0x48>
 8004886:	6923      	ldr	r3, [r4, #16]
 8004888:	2b00      	cmp	r3, #0
 800488a:	d129      	bne.n	80048e0 <_puts_r+0x9c>
 800488c:	0021      	movs	r1, r4
 800488e:	0028      	movs	r0, r5
 8004890:	f000 f8bc 	bl	8004a0c <__swsetup_r>
 8004894:	2800      	cmp	r0, #0
 8004896:	d023      	beq.n	80048e0 <_puts_r+0x9c>
 8004898:	2501      	movs	r5, #1
 800489a:	426d      	negs	r5, r5
 800489c:	6e63      	ldr	r3, [r4, #100]	; 0x64
 800489e:	07db      	lsls	r3, r3, #31
 80048a0:	d405      	bmi.n	80048ae <_puts_r+0x6a>
 80048a2:	89a3      	ldrh	r3, [r4, #12]
 80048a4:	059b      	lsls	r3, r3, #22
 80048a6:	d402      	bmi.n	80048ae <_puts_r+0x6a>
 80048a8:	6da0      	ldr	r0, [r4, #88]	; 0x58
 80048aa:	f000 faf7 	bl	8004e9c <__retarget_lock_release_recursive>
 80048ae:	0028      	movs	r0, r5
 80048b0:	bd70      	pop	{r4, r5, r6, pc}
 80048b2:	4b1b      	ldr	r3, [pc, #108]	; (8004920 <_puts_r+0xdc>)
 80048b4:	429c      	cmp	r4, r3
 80048b6:	d101      	bne.n	80048bc <_puts_r+0x78>
 80048b8:	68ac      	ldr	r4, [r5, #8]
 80048ba:	e7d8      	b.n	800486e <_puts_r+0x2a>
 80048bc:	4b19      	ldr	r3, [pc, #100]	; (8004924 <_puts_r+0xe0>)
 80048be:	429c      	cmp	r4, r3
 80048c0:	d1d5      	bne.n	800486e <_puts_r+0x2a>
 80048c2:	68ec      	ldr	r4, [r5, #12]
 80048c4:	e7d3      	b.n	800486e <_puts_r+0x2a>
 80048c6:	3601      	adds	r6, #1
 80048c8:	60a3      	str	r3, [r4, #8]
 80048ca:	2b00      	cmp	r3, #0
 80048cc:	da04      	bge.n	80048d8 <_puts_r+0x94>
 80048ce:	69a2      	ldr	r2, [r4, #24]
 80048d0:	429a      	cmp	r2, r3
 80048d2:	dc16      	bgt.n	8004902 <_puts_r+0xbe>
 80048d4:	290a      	cmp	r1, #10
 80048d6:	d014      	beq.n	8004902 <_puts_r+0xbe>
 80048d8:	6823      	ldr	r3, [r4, #0]
 80048da:	1c5a      	adds	r2, r3, #1
 80048dc:	6022      	str	r2, [r4, #0]
 80048de:	7019      	strb	r1, [r3, #0]
 80048e0:	68a3      	ldr	r3, [r4, #8]
 80048e2:	7831      	ldrb	r1, [r6, #0]
 80048e4:	3b01      	subs	r3, #1
 80048e6:	2900      	cmp	r1, #0
 80048e8:	d1ed      	bne.n	80048c6 <_puts_r+0x82>
 80048ea:	60a3      	str	r3, [r4, #8]
 80048ec:	2b00      	cmp	r3, #0
 80048ee:	da0f      	bge.n	8004910 <_puts_r+0xcc>
 80048f0:	0028      	movs	r0, r5
 80048f2:	0022      	movs	r2, r4
 80048f4:	310a      	adds	r1, #10
 80048f6:	f000 f833 	bl	8004960 <__swbuf_r>
 80048fa:	250a      	movs	r5, #10
 80048fc:	1c43      	adds	r3, r0, #1
 80048fe:	d1cd      	bne.n	800489c <_puts_r+0x58>
 8004900:	e7ca      	b.n	8004898 <_puts_r+0x54>
 8004902:	0022      	movs	r2, r4
 8004904:	0028      	movs	r0, r5
 8004906:	f000 f82b 	bl	8004960 <__swbuf_r>
 800490a:	1c43      	adds	r3, r0, #1
 800490c:	d1e8      	bne.n	80048e0 <_puts_r+0x9c>
 800490e:	e7c3      	b.n	8004898 <_puts_r+0x54>
 8004910:	250a      	movs	r5, #10
 8004912:	6823      	ldr	r3, [r4, #0]
 8004914:	1c5a      	adds	r2, r3, #1
 8004916:	6022      	str	r2, [r4, #0]
 8004918:	701d      	strb	r5, [r3, #0]
 800491a:	e7bf      	b.n	800489c <_puts_r+0x58>
 800491c:	08005a34 	.word	0x08005a34
 8004920:	08005a54 	.word	0x08005a54
 8004924:	08005a14 	.word	0x08005a14

08004928 <puts>:
 8004928:	b510      	push	{r4, lr}
 800492a:	4b03      	ldr	r3, [pc, #12]	; (8004938 <puts+0x10>)
 800492c:	0001      	movs	r1, r0
 800492e:	6818      	ldr	r0, [r3, #0]
 8004930:	f7ff ff88 	bl	8004844 <_puts_r>
 8004934:	bd10      	pop	{r4, pc}
 8004936:	46c0      	nop			; (mov r8, r8)
 8004938:	2000000c 	.word	0x2000000c

0800493c <_sbrk_r>:
 800493c:	2300      	movs	r3, #0
 800493e:	b570      	push	{r4, r5, r6, lr}
 8004940:	4d06      	ldr	r5, [pc, #24]	; (800495c <_sbrk_r+0x20>)
 8004942:	0004      	movs	r4, r0
 8004944:	0008      	movs	r0, r1
 8004946:	602b      	str	r3, [r5, #0]
 8004948:	f7fe f836 	bl	80029b8 <_sbrk>
 800494c:	1c43      	adds	r3, r0, #1
 800494e:	d103      	bne.n	8004958 <_sbrk_r+0x1c>
 8004950:	682b      	ldr	r3, [r5, #0]
 8004952:	2b00      	cmp	r3, #0
 8004954:	d000      	beq.n	8004958 <_sbrk_r+0x1c>
 8004956:	6023      	str	r3, [r4, #0]
 8004958:	bd70      	pop	{r4, r5, r6, pc}
 800495a:	46c0      	nop			; (mov r8, r8)
 800495c:	200001c0 	.word	0x200001c0

08004960 <__swbuf_r>:
 8004960:	b5f8      	push	{r3, r4, r5, r6, r7, lr}
 8004962:	0005      	movs	r5, r0
 8004964:	000e      	movs	r6, r1
 8004966:	0014      	movs	r4, r2
 8004968:	2800      	cmp	r0, #0
 800496a:	d004      	beq.n	8004976 <__swbuf_r+0x16>
 800496c:	6983      	ldr	r3, [r0, #24]
 800496e:	2b00      	cmp	r3, #0
 8004970:	d101      	bne.n	8004976 <__swbuf_r+0x16>
 8004972:	f000 f9f1 	bl	8004d58 <__sinit>
 8004976:	4b22      	ldr	r3, [pc, #136]	; (8004a00 <__swbuf_r+0xa0>)
 8004978:	429c      	cmp	r4, r3
 800497a:	d12e      	bne.n	80049da <__swbuf_r+0x7a>
 800497c:	686c      	ldr	r4, [r5, #4]
 800497e:	69a3      	ldr	r3, [r4, #24]
 8004980:	60a3      	str	r3, [r4, #8]
 8004982:	89a3      	ldrh	r3, [r4, #12]
 8004984:	071b      	lsls	r3, r3, #28
 8004986:	d532      	bpl.n	80049ee <__swbuf_r+0x8e>
 8004988:	6923      	ldr	r3, [r4, #16]
 800498a:	2b00      	cmp	r3, #0
 800498c:	d02f      	beq.n	80049ee <__swbuf_r+0x8e>
 800498e:	6823      	ldr	r3, [r4, #0]
 8004990:	6922      	ldr	r2, [r4, #16]
 8004992:	b2f7      	uxtb	r7, r6
 8004994:	1a98      	subs	r0, r3, r2
 8004996:	6963      	ldr	r3, [r4, #20]
 8004998:	b2f6      	uxtb	r6, r6
 800499a:	4283      	cmp	r3, r0
 800499c:	dc05      	bgt.n	80049aa <__swbuf_r+0x4a>
 800499e:	0021      	movs	r1, r4
 80049a0:	0028      	movs	r0, r5
 80049a2:	f000 f937 	bl	8004c14 <_fflush_r>
 80049a6:	2800      	cmp	r0, #0
 80049a8:	d127      	bne.n	80049fa <__swbuf_r+0x9a>
 80049aa:	68a3      	ldr	r3, [r4, #8]
 80049ac:	3001      	adds	r0, #1
 80049ae:	3b01      	subs	r3, #1
 80049b0:	60a3      	str	r3, [r4, #8]
 80049b2:	6823      	ldr	r3, [r4, #0]
 80049b4:	1c5a      	adds	r2, r3, #1
 80049b6:	6022      	str	r2, [r4, #0]
 80049b8:	701f      	strb	r7, [r3, #0]
 80049ba:	6963      	ldr	r3, [r4, #20]
 80049bc:	4283      	cmp	r3, r0
 80049be:	d004      	beq.n	80049ca <__swbuf_r+0x6a>
 80049c0:	89a3      	ldrh	r3, [r4, #12]
 80049c2:	07db      	lsls	r3, r3, #31
 80049c4:	d507      	bpl.n	80049d6 <__swbuf_r+0x76>
 80049c6:	2e0a      	cmp	r6, #10
 80049c8:	d105      	bne.n	80049d6 <__swbuf_r+0x76>
 80049ca:	0021      	movs	r1, r4
 80049cc:	0028      	movs	r0, r5
 80049ce:	f000 f921 	bl	8004c14 <_fflush_r>
 80049d2:	2800      	cmp	r0, #0
 80049d4:	d111      	bne.n	80049fa <__swbuf_r+0x9a>
 80049d6:	0030      	movs	r0, r6
 80049d8:	bdf8      	pop	{r3, r4, r5, r6, r7, pc}
 80049da:	4b0a      	ldr	r3, [pc, #40]	; (8004a04 <__swbuf_r+0xa4>)
 80049dc:	429c      	cmp	r4, r3
 80049de:	d101      	bne.n	80049e4 <__swbuf_r+0x84>
 80049e0:	68ac      	ldr	r4, [r5, #8]
 80049e2:	e7cc      	b.n	800497e <__swbuf_r+0x1e>
 80049e4:	4b08      	ldr	r3, [pc, #32]	; (8004a08 <__swbuf_r+0xa8>)
 80049e6:	429c      	cmp	r4, r3
 80049e8:	d1c9      	bne.n	800497e <__swbuf_r+0x1e>
 80049ea:	68ec      	ldr	r4, [r5, #12]
 80049ec:	e7c7      	b.n	800497e <__swbuf_r+0x1e>
 80049ee:	0021      	movs	r1, r4
 80049f0:	0028      	movs	r0, r5
 80049f2:	f000 f80b 	bl	8004a0c <__swsetup_r>
 80049f6:	2800      	cmp	r0, #0
 80049f8:	d0c9      	beq.n	800498e <__swbuf_r+0x2e>
 80049fa:	2601      	movs	r6, #1
 80049fc:	4276      	negs	r6, r6
 80049fe:	e7ea      	b.n	80049d6 <__swbuf_r+0x76>
 8004a00:	08005a34 	.word	0x08005a34
 8004a04:	08005a54 	.word	0x08005a54
 8004a08:	08005a14 	.word	0x08005a14

08004a0c <__swsetup_r>:
 8004a0c:	4b37      	ldr	r3, [pc, #220]	; (8004aec <__swsetup_r+0xe0>)
 8004a0e:	b570      	push	{r4, r5, r6, lr}
 8004a10:	681d      	ldr	r5, [r3, #0]
 8004a12:	0006      	movs	r6, r0
 8004a14:	000c      	movs	r4, r1
 8004a16:	2d00      	cmp	r5, #0
 8004a18:	d005      	beq.n	8004a26 <__swsetup_r+0x1a>
 8004a1a:	69ab      	ldr	r3, [r5, #24]
 8004a1c:	2b00      	cmp	r3, #0
 8004a1e:	d102      	bne.n	8004a26 <__swsetup_r+0x1a>
 8004a20:	0028      	movs	r0, r5
 8004a22:	f000 f999 	bl	8004d58 <__sinit>
 8004a26:	4b32      	ldr	r3, [pc, #200]	; (8004af0 <__swsetup_r+0xe4>)
 8004a28:	429c      	cmp	r4, r3
 8004a2a:	d10f      	bne.n	8004a4c <__swsetup_r+0x40>
 8004a2c:	686c      	ldr	r4, [r5, #4]
 8004a2e:	230c      	movs	r3, #12
 8004a30:	5ee2      	ldrsh	r2, [r4, r3]
 8004a32:	b293      	uxth	r3, r2
 8004a34:	0711      	lsls	r1, r2, #28
 8004a36:	d42d      	bmi.n	8004a94 <__swsetup_r+0x88>
 8004a38:	06d9      	lsls	r1, r3, #27
 8004a3a:	d411      	bmi.n	8004a60 <__swsetup_r+0x54>
 8004a3c:	2309      	movs	r3, #9
 8004a3e:	2001      	movs	r0, #1
 8004a40:	6033      	str	r3, [r6, #0]
 8004a42:	3337      	adds	r3, #55	; 0x37
 8004a44:	4313      	orrs	r3, r2
 8004a46:	81a3      	strh	r3, [r4, #12]
 8004a48:	4240      	negs	r0, r0
 8004a4a:	bd70      	pop	{r4, r5, r6, pc}
 8004a4c:	4b29      	ldr	r3, [pc, #164]	; (8004af4 <__swsetup_r+0xe8>)
 8004a4e:	429c      	cmp	r4, r3
 8004a50:	d101      	bne.n	8004a56 <__swsetup_r+0x4a>
 8004a52:	68ac      	ldr	r4, [r5, #8]
 8004a54:	e7eb      	b.n	8004a2e <__swsetup_r+0x22>
 8004a56:	4b28      	ldr	r3, [pc, #160]	; (8004af8 <__swsetup_r+0xec>)
 8004a58:	429c      	cmp	r4, r3
 8004a5a:	d1e8      	bne.n	8004a2e <__swsetup_r+0x22>
 8004a5c:	68ec      	ldr	r4, [r5, #12]
 8004a5e:	e7e6      	b.n	8004a2e <__swsetup_r+0x22>
 8004a60:	075b      	lsls	r3, r3, #29
 8004a62:	d513      	bpl.n	8004a8c <__swsetup_r+0x80>
 8004a64:	6b61      	ldr	r1, [r4, #52]	; 0x34
 8004a66:	2900      	cmp	r1, #0
 8004a68:	d008      	beq.n	8004a7c <__swsetup_r+0x70>
 8004a6a:	0023      	movs	r3, r4
 8004a6c:	3344      	adds	r3, #68	; 0x44
 8004a6e:	4299      	cmp	r1, r3
 8004a70:	d002      	beq.n	8004a78 <__swsetup_r+0x6c>
 8004a72:	0030      	movs	r0, r6
 8004a74:	f7ff fe24 	bl	80046c0 <_free_r>
 8004a78:	2300      	movs	r3, #0
 8004a7a:	6363      	str	r3, [r4, #52]	; 0x34
 8004a7c:	2224      	movs	r2, #36	; 0x24
 8004a7e:	89a3      	ldrh	r3, [r4, #12]
 8004a80:	4393      	bics	r3, r2
 8004a82:	81a3      	strh	r3, [r4, #12]
 8004a84:	2300      	movs	r3, #0
 8004a86:	6063      	str	r3, [r4, #4]
 8004a88:	6923      	ldr	r3, [r4, #16]
 8004a8a:	6023      	str	r3, [r4, #0]
 8004a8c:	2308      	movs	r3, #8
 8004a8e:	89a2      	ldrh	r2, [r4, #12]
 8004a90:	4313      	orrs	r3, r2
 8004a92:	81a3      	strh	r3, [r4, #12]
 8004a94:	6923      	ldr	r3, [r4, #16]
 8004a96:	2b00      	cmp	r3, #0
 8004a98:	d10b      	bne.n	8004ab2 <__swsetup_r+0xa6>
 8004a9a:	21a0      	movs	r1, #160	; 0xa0
 8004a9c:	2280      	movs	r2, #128	; 0x80
 8004a9e:	89a3      	ldrh	r3, [r4, #12]
 8004aa0:	0089      	lsls	r1, r1, #2
 8004aa2:	0092      	lsls	r2, r2, #2
 8004aa4:	400b      	ands	r3, r1
 8004aa6:	4293      	cmp	r3, r2
 8004aa8:	d003      	beq.n	8004ab2 <__swsetup_r+0xa6>
 8004aaa:	0021      	movs	r1, r4
 8004aac:	0030      	movs	r0, r6
 8004aae:	f000 fa1f 	bl	8004ef0 <__smakebuf_r>
 8004ab2:	220c      	movs	r2, #12
 8004ab4:	5ea3      	ldrsh	r3, [r4, r2]
 8004ab6:	2001      	movs	r0, #1
 8004ab8:	001a      	movs	r2, r3
 8004aba:	b299      	uxth	r1, r3
 8004abc:	4002      	ands	r2, r0
 8004abe:	4203      	tst	r3, r0
 8004ac0:	d00f      	beq.n	8004ae2 <__swsetup_r+0xd6>
 8004ac2:	2200      	movs	r2, #0
 8004ac4:	60a2      	str	r2, [r4, #8]
 8004ac6:	6962      	ldr	r2, [r4, #20]
 8004ac8:	4252      	negs	r2, r2
 8004aca:	61a2      	str	r2, [r4, #24]
 8004acc:	2000      	movs	r0, #0
 8004ace:	6922      	ldr	r2, [r4, #16]
 8004ad0:	4282      	cmp	r2, r0
 8004ad2:	d1ba      	bne.n	8004a4a <__swsetup_r+0x3e>
 8004ad4:	060a      	lsls	r2, r1, #24
 8004ad6:	d5b8      	bpl.n	8004a4a <__swsetup_r+0x3e>
 8004ad8:	2240      	movs	r2, #64	; 0x40
 8004ada:	4313      	orrs	r3, r2
 8004adc:	81a3      	strh	r3, [r4, #12]
 8004ade:	3801      	subs	r0, #1
 8004ae0:	e7b3      	b.n	8004a4a <__swsetup_r+0x3e>
 8004ae2:	0788      	lsls	r0, r1, #30
 8004ae4:	d400      	bmi.n	8004ae8 <__swsetup_r+0xdc>
 8004ae6:	6962      	ldr	r2, [r4, #20]
 8004ae8:	60a2      	str	r2, [r4, #8]
 8004aea:	e7ef      	b.n	8004acc <__swsetup_r+0xc0>
 8004aec:	2000000c 	.word	0x2000000c
 8004af0:	08005a34 	.word	0x08005a34
 8004af4:	08005a54 	.word	0x08005a54
 8004af8:	08005a14 	.word	0x08005a14

08004afc <__sflush_r>:
 8004afc:	b5f7      	push	{r0, r1, r2, r4, r5, r6, r7, lr}
 8004afe:	898b      	ldrh	r3, [r1, #12]
 8004b00:	0005      	movs	r5, r0
 8004b02:	000c      	movs	r4, r1
 8004b04:	071a      	lsls	r2, r3, #28
 8004b06:	d45f      	bmi.n	8004bc8 <__sflush_r+0xcc>
 8004b08:	684a      	ldr	r2, [r1, #4]
 8004b0a:	2a00      	cmp	r2, #0
 8004b0c:	dc04      	bgt.n	8004b18 <__sflush_r+0x1c>
 8004b0e:	6c0a      	ldr	r2, [r1, #64]	; 0x40
 8004b10:	2a00      	cmp	r2, #0
 8004b12:	dc01      	bgt.n	8004b18 <__sflush_r+0x1c>
 8004b14:	2000      	movs	r0, #0
 8004b16:	bdfe      	pop	{r1, r2, r3, r4, r5, r6, r7, pc}
 8004b18:	6ae7      	ldr	r7, [r4, #44]	; 0x2c
 8004b1a:	2f00      	cmp	r7, #0
 8004b1c:	d0fa      	beq.n	8004b14 <__sflush_r+0x18>
 8004b1e:	2200      	movs	r2, #0
 8004b20:	2180      	movs	r1, #128	; 0x80
 8004b22:	682e      	ldr	r6, [r5, #0]
 8004b24:	602a      	str	r2, [r5, #0]
 8004b26:	001a      	movs	r2, r3
 8004b28:	0149      	lsls	r1, r1, #5
 8004b2a:	400a      	ands	r2, r1
 8004b2c:	420b      	tst	r3, r1
 8004b2e:	d034      	beq.n	8004b9a <__sflush_r+0x9e>
 8004b30:	6d60      	ldr	r0, [r4, #84]	; 0x54
 8004b32:	89a3      	ldrh	r3, [r4, #12]
 8004b34:	075b      	lsls	r3, r3, #29
 8004b36:	d506      	bpl.n	8004b46 <__sflush_r+0x4a>
 8004b38:	6863      	ldr	r3, [r4, #4]
 8004b3a:	1ac0      	subs	r0, r0, r3
 8004b3c:	6b63      	ldr	r3, [r4, #52]	; 0x34
 8004b3e:	2b00      	cmp	r3, #0
 8004b40:	d001      	beq.n	8004b46 <__sflush_r+0x4a>
 8004b42:	6c23      	ldr	r3, [r4, #64]	; 0x40
 8004b44:	1ac0      	subs	r0, r0, r3
 8004b46:	0002      	movs	r2, r0
 8004b48:	6a21      	ldr	r1, [r4, #32]
 8004b4a:	2300      	movs	r3, #0
 8004b4c:	0028      	movs	r0, r5
 8004b4e:	6ae7      	ldr	r7, [r4, #44]	; 0x2c
 8004b50:	47b8      	blx	r7
 8004b52:	89a1      	ldrh	r1, [r4, #12]
 8004b54:	1c43      	adds	r3, r0, #1
 8004b56:	d106      	bne.n	8004b66 <__sflush_r+0x6a>
 8004b58:	682b      	ldr	r3, [r5, #0]
 8004b5a:	2b1d      	cmp	r3, #29
 8004b5c:	d831      	bhi.n	8004bc2 <__sflush_r+0xc6>
 8004b5e:	4a2c      	ldr	r2, [pc, #176]	; (8004c10 <__sflush_r+0x114>)
 8004b60:	40da      	lsrs	r2, r3
 8004b62:	07d3      	lsls	r3, r2, #31
 8004b64:	d52d      	bpl.n	8004bc2 <__sflush_r+0xc6>
 8004b66:	2300      	movs	r3, #0
 8004b68:	6063      	str	r3, [r4, #4]
 8004b6a:	6923      	ldr	r3, [r4, #16]
 8004b6c:	6023      	str	r3, [r4, #0]
 8004b6e:	04cb      	lsls	r3, r1, #19
 8004b70:	d505      	bpl.n	8004b7e <__sflush_r+0x82>
 8004b72:	1c43      	adds	r3, r0, #1
 8004b74:	d102      	bne.n	8004b7c <__sflush_r+0x80>
 8004b76:	682b      	ldr	r3, [r5, #0]
 8004b78:	2b00      	cmp	r3, #0
 8004b7a:	d100      	bne.n	8004b7e <__sflush_r+0x82>
 8004b7c:	6560      	str	r0, [r4, #84]	; 0x54
 8004b7e:	6b61      	ldr	r1, [r4, #52]	; 0x34
 8004b80:	602e      	str	r6, [r5, #0]
 8004b82:	2900      	cmp	r1, #0
 8004b84:	d0c6      	beq.n	8004b14 <__sflush_r+0x18>
 8004b86:	0023      	movs	r3, r4
 8004b88:	3344      	adds	r3, #68	; 0x44
 8004b8a:	4299      	cmp	r1, r3
 8004b8c:	d002      	beq.n	8004b94 <__sflush_r+0x98>
 8004b8e:	0028      	movs	r0, r5
 8004b90:	f7ff fd96 	bl	80046c0 <_free_r>
 8004b94:	2000      	movs	r0, #0
 8004b96:	6360      	str	r0, [r4, #52]	; 0x34
 8004b98:	e7bd      	b.n	8004b16 <__sflush_r+0x1a>
 8004b9a:	2301      	movs	r3, #1
 8004b9c:	0028      	movs	r0, r5
 8004b9e:	6a21      	ldr	r1, [r4, #32]
 8004ba0:	47b8      	blx	r7
 8004ba2:	1c43      	adds	r3, r0, #1
 8004ba4:	d1c5      	bne.n	8004b32 <__sflush_r+0x36>
 8004ba6:	682b      	ldr	r3, [r5, #0]
 8004ba8:	2b00      	cmp	r3, #0
 8004baa:	d0c2      	beq.n	8004b32 <__sflush_r+0x36>
 8004bac:	2b1d      	cmp	r3, #29
 8004bae:	d001      	beq.n	8004bb4 <__sflush_r+0xb8>
 8004bb0:	2b16      	cmp	r3, #22
 8004bb2:	d101      	bne.n	8004bb8 <__sflush_r+0xbc>
 8004bb4:	602e      	str	r6, [r5, #0]
 8004bb6:	e7ad      	b.n	8004b14 <__sflush_r+0x18>
 8004bb8:	2340      	movs	r3, #64	; 0x40
 8004bba:	89a2      	ldrh	r2, [r4, #12]
 8004bbc:	4313      	orrs	r3, r2
 8004bbe:	81a3      	strh	r3, [r4, #12]
 8004bc0:	e7a9      	b.n	8004b16 <__sflush_r+0x1a>
 8004bc2:	2340      	movs	r3, #64	; 0x40
 8004bc4:	430b      	orrs	r3, r1
 8004bc6:	e7fa      	b.n	8004bbe <__sflush_r+0xc2>
 8004bc8:	690f      	ldr	r7, [r1, #16]
 8004bca:	2f00      	cmp	r7, #0
 8004bcc:	d0a2      	beq.n	8004b14 <__sflush_r+0x18>
 8004bce:	680a      	ldr	r2, [r1, #0]
 8004bd0:	600f      	str	r7, [r1, #0]
 8004bd2:	1bd2      	subs	r2, r2, r7
 8004bd4:	9201      	str	r2, [sp, #4]
 8004bd6:	2200      	movs	r2, #0
 8004bd8:	079b      	lsls	r3, r3, #30
 8004bda:	d100      	bne.n	8004bde <__sflush_r+0xe2>
 8004bdc:	694a      	ldr	r2, [r1, #20]
 8004bde:	60a2      	str	r2, [r4, #8]
 8004be0:	9b01      	ldr	r3, [sp, #4]
 8004be2:	2b00      	cmp	r3, #0
 8004be4:	dc00      	bgt.n	8004be8 <__sflush_r+0xec>
 8004be6:	e795      	b.n	8004b14 <__sflush_r+0x18>
 8004be8:	003a      	movs	r2, r7
 8004bea:	0028      	movs	r0, r5
 8004bec:	9b01      	ldr	r3, [sp, #4]
 8004bee:	6a21      	ldr	r1, [r4, #32]
 8004bf0:	6aa6      	ldr	r6, [r4, #40]	; 0x28
 8004bf2:	47b0      	blx	r6
 8004bf4:	2800      	cmp	r0, #0
 8004bf6:	dc06      	bgt.n	8004c06 <__sflush_r+0x10a>
 8004bf8:	2340      	movs	r3, #64	; 0x40
 8004bfa:	2001      	movs	r0, #1
 8004bfc:	89a2      	ldrh	r2, [r4, #12]
 8004bfe:	4240      	negs	r0, r0
 8004c00:	4313      	orrs	r3, r2
 8004c02:	81a3      	strh	r3, [r4, #12]
 8004c04:	e787      	b.n	8004b16 <__sflush_r+0x1a>
 8004c06:	9b01      	ldr	r3, [sp, #4]
 8004c08:	183f      	adds	r7, r7, r0
 8004c0a:	1a1b      	subs	r3, r3, r0
 8004c0c:	9301      	str	r3, [sp, #4]
 8004c0e:	e7e7      	b.n	8004be0 <__sflush_r+0xe4>
 8004c10:	20400001 	.word	0x20400001

08004c14 <_fflush_r>:
 8004c14:	690b      	ldr	r3, [r1, #16]
 8004c16:	b570      	push	{r4, r5, r6, lr}
 8004c18:	0005      	movs	r5, r0
 8004c1a:	000c      	movs	r4, r1
 8004c1c:	2b00      	cmp	r3, #0
 8004c1e:	d102      	bne.n	8004c26 <_fflush_r+0x12>
 8004c20:	2500      	movs	r5, #0
 8004c22:	0028      	movs	r0, r5
 8004c24:	bd70      	pop	{r4, r5, r6, pc}
 8004c26:	2800      	cmp	r0, #0
 8004c28:	d004      	beq.n	8004c34 <_fflush_r+0x20>
 8004c2a:	6983      	ldr	r3, [r0, #24]
 8004c2c:	2b00      	cmp	r3, #0
 8004c2e:	d101      	bne.n	8004c34 <_fflush_r+0x20>
 8004c30:	f000 f892 	bl	8004d58 <__sinit>
 8004c34:	4b14      	ldr	r3, [pc, #80]	; (8004c88 <_fflush_r+0x74>)
 8004c36:	429c      	cmp	r4, r3
 8004c38:	d11b      	bne.n	8004c72 <_fflush_r+0x5e>
 8004c3a:	686c      	ldr	r4, [r5, #4]
 8004c3c:	220c      	movs	r2, #12
 8004c3e:	5ea3      	ldrsh	r3, [r4, r2]
 8004c40:	2b00      	cmp	r3, #0
 8004c42:	d0ed      	beq.n	8004c20 <_fflush_r+0xc>
 8004c44:	6e62      	ldr	r2, [r4, #100]	; 0x64
 8004c46:	07d2      	lsls	r2, r2, #31
 8004c48:	d404      	bmi.n	8004c54 <_fflush_r+0x40>
 8004c4a:	059b      	lsls	r3, r3, #22
 8004c4c:	d402      	bmi.n	8004c54 <_fflush_r+0x40>
 8004c4e:	6da0      	ldr	r0, [r4, #88]	; 0x58
 8004c50:	f000 f923 	bl	8004e9a <__retarget_lock_acquire_recursive>
 8004c54:	0028      	movs	r0, r5
 8004c56:	0021      	movs	r1, r4
 8004c58:	f7ff ff50 	bl	8004afc <__sflush_r>
 8004c5c:	6e63      	ldr	r3, [r4, #100]	; 0x64
 8004c5e:	0005      	movs	r5, r0
 8004c60:	07db      	lsls	r3, r3, #31
 8004c62:	d4de      	bmi.n	8004c22 <_fflush_r+0xe>
 8004c64:	89a3      	ldrh	r3, [r4, #12]
 8004c66:	059b      	lsls	r3, r3, #22
 8004c68:	d4db      	bmi.n	8004c22 <_fflush_r+0xe>
 8004c6a:	6da0      	ldr	r0, [r4, #88]	; 0x58
 8004c6c:	f000 f916 	bl	8004e9c <__retarget_lock_release_recursive>
 8004c70:	e7d7      	b.n	8004c22 <_fflush_r+0xe>
 8004c72:	4b06      	ldr	r3, [pc, #24]	; (8004c8c <_fflush_r+0x78>)
 8004c74:	429c      	cmp	r4, r3
 8004c76:	d101      	bne.n	8004c7c <_fflush_r+0x68>
 8004c78:	68ac      	ldr	r4, [r5, #8]
 8004c7a:	e7df      	b.n	8004c3c <_fflush_r+0x28>
 8004c7c:	4b04      	ldr	r3, [pc, #16]	; (8004c90 <_fflush_r+0x7c>)
 8004c7e:	429c      	cmp	r4, r3
 8004c80:	d1dc      	bne.n	8004c3c <_fflush_r+0x28>
 8004c82:	68ec      	ldr	r4, [r5, #12]
 8004c84:	e7da      	b.n	8004c3c <_fflush_r+0x28>
 8004c86:	46c0      	nop			; (mov r8, r8)
 8004c88:	08005a34 	.word	0x08005a34
 8004c8c:	08005a54 	.word	0x08005a54
 8004c90:	08005a14 	.word	0x08005a14

08004c94 <std>:
 8004c94:	2300      	movs	r3, #0
 8004c96:	b510      	push	{r4, lr}
 8004c98:	0004      	movs	r4, r0
 8004c9a:	6003      	str	r3, [r0, #0]
 8004c9c:	6043      	str	r3, [r0, #4]
 8004c9e:	6083      	str	r3, [r0, #8]
 8004ca0:	8181      	strh	r1, [r0, #12]
 8004ca2:	6643      	str	r3, [r0, #100]	; 0x64
 8004ca4:	0019      	movs	r1, r3
 8004ca6:	81c2      	strh	r2, [r0, #14]
 8004ca8:	6103      	str	r3, [r0, #16]
 8004caa:	6143      	str	r3, [r0, #20]
 8004cac:	6183      	str	r3, [r0, #24]
 8004cae:	2208      	movs	r2, #8
 8004cb0:	305c      	adds	r0, #92	; 0x5c
 8004cb2:	f7ff fcfd 	bl	80046b0 <memset>
 8004cb6:	4b05      	ldr	r3, [pc, #20]	; (8004ccc <std+0x38>)
 8004cb8:	6263      	str	r3, [r4, #36]	; 0x24
 8004cba:	4b05      	ldr	r3, [pc, #20]	; (8004cd0 <std+0x3c>)
 8004cbc:	6224      	str	r4, [r4, #32]
 8004cbe:	62a3      	str	r3, [r4, #40]	; 0x28
 8004cc0:	4b04      	ldr	r3, [pc, #16]	; (8004cd4 <std+0x40>)
 8004cc2:	62e3      	str	r3, [r4, #44]	; 0x2c
 8004cc4:	4b04      	ldr	r3, [pc, #16]	; (8004cd8 <std+0x44>)
 8004cc6:	6323      	str	r3, [r4, #48]	; 0x30
 8004cc8:	bd10      	pop	{r4, pc}
 8004cca:	46c0      	nop			; (mov r8, r8)
 8004ccc:	08005561 	.word	0x08005561
 8004cd0:	08005589 	.word	0x08005589
 8004cd4:	080055c1 	.word	0x080055c1
 8004cd8:	080055ed 	.word	0x080055ed

08004cdc <_cleanup_r>:
 8004cdc:	b510      	push	{r4, lr}
 8004cde:	4902      	ldr	r1, [pc, #8]	; (8004ce8 <_cleanup_r+0xc>)
 8004ce0:	f000 f8ba 	bl	8004e58 <_fwalk_reent>
 8004ce4:	bd10      	pop	{r4, pc}
 8004ce6:	46c0      	nop			; (mov r8, r8)
 8004ce8:	08004c15 	.word	0x08004c15

08004cec <__sfmoreglue>:
 8004cec:	b570      	push	{r4, r5, r6, lr}
 8004cee:	2568      	movs	r5, #104	; 0x68
 8004cf0:	1e4a      	subs	r2, r1, #1
 8004cf2:	4355      	muls	r5, r2
 8004cf4:	000e      	movs	r6, r1
 8004cf6:	0029      	movs	r1, r5
 8004cf8:	3174      	adds	r1, #116	; 0x74
 8004cfa:	f7ff fd2b 	bl	8004754 <_malloc_r>
 8004cfe:	1e04      	subs	r4, r0, #0
 8004d00:	d008      	beq.n	8004d14 <__sfmoreglue+0x28>
 8004d02:	2100      	movs	r1, #0
 8004d04:	002a      	movs	r2, r5
 8004d06:	6001      	str	r1, [r0, #0]
 8004d08:	6046      	str	r6, [r0, #4]
 8004d0a:	300c      	adds	r0, #12
 8004d0c:	60a0      	str	r0, [r4, #8]
 8004d0e:	3268      	adds	r2, #104	; 0x68
 8004d10:	f7ff fcce 	bl	80046b0 <memset>
 8004d14:	0020      	movs	r0, r4
 8004d16:	bd70      	pop	{r4, r5, r6, pc}

08004d18 <__sfp_lock_acquire>:
 8004d18:	b510      	push	{r4, lr}
 8004d1a:	4802      	ldr	r0, [pc, #8]	; (8004d24 <__sfp_lock_acquire+0xc>)
 8004d1c:	f000 f8bd 	bl	8004e9a <__retarget_lock_acquire_recursive>
 8004d20:	bd10      	pop	{r4, pc}
 8004d22:	46c0      	nop			; (mov r8, r8)
 8004d24:	200001bc 	.word	0x200001bc

08004d28 <__sfp_lock_release>:
 8004d28:	b510      	push	{r4, lr}
 8004d2a:	4802      	ldr	r0, [pc, #8]	; (8004d34 <__sfp_lock_release+0xc>)
 8004d2c:	f000 f8b6 	bl	8004e9c <__retarget_lock_release_recursive>
 8004d30:	bd10      	pop	{r4, pc}
 8004d32:	46c0      	nop			; (mov r8, r8)
 8004d34:	200001bc 	.word	0x200001bc

08004d38 <__sinit_lock_acquire>:
 8004d38:	b510      	push	{r4, lr}
 8004d3a:	4802      	ldr	r0, [pc, #8]	; (8004d44 <__sinit_lock_acquire+0xc>)
 8004d3c:	f000 f8ad 	bl	8004e9a <__retarget_lock_acquire_recursive>
 8004d40:	bd10      	pop	{r4, pc}
 8004d42:	46c0      	nop			; (mov r8, r8)
 8004d44:	200001b7 	.word	0x200001b7

08004d48 <__sinit_lock_release>:
 8004d48:	b510      	push	{r4, lr}
 8004d4a:	4802      	ldr	r0, [pc, #8]	; (8004d54 <__sinit_lock_release+0xc>)
 8004d4c:	f000 f8a6 	bl	8004e9c <__retarget_lock_release_recursive>
 8004d50:	bd10      	pop	{r4, pc}
 8004d52:	46c0      	nop			; (mov r8, r8)
 8004d54:	200001b7 	.word	0x200001b7

08004d58 <__sinit>:
 8004d58:	b513      	push	{r0, r1, r4, lr}
 8004d5a:	0004      	movs	r4, r0
 8004d5c:	f7ff ffec 	bl	8004d38 <__sinit_lock_acquire>
 8004d60:	69a3      	ldr	r3, [r4, #24]
 8004d62:	2b00      	cmp	r3, #0
 8004d64:	d002      	beq.n	8004d6c <__sinit+0x14>
 8004d66:	f7ff ffef 	bl	8004d48 <__sinit_lock_release>
 8004d6a:	bd13      	pop	{r0, r1, r4, pc}
 8004d6c:	64a3      	str	r3, [r4, #72]	; 0x48
 8004d6e:	64e3      	str	r3, [r4, #76]	; 0x4c
 8004d70:	6523      	str	r3, [r4, #80]	; 0x50
 8004d72:	4b13      	ldr	r3, [pc, #76]	; (8004dc0 <__sinit+0x68>)
 8004d74:	4a13      	ldr	r2, [pc, #76]	; (8004dc4 <__sinit+0x6c>)
 8004d76:	681b      	ldr	r3, [r3, #0]
 8004d78:	62a2      	str	r2, [r4, #40]	; 0x28
 8004d7a:	9301      	str	r3, [sp, #4]
 8004d7c:	42a3      	cmp	r3, r4
 8004d7e:	d101      	bne.n	8004d84 <__sinit+0x2c>
 8004d80:	2301      	movs	r3, #1
 8004d82:	61a3      	str	r3, [r4, #24]
 8004d84:	0020      	movs	r0, r4
 8004d86:	f000 f81f 	bl	8004dc8 <__sfp>
 8004d8a:	6060      	str	r0, [r4, #4]
 8004d8c:	0020      	movs	r0, r4
 8004d8e:	f000 f81b 	bl	8004dc8 <__sfp>
 8004d92:	60a0      	str	r0, [r4, #8]
 8004d94:	0020      	movs	r0, r4
 8004d96:	f000 f817 	bl	8004dc8 <__sfp>
 8004d9a:	2200      	movs	r2, #0
 8004d9c:	2104      	movs	r1, #4
 8004d9e:	60e0      	str	r0, [r4, #12]
 8004da0:	6860      	ldr	r0, [r4, #4]
 8004da2:	f7ff ff77 	bl	8004c94 <std>
 8004da6:	2201      	movs	r2, #1
 8004da8:	2109      	movs	r1, #9
 8004daa:	68a0      	ldr	r0, [r4, #8]
 8004dac:	f7ff ff72 	bl	8004c94 <std>
 8004db0:	2202      	movs	r2, #2
 8004db2:	2112      	movs	r1, #18
 8004db4:	68e0      	ldr	r0, [r4, #12]
 8004db6:	f7ff ff6d 	bl	8004c94 <std>
 8004dba:	2301      	movs	r3, #1
 8004dbc:	61a3      	str	r3, [r4, #24]
 8004dbe:	e7d2      	b.n	8004d66 <__sinit+0xe>
 8004dc0:	08005a10 	.word	0x08005a10
 8004dc4:	08004cdd 	.word	0x08004cdd

08004dc8 <__sfp>:
 8004dc8:	b5f8      	push	{r3, r4, r5, r6, r7, lr}
 8004dca:	0007      	movs	r7, r0
 8004dcc:	f7ff ffa4 	bl	8004d18 <__sfp_lock_acquire>
 8004dd0:	4b1f      	ldr	r3, [pc, #124]	; (8004e50 <__sfp+0x88>)
 8004dd2:	681e      	ldr	r6, [r3, #0]
 8004dd4:	69b3      	ldr	r3, [r6, #24]
 8004dd6:	2b00      	cmp	r3, #0
 8004dd8:	d102      	bne.n	8004de0 <__sfp+0x18>
 8004dda:	0030      	movs	r0, r6
 8004ddc:	f7ff ffbc 	bl	8004d58 <__sinit>
 8004de0:	3648      	adds	r6, #72	; 0x48
 8004de2:	68b4      	ldr	r4, [r6, #8]
 8004de4:	6873      	ldr	r3, [r6, #4]
 8004de6:	3b01      	subs	r3, #1
 8004de8:	d504      	bpl.n	8004df4 <__sfp+0x2c>
 8004dea:	6833      	ldr	r3, [r6, #0]
 8004dec:	2b00      	cmp	r3, #0
 8004dee:	d022      	beq.n	8004e36 <__sfp+0x6e>
 8004df0:	6836      	ldr	r6, [r6, #0]
 8004df2:	e7f6      	b.n	8004de2 <__sfp+0x1a>
 8004df4:	220c      	movs	r2, #12
 8004df6:	5ea5      	ldrsh	r5, [r4, r2]
 8004df8:	2d00      	cmp	r5, #0
 8004dfa:	d11a      	bne.n	8004e32 <__sfp+0x6a>
 8004dfc:	0020      	movs	r0, r4
 8004dfe:	4b15      	ldr	r3, [pc, #84]	; (8004e54 <__sfp+0x8c>)
 8004e00:	3058      	adds	r0, #88	; 0x58
 8004e02:	60e3      	str	r3, [r4, #12]
 8004e04:	6665      	str	r5, [r4, #100]	; 0x64
 8004e06:	f000 f847 	bl	8004e98 <__retarget_lock_init_recursive>
 8004e0a:	f7ff ff8d 	bl	8004d28 <__sfp_lock_release>
 8004e0e:	0020      	movs	r0, r4
 8004e10:	2208      	movs	r2, #8
 8004e12:	0029      	movs	r1, r5
 8004e14:	6025      	str	r5, [r4, #0]
 8004e16:	60a5      	str	r5, [r4, #8]
 8004e18:	6065      	str	r5, [r4, #4]
 8004e1a:	6125      	str	r5, [r4, #16]
 8004e1c:	6165      	str	r5, [r4, #20]
 8004e1e:	61a5      	str	r5, [r4, #24]
 8004e20:	305c      	adds	r0, #92	; 0x5c
 8004e22:	f7ff fc45 	bl	80046b0 <memset>
 8004e26:	6365      	str	r5, [r4, #52]	; 0x34
 8004e28:	63a5      	str	r5, [r4, #56]	; 0x38
 8004e2a:	64a5      	str	r5, [r4, #72]	; 0x48
 8004e2c:	64e5      	str	r5, [r4, #76]	; 0x4c
 8004e2e:	0020      	movs	r0, r4
 8004e30:	bdf8      	pop	{r3, r4, r5, r6, r7, pc}
 8004e32:	3468      	adds	r4, #104	; 0x68
 8004e34:	e7d7      	b.n	8004de6 <__sfp+0x1e>
 8004e36:	2104      	movs	r1, #4
 8004e38:	0038      	movs	r0, r7
 8004e3a:	f7ff ff57 	bl	8004cec <__sfmoreglue>
 8004e3e:	1e04      	subs	r4, r0, #0
 8004e40:	6030      	str	r0, [r6, #0]
 8004e42:	d1d5      	bne.n	8004df0 <__sfp+0x28>
 8004e44:	f7ff ff70 	bl	8004d28 <__sfp_lock_release>
 8004e48:	230c      	movs	r3, #12
 8004e4a:	603b      	str	r3, [r7, #0]
 8004e4c:	e7ef      	b.n	8004e2e <__sfp+0x66>
 8004e4e:	46c0      	nop			; (mov r8, r8)
 8004e50:	08005a10 	.word	0x08005a10
 8004e54:	ffff0001 	.word	0xffff0001

08004e58 <_fwalk_reent>:
 8004e58:	b5f7      	push	{r0, r1, r2, r4, r5, r6, r7, lr}
 8004e5a:	0004      	movs	r4, r0
 8004e5c:	0006      	movs	r6, r0
 8004e5e:	2700      	movs	r7, #0
 8004e60:	9101      	str	r1, [sp, #4]
 8004e62:	3448      	adds	r4, #72	; 0x48
 8004e64:	6863      	ldr	r3, [r4, #4]
 8004e66:	68a5      	ldr	r5, [r4, #8]
 8004e68:	9300      	str	r3, [sp, #0]
 8004e6a:	9b00      	ldr	r3, [sp, #0]
 8004e6c:	3b01      	subs	r3, #1
 8004e6e:	9300      	str	r3, [sp, #0]
 8004e70:	d504      	bpl.n	8004e7c <_fwalk_reent+0x24>
 8004e72:	6824      	ldr	r4, [r4, #0]
 8004e74:	2c00      	cmp	r4, #0
 8004e76:	d1f5      	bne.n	8004e64 <_fwalk_reent+0xc>
 8004e78:	0038      	movs	r0, r7
 8004e7a:	bdfe      	pop	{r1, r2, r3, r4, r5, r6, r7, pc}
 8004e7c:	89ab      	ldrh	r3, [r5, #12]
 8004e7e:	2b01      	cmp	r3, #1
 8004e80:	d908      	bls.n	8004e94 <_fwalk_reent+0x3c>
 8004e82:	220e      	movs	r2, #14
 8004e84:	5eab      	ldrsh	r3, [r5, r2]
 8004e86:	3301      	adds	r3, #1
 8004e88:	d004      	beq.n	8004e94 <_fwalk_reent+0x3c>
 8004e8a:	0029      	movs	r1, r5
 8004e8c:	0030      	movs	r0, r6
 8004e8e:	9b01      	ldr	r3, [sp, #4]
 8004e90:	4798      	blx	r3
 8004e92:	4307      	orrs	r7, r0
 8004e94:	3568      	adds	r5, #104	; 0x68
 8004e96:	e7e8      	b.n	8004e6a <_fwalk_reent+0x12>

08004e98 <__retarget_lock_init_recursive>:
 8004e98:	4770      	bx	lr

08004e9a <__retarget_lock_acquire_recursive>:
 8004e9a:	4770      	bx	lr

08004e9c <__retarget_lock_release_recursive>:
 8004e9c:	4770      	bx	lr
	...

08004ea0 <__swhatbuf_r>:
 8004ea0:	b570      	push	{r4, r5, r6, lr}
 8004ea2:	000e      	movs	r6, r1
 8004ea4:	001d      	movs	r5, r3
 8004ea6:	230e      	movs	r3, #14
 8004ea8:	5ec9      	ldrsh	r1, [r1, r3]
 8004eaa:	0014      	movs	r4, r2
 8004eac:	b096      	sub	sp, #88	; 0x58
 8004eae:	2900      	cmp	r1, #0
 8004eb0:	da07      	bge.n	8004ec2 <__swhatbuf_r+0x22>
 8004eb2:	2300      	movs	r3, #0
 8004eb4:	602b      	str	r3, [r5, #0]
 8004eb6:	89b3      	ldrh	r3, [r6, #12]
 8004eb8:	061b      	lsls	r3, r3, #24
 8004eba:	d411      	bmi.n	8004ee0 <__swhatbuf_r+0x40>
 8004ebc:	2380      	movs	r3, #128	; 0x80
 8004ebe:	00db      	lsls	r3, r3, #3
 8004ec0:	e00f      	b.n	8004ee2 <__swhatbuf_r+0x42>
 8004ec2:	466a      	mov	r2, sp
 8004ec4:	f000 fbbe 	bl	8005644 <_fstat_r>
 8004ec8:	2800      	cmp	r0, #0
 8004eca:	dbf2      	blt.n	8004eb2 <__swhatbuf_r+0x12>
 8004ecc:	23f0      	movs	r3, #240	; 0xf0
 8004ece:	9901      	ldr	r1, [sp, #4]
 8004ed0:	021b      	lsls	r3, r3, #8
 8004ed2:	4019      	ands	r1, r3
 8004ed4:	4b05      	ldr	r3, [pc, #20]	; (8004eec <__swhatbuf_r+0x4c>)
 8004ed6:	18c9      	adds	r1, r1, r3
 8004ed8:	424b      	negs	r3, r1
 8004eda:	4159      	adcs	r1, r3
 8004edc:	6029      	str	r1, [r5, #0]
 8004ede:	e7ed      	b.n	8004ebc <__swhatbuf_r+0x1c>
 8004ee0:	2340      	movs	r3, #64	; 0x40
 8004ee2:	2000      	movs	r0, #0
 8004ee4:	6023      	str	r3, [r4, #0]
 8004ee6:	b016      	add	sp, #88	; 0x58
 8004ee8:	bd70      	pop	{r4, r5, r6, pc}
 8004eea:	46c0      	nop			; (mov r8, r8)
 8004eec:	ffffe000 	.word	0xffffe000

08004ef0 <__smakebuf_r>:
 8004ef0:	b5f7      	push	{r0, r1, r2, r4, r5, r6, r7, lr}
 8004ef2:	2602      	movs	r6, #2
 8004ef4:	898b      	ldrh	r3, [r1, #12]
 8004ef6:	0005      	movs	r5, r0
 8004ef8:	000c      	movs	r4, r1
 8004efa:	4233      	tst	r3, r6
 8004efc:	d006      	beq.n	8004f0c <__smakebuf_r+0x1c>
 8004efe:	0023      	movs	r3, r4
 8004f00:	3347      	adds	r3, #71	; 0x47
 8004f02:	6023      	str	r3, [r4, #0]
 8004f04:	6123      	str	r3, [r4, #16]
 8004f06:	2301      	movs	r3, #1
 8004f08:	6163      	str	r3, [r4, #20]
 8004f0a:	bdf7      	pop	{r0, r1, r2, r4, r5, r6, r7, pc}
 8004f0c:	466a      	mov	r2, sp
 8004f0e:	ab01      	add	r3, sp, #4
 8004f10:	f7ff ffc6 	bl	8004ea0 <__swhatbuf_r>
 8004f14:	9900      	ldr	r1, [sp, #0]
 8004f16:	0007      	movs	r7, r0
 8004f18:	0028      	movs	r0, r5
 8004f1a:	f7ff fc1b 	bl	8004754 <_malloc_r>
 8004f1e:	2800      	cmp	r0, #0
 8004f20:	d108      	bne.n	8004f34 <__smakebuf_r+0x44>
 8004f22:	220c      	movs	r2, #12
 8004f24:	5ea3      	ldrsh	r3, [r4, r2]
 8004f26:	059a      	lsls	r2, r3, #22
 8004f28:	d4ef      	bmi.n	8004f0a <__smakebuf_r+0x1a>
 8004f2a:	2203      	movs	r2, #3
 8004f2c:	4393      	bics	r3, r2
 8004f2e:	431e      	orrs	r6, r3
 8004f30:	81a6      	strh	r6, [r4, #12]
 8004f32:	e7e4      	b.n	8004efe <__smakebuf_r+0xe>
 8004f34:	4b0f      	ldr	r3, [pc, #60]	; (8004f74 <__smakebuf_r+0x84>)
 8004f36:	62ab      	str	r3, [r5, #40]	; 0x28
 8004f38:	2380      	movs	r3, #128	; 0x80
 8004f3a:	89a2      	ldrh	r2, [r4, #12]
 8004f3c:	6020      	str	r0, [r4, #0]
 8004f3e:	4313      	orrs	r3, r2
 8004f40:	81a3      	strh	r3, [r4, #12]
 8004f42:	9b00      	ldr	r3, [sp, #0]
 8004f44:	6120      	str	r0, [r4, #16]
 8004f46:	6163      	str	r3, [r4, #20]
 8004f48:	9b01      	ldr	r3, [sp, #4]
 8004f4a:	2b00      	cmp	r3, #0
 8004f4c:	d00d      	beq.n	8004f6a <__smakebuf_r+0x7a>
 8004f4e:	0028      	movs	r0, r5
 8004f50:	230e      	movs	r3, #14
 8004f52:	5ee1      	ldrsh	r1, [r4, r3]
 8004f54:	f000 fb88 	bl	8005668 <_isatty_r>
 8004f58:	2800      	cmp	r0, #0
 8004f5a:	d006      	beq.n	8004f6a <__smakebuf_r+0x7a>
 8004f5c:	2203      	movs	r2, #3
 8004f5e:	89a3      	ldrh	r3, [r4, #12]
 8004f60:	4393      	bics	r3, r2
 8004f62:	001a      	movs	r2, r3
 8004f64:	2301      	movs	r3, #1
 8004f66:	4313      	orrs	r3, r2
 8004f68:	81a3      	strh	r3, [r4, #12]
 8004f6a:	89a0      	ldrh	r0, [r4, #12]
 8004f6c:	4307      	orrs	r7, r0
 8004f6e:	81a7      	strh	r7, [r4, #12]
 8004f70:	e7cb      	b.n	8004f0a <__smakebuf_r+0x1a>
 8004f72:	46c0      	nop			; (mov r8, r8)
 8004f74:	08004cdd 	.word	0x08004cdd

08004f78 <__malloc_lock>:
 8004f78:	b510      	push	{r4, lr}
 8004f7a:	4802      	ldr	r0, [pc, #8]	; (8004f84 <__malloc_lock+0xc>)
 8004f7c:	f7ff ff8d 	bl	8004e9a <__retarget_lock_acquire_recursive>
 8004f80:	bd10      	pop	{r4, pc}
 8004f82:	46c0      	nop			; (mov r8, r8)
 8004f84:	200001b8 	.word	0x200001b8

08004f88 <__malloc_unlock>:
 8004f88:	b510      	push	{r4, lr}
 8004f8a:	4802      	ldr	r0, [pc, #8]	; (8004f94 <__malloc_unlock+0xc>)
 8004f8c:	f7ff ff86 	bl	8004e9c <__retarget_lock_release_recursive>
 8004f90:	bd10      	pop	{r4, pc}
 8004f92:	46c0      	nop			; (mov r8, r8)
 8004f94:	200001b8 	.word	0x200001b8

08004f98 <__sfputc_r>:
 8004f98:	6893      	ldr	r3, [r2, #8]
 8004f9a:	b510      	push	{r4, lr}
 8004f9c:	3b01      	subs	r3, #1
 8004f9e:	6093      	str	r3, [r2, #8]
 8004fa0:	2b00      	cmp	r3, #0
 8004fa2:	da04      	bge.n	8004fae <__sfputc_r+0x16>
 8004fa4:	6994      	ldr	r4, [r2, #24]
 8004fa6:	42a3      	cmp	r3, r4
 8004fa8:	db07      	blt.n	8004fba <__sfputc_r+0x22>
 8004faa:	290a      	cmp	r1, #10
 8004fac:	d005      	beq.n	8004fba <__sfputc_r+0x22>
 8004fae:	6813      	ldr	r3, [r2, #0]
 8004fb0:	1c58      	adds	r0, r3, #1
 8004fb2:	6010      	str	r0, [r2, #0]
 8004fb4:	7019      	strb	r1, [r3, #0]
 8004fb6:	0008      	movs	r0, r1
 8004fb8:	bd10      	pop	{r4, pc}
 8004fba:	f7ff fcd1 	bl	8004960 <__swbuf_r>
 8004fbe:	0001      	movs	r1, r0
 8004fc0:	e7f9      	b.n	8004fb6 <__sfputc_r+0x1e>

08004fc2 <__sfputs_r>:
 8004fc2:	b5f8      	push	{r3, r4, r5, r6, r7, lr}
 8004fc4:	0006      	movs	r6, r0
 8004fc6:	000f      	movs	r7, r1
 8004fc8:	0014      	movs	r4, r2
 8004fca:	18d5      	adds	r5, r2, r3
 8004fcc:	42ac      	cmp	r4, r5
 8004fce:	d101      	bne.n	8004fd4 <__sfputs_r+0x12>
 8004fd0:	2000      	movs	r0, #0
 8004fd2:	e007      	b.n	8004fe4 <__sfputs_r+0x22>
 8004fd4:	7821      	ldrb	r1, [r4, #0]
 8004fd6:	003a      	movs	r2, r7
 8004fd8:	0030      	movs	r0, r6
 8004fda:	f7ff ffdd 	bl	8004f98 <__sfputc_r>
 8004fde:	3401      	adds	r4, #1
 8004fe0:	1c43      	adds	r3, r0, #1
 8004fe2:	d1f3      	bne.n	8004fcc <__sfputs_r+0xa>
 8004fe4:	bdf8      	pop	{r3, r4, r5, r6, r7, pc}
	...

08004fe8 <_vfiprintf_r>:
 8004fe8:	b5f0      	push	{r4, r5, r6, r7, lr}
 8004fea:	b0a1      	sub	sp, #132	; 0x84
 8004fec:	0006      	movs	r6, r0
 8004fee:	000c      	movs	r4, r1
 8004ff0:	001f      	movs	r7, r3
 8004ff2:	9203      	str	r2, [sp, #12]
 8004ff4:	2800      	cmp	r0, #0
 8004ff6:	d004      	beq.n	8005002 <_vfiprintf_r+0x1a>
 8004ff8:	6983      	ldr	r3, [r0, #24]
 8004ffa:	2b00      	cmp	r3, #0
 8004ffc:	d101      	bne.n	8005002 <_vfiprintf_r+0x1a>
 8004ffe:	f7ff feab 	bl	8004d58 <__sinit>
 8005002:	4b8e      	ldr	r3, [pc, #568]	; (800523c <_vfiprintf_r+0x254>)
 8005004:	429c      	cmp	r4, r3
 8005006:	d11c      	bne.n	8005042 <_vfiprintf_r+0x5a>
 8005008:	6874      	ldr	r4, [r6, #4]
 800500a:	6e63      	ldr	r3, [r4, #100]	; 0x64
 800500c:	07db      	lsls	r3, r3, #31
 800500e:	d405      	bmi.n	800501c <_vfiprintf_r+0x34>
 8005010:	89a3      	ldrh	r3, [r4, #12]
 8005012:	059b      	lsls	r3, r3, #22
 8005014:	d402      	bmi.n	800501c <_vfiprintf_r+0x34>
 8005016:	6da0      	ldr	r0, [r4, #88]	; 0x58
 8005018:	f7ff ff3f 	bl	8004e9a <__retarget_lock_acquire_recursive>
 800501c:	89a3      	ldrh	r3, [r4, #12]
 800501e:	071b      	lsls	r3, r3, #28
 8005020:	d502      	bpl.n	8005028 <_vfiprintf_r+0x40>
 8005022:	6923      	ldr	r3, [r4, #16]
 8005024:	2b00      	cmp	r3, #0
 8005026:	d11d      	bne.n	8005064 <_vfiprintf_r+0x7c>
 8005028:	0021      	movs	r1, r4
 800502a:	0030      	movs	r0, r6
 800502c:	f7ff fcee 	bl	8004a0c <__swsetup_r>
 8005030:	2800      	cmp	r0, #0
 8005032:	d017      	beq.n	8005064 <_vfiprintf_r+0x7c>
 8005034:	6e63      	ldr	r3, [r4, #100]	; 0x64
 8005036:	07db      	lsls	r3, r3, #31
 8005038:	d50d      	bpl.n	8005056 <_vfiprintf_r+0x6e>
 800503a:	2001      	movs	r0, #1
 800503c:	4240      	negs	r0, r0
 800503e:	b021      	add	sp, #132	; 0x84
 8005040:	bdf0      	pop	{r4, r5, r6, r7, pc}
 8005042:	4b7f      	ldr	r3, [pc, #508]	; (8005240 <_vfiprintf_r+0x258>)
 8005044:	429c      	cmp	r4, r3
 8005046:	d101      	bne.n	800504c <_vfiprintf_r+0x64>
 8005048:	68b4      	ldr	r4, [r6, #8]
 800504a:	e7de      	b.n	800500a <_vfiprintf_r+0x22>
 800504c:	4b7d      	ldr	r3, [pc, #500]	; (8005244 <_vfiprintf_r+0x25c>)
 800504e:	429c      	cmp	r4, r3
 8005050:	d1db      	bne.n	800500a <_vfiprintf_r+0x22>
 8005052:	68f4      	ldr	r4, [r6, #12]
 8005054:	e7d9      	b.n	800500a <_vfiprintf_r+0x22>
 8005056:	89a3      	ldrh	r3, [r4, #12]
 8005058:	059b      	lsls	r3, r3, #22
 800505a:	d4ee      	bmi.n	800503a <_vfiprintf_r+0x52>
 800505c:	6da0      	ldr	r0, [r4, #88]	; 0x58
 800505e:	f7ff ff1d 	bl	8004e9c <__retarget_lock_release_recursive>
 8005062:	e7ea      	b.n	800503a <_vfiprintf_r+0x52>
 8005064:	2300      	movs	r3, #0
 8005066:	ad08      	add	r5, sp, #32
 8005068:	616b      	str	r3, [r5, #20]
 800506a:	3320      	adds	r3, #32
 800506c:	766b      	strb	r3, [r5, #25]
 800506e:	3310      	adds	r3, #16
 8005070:	76ab      	strb	r3, [r5, #26]
 8005072:	9707      	str	r7, [sp, #28]
 8005074:	9f03      	ldr	r7, [sp, #12]
 8005076:	783b      	ldrb	r3, [r7, #0]
 8005078:	2b00      	cmp	r3, #0
 800507a:	d001      	beq.n	8005080 <_vfiprintf_r+0x98>
 800507c:	2b25      	cmp	r3, #37	; 0x25
 800507e:	d14e      	bne.n	800511e <_vfiprintf_r+0x136>
 8005080:	9b03      	ldr	r3, [sp, #12]
 8005082:	1afb      	subs	r3, r7, r3
 8005084:	9305      	str	r3, [sp, #20]
 8005086:	9b03      	ldr	r3, [sp, #12]
 8005088:	429f      	cmp	r7, r3
 800508a:	d00d      	beq.n	80050a8 <_vfiprintf_r+0xc0>
 800508c:	9b05      	ldr	r3, [sp, #20]
 800508e:	0021      	movs	r1, r4
 8005090:	0030      	movs	r0, r6
 8005092:	9a03      	ldr	r2, [sp, #12]
 8005094:	f7ff ff95 	bl	8004fc2 <__sfputs_r>
 8005098:	1c43      	adds	r3, r0, #1
 800509a:	d100      	bne.n	800509e <_vfiprintf_r+0xb6>
 800509c:	e0b5      	b.n	800520a <_vfiprintf_r+0x222>
 800509e:	696a      	ldr	r2, [r5, #20]
 80050a0:	9b05      	ldr	r3, [sp, #20]
 80050a2:	4694      	mov	ip, r2
 80050a4:	4463      	add	r3, ip
 80050a6:	616b      	str	r3, [r5, #20]
 80050a8:	783b      	ldrb	r3, [r7, #0]
 80050aa:	2b00      	cmp	r3, #0
 80050ac:	d100      	bne.n	80050b0 <_vfiprintf_r+0xc8>
 80050ae:	e0ac      	b.n	800520a <_vfiprintf_r+0x222>
 80050b0:	2201      	movs	r2, #1
 80050b2:	1c7b      	adds	r3, r7, #1
 80050b4:	9303      	str	r3, [sp, #12]
 80050b6:	2300      	movs	r3, #0
 80050b8:	4252      	negs	r2, r2
 80050ba:	606a      	str	r2, [r5, #4]
 80050bc:	a904      	add	r1, sp, #16
 80050be:	3254      	adds	r2, #84	; 0x54
 80050c0:	1852      	adds	r2, r2, r1
 80050c2:	602b      	str	r3, [r5, #0]
 80050c4:	60eb      	str	r3, [r5, #12]
 80050c6:	60ab      	str	r3, [r5, #8]
 80050c8:	7013      	strb	r3, [r2, #0]
 80050ca:	65ab      	str	r3, [r5, #88]	; 0x58
 80050cc:	9b03      	ldr	r3, [sp, #12]
 80050ce:	2205      	movs	r2, #5
 80050d0:	7819      	ldrb	r1, [r3, #0]
 80050d2:	485d      	ldr	r0, [pc, #372]	; (8005248 <_vfiprintf_r+0x260>)
 80050d4:	f000 faee 	bl	80056b4 <memchr>
 80050d8:	9b03      	ldr	r3, [sp, #12]
 80050da:	1c5f      	adds	r7, r3, #1
 80050dc:	2800      	cmp	r0, #0
 80050de:	d120      	bne.n	8005122 <_vfiprintf_r+0x13a>
 80050e0:	682a      	ldr	r2, [r5, #0]
 80050e2:	06d3      	lsls	r3, r2, #27
 80050e4:	d504      	bpl.n	80050f0 <_vfiprintf_r+0x108>
 80050e6:	2353      	movs	r3, #83	; 0x53
 80050e8:	a904      	add	r1, sp, #16
 80050ea:	185b      	adds	r3, r3, r1
 80050ec:	2120      	movs	r1, #32
 80050ee:	7019      	strb	r1, [r3, #0]
 80050f0:	0713      	lsls	r3, r2, #28
 80050f2:	d504      	bpl.n	80050fe <_vfiprintf_r+0x116>
 80050f4:	2353      	movs	r3, #83	; 0x53
 80050f6:	a904      	add	r1, sp, #16
 80050f8:	185b      	adds	r3, r3, r1
 80050fa:	212b      	movs	r1, #43	; 0x2b
 80050fc:	7019      	strb	r1, [r3, #0]
 80050fe:	9b03      	ldr	r3, [sp, #12]
 8005100:	781b      	ldrb	r3, [r3, #0]
 8005102:	2b2a      	cmp	r3, #42	; 0x2a
 8005104:	d016      	beq.n	8005134 <_vfiprintf_r+0x14c>
 8005106:	2100      	movs	r1, #0
 8005108:	68eb      	ldr	r3, [r5, #12]
 800510a:	9f03      	ldr	r7, [sp, #12]
 800510c:	783a      	ldrb	r2, [r7, #0]
 800510e:	1c78      	adds	r0, r7, #1
 8005110:	3a30      	subs	r2, #48	; 0x30
 8005112:	4684      	mov	ip, r0
 8005114:	2a09      	cmp	r2, #9
 8005116:	d94f      	bls.n	80051b8 <_vfiprintf_r+0x1d0>
 8005118:	2900      	cmp	r1, #0
 800511a:	d111      	bne.n	8005140 <_vfiprintf_r+0x158>
 800511c:	e017      	b.n	800514e <_vfiprintf_r+0x166>
 800511e:	3701      	adds	r7, #1
 8005120:	e7a9      	b.n	8005076 <_vfiprintf_r+0x8e>
 8005122:	4b49      	ldr	r3, [pc, #292]	; (8005248 <_vfiprintf_r+0x260>)
 8005124:	682a      	ldr	r2, [r5, #0]
 8005126:	1ac0      	subs	r0, r0, r3
 8005128:	2301      	movs	r3, #1
 800512a:	4083      	lsls	r3, r0
 800512c:	4313      	orrs	r3, r2
 800512e:	602b      	str	r3, [r5, #0]
 8005130:	9703      	str	r7, [sp, #12]
 8005132:	e7cb      	b.n	80050cc <_vfiprintf_r+0xe4>
 8005134:	9b07      	ldr	r3, [sp, #28]
 8005136:	1d19      	adds	r1, r3, #4
 8005138:	681b      	ldr	r3, [r3, #0]
 800513a:	9107      	str	r1, [sp, #28]
 800513c:	2b00      	cmp	r3, #0
 800513e:	db01      	blt.n	8005144 <_vfiprintf_r+0x15c>
 8005140:	930b      	str	r3, [sp, #44]	; 0x2c
 8005142:	e004      	b.n	800514e <_vfiprintf_r+0x166>
 8005144:	425b      	negs	r3, r3
 8005146:	60eb      	str	r3, [r5, #12]
 8005148:	2302      	movs	r3, #2
 800514a:	4313      	orrs	r3, r2
 800514c:	602b      	str	r3, [r5, #0]
 800514e:	783b      	ldrb	r3, [r7, #0]
 8005150:	2b2e      	cmp	r3, #46	; 0x2e
 8005152:	d10a      	bne.n	800516a <_vfiprintf_r+0x182>
 8005154:	787b      	ldrb	r3, [r7, #1]
 8005156:	2b2a      	cmp	r3, #42	; 0x2a
 8005158:	d137      	bne.n	80051ca <_vfiprintf_r+0x1e2>
 800515a:	9b07      	ldr	r3, [sp, #28]
 800515c:	3702      	adds	r7, #2
 800515e:	1d1a      	adds	r2, r3, #4
 8005160:	681b      	ldr	r3, [r3, #0]
 8005162:	9207      	str	r2, [sp, #28]
 8005164:	2b00      	cmp	r3, #0
 8005166:	db2d      	blt.n	80051c4 <_vfiprintf_r+0x1dc>
 8005168:	9309      	str	r3, [sp, #36]	; 0x24
 800516a:	2203      	movs	r2, #3
 800516c:	7839      	ldrb	r1, [r7, #0]
 800516e:	4837      	ldr	r0, [pc, #220]	; (800524c <_vfiprintf_r+0x264>)
 8005170:	f000 faa0 	bl	80056b4 <memchr>
 8005174:	2800      	cmp	r0, #0
 8005176:	d007      	beq.n	8005188 <_vfiprintf_r+0x1a0>
 8005178:	4b34      	ldr	r3, [pc, #208]	; (800524c <_vfiprintf_r+0x264>)
 800517a:	682a      	ldr	r2, [r5, #0]
 800517c:	1ac0      	subs	r0, r0, r3
 800517e:	2340      	movs	r3, #64	; 0x40
 8005180:	4083      	lsls	r3, r0
 8005182:	4313      	orrs	r3, r2
 8005184:	3701      	adds	r7, #1
 8005186:	602b      	str	r3, [r5, #0]
 8005188:	7839      	ldrb	r1, [r7, #0]
 800518a:	1c7b      	adds	r3, r7, #1
 800518c:	2206      	movs	r2, #6
 800518e:	4830      	ldr	r0, [pc, #192]	; (8005250 <_vfiprintf_r+0x268>)
 8005190:	9303      	str	r3, [sp, #12]
 8005192:	7629      	strb	r1, [r5, #24]
 8005194:	f000 fa8e 	bl	80056b4 <memchr>
 8005198:	2800      	cmp	r0, #0
 800519a:	d045      	beq.n	8005228 <_vfiprintf_r+0x240>
 800519c:	4b2d      	ldr	r3, [pc, #180]	; (8005254 <_vfiprintf_r+0x26c>)
 800519e:	2b00      	cmp	r3, #0
 80051a0:	d127      	bne.n	80051f2 <_vfiprintf_r+0x20a>
 80051a2:	2207      	movs	r2, #7
 80051a4:	9b07      	ldr	r3, [sp, #28]
 80051a6:	3307      	adds	r3, #7
 80051a8:	4393      	bics	r3, r2
 80051aa:	3308      	adds	r3, #8
 80051ac:	9307      	str	r3, [sp, #28]
 80051ae:	696b      	ldr	r3, [r5, #20]
 80051b0:	9a04      	ldr	r2, [sp, #16]
 80051b2:	189b      	adds	r3, r3, r2
 80051b4:	616b      	str	r3, [r5, #20]
 80051b6:	e75d      	b.n	8005074 <_vfiprintf_r+0x8c>
 80051b8:	210a      	movs	r1, #10
 80051ba:	434b      	muls	r3, r1
 80051bc:	4667      	mov	r7, ip
 80051be:	189b      	adds	r3, r3, r2
 80051c0:	3909      	subs	r1, #9
 80051c2:	e7a3      	b.n	800510c <_vfiprintf_r+0x124>
 80051c4:	2301      	movs	r3, #1
 80051c6:	425b      	negs	r3, r3
 80051c8:	e7ce      	b.n	8005168 <_vfiprintf_r+0x180>
 80051ca:	2300      	movs	r3, #0
 80051cc:	001a      	movs	r2, r3
 80051ce:	3701      	adds	r7, #1
 80051d0:	606b      	str	r3, [r5, #4]
 80051d2:	7839      	ldrb	r1, [r7, #0]
 80051d4:	1c78      	adds	r0, r7, #1
 80051d6:	3930      	subs	r1, #48	; 0x30
 80051d8:	4684      	mov	ip, r0
 80051da:	2909      	cmp	r1, #9
 80051dc:	d903      	bls.n	80051e6 <_vfiprintf_r+0x1fe>
 80051de:	2b00      	cmp	r3, #0
 80051e0:	d0c3      	beq.n	800516a <_vfiprintf_r+0x182>
 80051e2:	9209      	str	r2, [sp, #36]	; 0x24
 80051e4:	e7c1      	b.n	800516a <_vfiprintf_r+0x182>
 80051e6:	230a      	movs	r3, #10
 80051e8:	435a      	muls	r2, r3
 80051ea:	4667      	mov	r7, ip
 80051ec:	1852      	adds	r2, r2, r1
 80051ee:	3b09      	subs	r3, #9
 80051f0:	e7ef      	b.n	80051d2 <_vfiprintf_r+0x1ea>
 80051f2:	ab07      	add	r3, sp, #28
 80051f4:	9300      	str	r3, [sp, #0]
 80051f6:	0022      	movs	r2, r4
 80051f8:	0029      	movs	r1, r5
 80051fa:	0030      	movs	r0, r6
 80051fc:	4b16      	ldr	r3, [pc, #88]	; (8005258 <_vfiprintf_r+0x270>)
 80051fe:	e000      	b.n	8005202 <_vfiprintf_r+0x21a>
 8005200:	bf00      	nop
 8005202:	9004      	str	r0, [sp, #16]
 8005204:	9b04      	ldr	r3, [sp, #16]
 8005206:	3301      	adds	r3, #1
 8005208:	d1d1      	bne.n	80051ae <_vfiprintf_r+0x1c6>
 800520a:	6e63      	ldr	r3, [r4, #100]	; 0x64
 800520c:	07db      	lsls	r3, r3, #31
 800520e:	d405      	bmi.n	800521c <_vfiprintf_r+0x234>
 8005210:	89a3      	ldrh	r3, [r4, #12]
 8005212:	059b      	lsls	r3, r3, #22
 8005214:	d402      	bmi.n	800521c <_vfiprintf_r+0x234>
 8005216:	6da0      	ldr	r0, [r4, #88]	; 0x58
 8005218:	f7ff fe40 	bl	8004e9c <__retarget_lock_release_recursive>
 800521c:	89a3      	ldrh	r3, [r4, #12]
 800521e:	065b      	lsls	r3, r3, #25
 8005220:	d500      	bpl.n	8005224 <_vfiprintf_r+0x23c>
 8005222:	e70a      	b.n	800503a <_vfiprintf_r+0x52>
 8005224:	980d      	ldr	r0, [sp, #52]	; 0x34
 8005226:	e70a      	b.n	800503e <_vfiprintf_r+0x56>
 8005228:	ab07      	add	r3, sp, #28
 800522a:	9300      	str	r3, [sp, #0]
 800522c:	0022      	movs	r2, r4
 800522e:	0029      	movs	r1, r5
 8005230:	0030      	movs	r0, r6
 8005232:	4b09      	ldr	r3, [pc, #36]	; (8005258 <_vfiprintf_r+0x270>)
 8005234:	f000 f882 	bl	800533c <_printf_i>
 8005238:	e7e3      	b.n	8005202 <_vfiprintf_r+0x21a>
 800523a:	46c0      	nop			; (mov r8, r8)
 800523c:	08005a34 	.word	0x08005a34
 8005240:	08005a54 	.word	0x08005a54
 8005244:	08005a14 	.word	0x08005a14
 8005248:	08005a74 	.word	0x08005a74
 800524c:	08005a7a 	.word	0x08005a7a
 8005250:	08005a7e 	.word	0x08005a7e
 8005254:	00000000 	.word	0x00000000
 8005258:	08004fc3 	.word	0x08004fc3

0800525c <_printf_common>:
 800525c:	b5f7      	push	{r0, r1, r2, r4, r5, r6, r7, lr}
 800525e:	0015      	movs	r5, r2
 8005260:	9301      	str	r3, [sp, #4]
 8005262:	688a      	ldr	r2, [r1, #8]
 8005264:	690b      	ldr	r3, [r1, #16]
 8005266:	000c      	movs	r4, r1
 8005268:	9000      	str	r0, [sp, #0]
 800526a:	4293      	cmp	r3, r2
 800526c:	da00      	bge.n	8005270 <_printf_common+0x14>
 800526e:	0013      	movs	r3, r2
 8005270:	0022      	movs	r2, r4
 8005272:	602b      	str	r3, [r5, #0]
 8005274:	3243      	adds	r2, #67	; 0x43
 8005276:	7812      	ldrb	r2, [r2, #0]
 8005278:	2a00      	cmp	r2, #0
 800527a:	d001      	beq.n	8005280 <_printf_common+0x24>
 800527c:	3301      	adds	r3, #1
 800527e:	602b      	str	r3, [r5, #0]
 8005280:	6823      	ldr	r3, [r4, #0]
 8005282:	069b      	lsls	r3, r3, #26
 8005284:	d502      	bpl.n	800528c <_printf_common+0x30>
 8005286:	682b      	ldr	r3, [r5, #0]
 8005288:	3302      	adds	r3, #2
 800528a:	602b      	str	r3, [r5, #0]
 800528c:	6822      	ldr	r2, [r4, #0]
 800528e:	2306      	movs	r3, #6
 8005290:	0017      	movs	r7, r2
 8005292:	401f      	ands	r7, r3
 8005294:	421a      	tst	r2, r3
 8005296:	d027      	beq.n	80052e8 <_printf_common+0x8c>
 8005298:	0023      	movs	r3, r4
 800529a:	3343      	adds	r3, #67	; 0x43
 800529c:	781b      	ldrb	r3, [r3, #0]
 800529e:	1e5a      	subs	r2, r3, #1
 80052a0:	4193      	sbcs	r3, r2
 80052a2:	6822      	ldr	r2, [r4, #0]
 80052a4:	0692      	lsls	r2, r2, #26
 80052a6:	d430      	bmi.n	800530a <_printf_common+0xae>
 80052a8:	0022      	movs	r2, r4
 80052aa:	9901      	ldr	r1, [sp, #4]
 80052ac:	9800      	ldr	r0, [sp, #0]
 80052ae:	9e08      	ldr	r6, [sp, #32]
 80052b0:	3243      	adds	r2, #67	; 0x43
 80052b2:	47b0      	blx	r6
 80052b4:	1c43      	adds	r3, r0, #1
 80052b6:	d025      	beq.n	8005304 <_printf_common+0xa8>
 80052b8:	2306      	movs	r3, #6
 80052ba:	6820      	ldr	r0, [r4, #0]
 80052bc:	682a      	ldr	r2, [r5, #0]
 80052be:	68e1      	ldr	r1, [r4, #12]
 80052c0:	2500      	movs	r5, #0
 80052c2:	4003      	ands	r3, r0
 80052c4:	2b04      	cmp	r3, #4
 80052c6:	d103      	bne.n	80052d0 <_printf_common+0x74>
 80052c8:	1a8d      	subs	r5, r1, r2
 80052ca:	43eb      	mvns	r3, r5
 80052cc:	17db      	asrs	r3, r3, #31
 80052ce:	401d      	ands	r5, r3
 80052d0:	68a3      	ldr	r3, [r4, #8]
 80052d2:	6922      	ldr	r2, [r4, #16]
 80052d4:	4293      	cmp	r3, r2
 80052d6:	dd01      	ble.n	80052dc <_printf_common+0x80>
 80052d8:	1a9b      	subs	r3, r3, r2
 80052da:	18ed      	adds	r5, r5, r3
 80052dc:	2700      	movs	r7, #0
 80052de:	42bd      	cmp	r5, r7
 80052e0:	d120      	bne.n	8005324 <_printf_common+0xc8>
 80052e2:	2000      	movs	r0, #0
 80052e4:	e010      	b.n	8005308 <_printf_common+0xac>
 80052e6:	3701      	adds	r7, #1
 80052e8:	68e3      	ldr	r3, [r4, #12]
 80052ea:	682a      	ldr	r2, [r5, #0]
 80052ec:	1a9b      	subs	r3, r3, r2
 80052ee:	42bb      	cmp	r3, r7
 80052f0:	ddd2      	ble.n	8005298 <_printf_common+0x3c>
 80052f2:	0022      	movs	r2, r4
 80052f4:	2301      	movs	r3, #1
 80052f6:	9901      	ldr	r1, [sp, #4]
 80052f8:	9800      	ldr	r0, [sp, #0]
 80052fa:	9e08      	ldr	r6, [sp, #32]
 80052fc:	3219      	adds	r2, #25
 80052fe:	47b0      	blx	r6
 8005300:	1c43      	adds	r3, r0, #1
 8005302:	d1f0      	bne.n	80052e6 <_printf_common+0x8a>
 8005304:	2001      	movs	r0, #1
 8005306:	4240      	negs	r0, r0
 8005308:	bdfe      	pop	{r1, r2, r3, r4, r5, r6, r7, pc}
 800530a:	2030      	movs	r0, #48	; 0x30
 800530c:	18e1      	adds	r1, r4, r3
 800530e:	3143      	adds	r1, #67	; 0x43
 8005310:	7008      	strb	r0, [r1, #0]
 8005312:	0021      	movs	r1, r4
 8005314:	1c5a      	adds	r2, r3, #1
 8005316:	3145      	adds	r1, #69	; 0x45
 8005318:	7809      	ldrb	r1, [r1, #0]
 800531a:	18a2      	adds	r2, r4, r2
 800531c:	3243      	adds	r2, #67	; 0x43
 800531e:	3302      	adds	r3, #2
 8005320:	7011      	strb	r1, [r2, #0]
 8005322:	e7c1      	b.n	80052a8 <_printf_common+0x4c>
 8005324:	0022      	movs	r2, r4
 8005326:	2301      	movs	r3, #1
 8005328:	9901      	ldr	r1, [sp, #4]
 800532a:	9800      	ldr	r0, [sp, #0]
 800532c:	9e08      	ldr	r6, [sp, #32]
 800532e:	321a      	adds	r2, #26
 8005330:	47b0      	blx	r6
 8005332:	1c43      	adds	r3, r0, #1
 8005334:	d0e6      	beq.n	8005304 <_printf_common+0xa8>
 8005336:	3701      	adds	r7, #1
 8005338:	e7d1      	b.n	80052de <_printf_common+0x82>
	...

0800533c <_printf_i>:
 800533c:	b5f0      	push	{r4, r5, r6, r7, lr}
 800533e:	b08b      	sub	sp, #44	; 0x2c
 8005340:	9206      	str	r2, [sp, #24]
 8005342:	000a      	movs	r2, r1
 8005344:	3243      	adds	r2, #67	; 0x43
 8005346:	9307      	str	r3, [sp, #28]
 8005348:	9005      	str	r0, [sp, #20]
 800534a:	9204      	str	r2, [sp, #16]
 800534c:	7e0a      	ldrb	r2, [r1, #24]
 800534e:	000c      	movs	r4, r1
 8005350:	9b10      	ldr	r3, [sp, #64]	; 0x40
 8005352:	2a78      	cmp	r2, #120	; 0x78
 8005354:	d806      	bhi.n	8005364 <_printf_i+0x28>
 8005356:	2a62      	cmp	r2, #98	; 0x62
 8005358:	d808      	bhi.n	800536c <_printf_i+0x30>
 800535a:	2a00      	cmp	r2, #0
 800535c:	d100      	bne.n	8005360 <_printf_i+0x24>
 800535e:	e0c0      	b.n	80054e2 <_printf_i+0x1a6>
 8005360:	2a58      	cmp	r2, #88	; 0x58
 8005362:	d052      	beq.n	800540a <_printf_i+0xce>
 8005364:	0026      	movs	r6, r4
 8005366:	3642      	adds	r6, #66	; 0x42
 8005368:	7032      	strb	r2, [r6, #0]
 800536a:	e022      	b.n	80053b2 <_printf_i+0x76>
 800536c:	0010      	movs	r0, r2
 800536e:	3863      	subs	r0, #99	; 0x63
 8005370:	2815      	cmp	r0, #21
 8005372:	d8f7      	bhi.n	8005364 <_printf_i+0x28>
 8005374:	f7fa fed2 	bl	800011c <__gnu_thumb1_case_shi>
 8005378:	001f0016 	.word	0x001f0016
 800537c:	fff6fff6 	.word	0xfff6fff6
 8005380:	fff6fff6 	.word	0xfff6fff6
 8005384:	fff6001f 	.word	0xfff6001f
 8005388:	fff6fff6 	.word	0xfff6fff6
 800538c:	00a8fff6 	.word	0x00a8fff6
 8005390:	009a0036 	.word	0x009a0036
 8005394:	fff6fff6 	.word	0xfff6fff6
 8005398:	fff600b9 	.word	0xfff600b9
 800539c:	fff60036 	.word	0xfff60036
 80053a0:	009efff6 	.word	0x009efff6
 80053a4:	0026      	movs	r6, r4
 80053a6:	681a      	ldr	r2, [r3, #0]
 80053a8:	3642      	adds	r6, #66	; 0x42
 80053aa:	1d11      	adds	r1, r2, #4
 80053ac:	6019      	str	r1, [r3, #0]
 80053ae:	6813      	ldr	r3, [r2, #0]
 80053b0:	7033      	strb	r3, [r6, #0]
 80053b2:	2301      	movs	r3, #1
 80053b4:	e0a7      	b.n	8005506 <_printf_i+0x1ca>
 80053b6:	6808      	ldr	r0, [r1, #0]
 80053b8:	6819      	ldr	r1, [r3, #0]
 80053ba:	1d0a      	adds	r2, r1, #4
 80053bc:	0605      	lsls	r5, r0, #24
 80053be:	d50b      	bpl.n	80053d8 <_printf_i+0x9c>
 80053c0:	680d      	ldr	r5, [r1, #0]
 80053c2:	601a      	str	r2, [r3, #0]
 80053c4:	2d00      	cmp	r5, #0
 80053c6:	da03      	bge.n	80053d0 <_printf_i+0x94>
 80053c8:	232d      	movs	r3, #45	; 0x2d
 80053ca:	9a04      	ldr	r2, [sp, #16]
 80053cc:	426d      	negs	r5, r5
 80053ce:	7013      	strb	r3, [r2, #0]
 80053d0:	4b61      	ldr	r3, [pc, #388]	; (8005558 <_printf_i+0x21c>)
 80053d2:	270a      	movs	r7, #10
 80053d4:	9303      	str	r3, [sp, #12]
 80053d6:	e032      	b.n	800543e <_printf_i+0x102>
 80053d8:	680d      	ldr	r5, [r1, #0]
 80053da:	601a      	str	r2, [r3, #0]
 80053dc:	0641      	lsls	r1, r0, #25
 80053de:	d5f1      	bpl.n	80053c4 <_printf_i+0x88>
 80053e0:	b22d      	sxth	r5, r5
 80053e2:	e7ef      	b.n	80053c4 <_printf_i+0x88>
 80053e4:	680d      	ldr	r5, [r1, #0]
 80053e6:	6819      	ldr	r1, [r3, #0]
 80053e8:	1d08      	adds	r0, r1, #4
 80053ea:	6018      	str	r0, [r3, #0]
 80053ec:	062e      	lsls	r6, r5, #24
 80053ee:	d501      	bpl.n	80053f4 <_printf_i+0xb8>
 80053f0:	680d      	ldr	r5, [r1, #0]
 80053f2:	e003      	b.n	80053fc <_printf_i+0xc0>
 80053f4:	066d      	lsls	r5, r5, #25
 80053f6:	d5fb      	bpl.n	80053f0 <_printf_i+0xb4>
 80053f8:	680d      	ldr	r5, [r1, #0]
 80053fa:	b2ad      	uxth	r5, r5
 80053fc:	4b56      	ldr	r3, [pc, #344]	; (8005558 <_printf_i+0x21c>)
 80053fe:	270a      	movs	r7, #10
 8005400:	9303      	str	r3, [sp, #12]
 8005402:	2a6f      	cmp	r2, #111	; 0x6f
 8005404:	d117      	bne.n	8005436 <_printf_i+0xfa>
 8005406:	2708      	movs	r7, #8
 8005408:	e015      	b.n	8005436 <_printf_i+0xfa>
 800540a:	3145      	adds	r1, #69	; 0x45
 800540c:	700a      	strb	r2, [r1, #0]
 800540e:	4a52      	ldr	r2, [pc, #328]	; (8005558 <_printf_i+0x21c>)
 8005410:	9203      	str	r2, [sp, #12]
 8005412:	681a      	ldr	r2, [r3, #0]
 8005414:	6821      	ldr	r1, [r4, #0]
 8005416:	ca20      	ldmia	r2!, {r5}
 8005418:	601a      	str	r2, [r3, #0]
 800541a:	0608      	lsls	r0, r1, #24
 800541c:	d550      	bpl.n	80054c0 <_printf_i+0x184>
 800541e:	07cb      	lsls	r3, r1, #31
 8005420:	d502      	bpl.n	8005428 <_printf_i+0xec>
 8005422:	2320      	movs	r3, #32
 8005424:	4319      	orrs	r1, r3
 8005426:	6021      	str	r1, [r4, #0]
 8005428:	2710      	movs	r7, #16
 800542a:	2d00      	cmp	r5, #0
 800542c:	d103      	bne.n	8005436 <_printf_i+0xfa>
 800542e:	2320      	movs	r3, #32
 8005430:	6822      	ldr	r2, [r4, #0]
 8005432:	439a      	bics	r2, r3
 8005434:	6022      	str	r2, [r4, #0]
 8005436:	0023      	movs	r3, r4
 8005438:	2200      	movs	r2, #0
 800543a:	3343      	adds	r3, #67	; 0x43
 800543c:	701a      	strb	r2, [r3, #0]
 800543e:	6863      	ldr	r3, [r4, #4]
 8005440:	60a3      	str	r3, [r4, #8]
 8005442:	2b00      	cmp	r3, #0
 8005444:	db03      	blt.n	800544e <_printf_i+0x112>
 8005446:	2204      	movs	r2, #4
 8005448:	6821      	ldr	r1, [r4, #0]
 800544a:	4391      	bics	r1, r2
 800544c:	6021      	str	r1, [r4, #0]
 800544e:	2d00      	cmp	r5, #0
 8005450:	d102      	bne.n	8005458 <_printf_i+0x11c>
 8005452:	9e04      	ldr	r6, [sp, #16]
 8005454:	2b00      	cmp	r3, #0
 8005456:	d00c      	beq.n	8005472 <_printf_i+0x136>
 8005458:	9e04      	ldr	r6, [sp, #16]
 800545a:	0028      	movs	r0, r5
 800545c:	0039      	movs	r1, r7
 800545e:	f7fa feed 	bl	800023c <__aeabi_uidivmod>
 8005462:	9b03      	ldr	r3, [sp, #12]
 8005464:	3e01      	subs	r6, #1
 8005466:	5c5b      	ldrb	r3, [r3, r1]
 8005468:	7033      	strb	r3, [r6, #0]
 800546a:	002b      	movs	r3, r5
 800546c:	0005      	movs	r5, r0
 800546e:	429f      	cmp	r7, r3
 8005470:	d9f3      	bls.n	800545a <_printf_i+0x11e>
 8005472:	2f08      	cmp	r7, #8
 8005474:	d109      	bne.n	800548a <_printf_i+0x14e>
 8005476:	6823      	ldr	r3, [r4, #0]
 8005478:	07db      	lsls	r3, r3, #31
 800547a:	d506      	bpl.n	800548a <_printf_i+0x14e>
 800547c:	6863      	ldr	r3, [r4, #4]
 800547e:	6922      	ldr	r2, [r4, #16]
 8005480:	4293      	cmp	r3, r2
 8005482:	dc02      	bgt.n	800548a <_printf_i+0x14e>
 8005484:	2330      	movs	r3, #48	; 0x30
 8005486:	3e01      	subs	r6, #1
 8005488:	7033      	strb	r3, [r6, #0]
 800548a:	9b04      	ldr	r3, [sp, #16]
 800548c:	1b9b      	subs	r3, r3, r6
 800548e:	6123      	str	r3, [r4, #16]
 8005490:	9b07      	ldr	r3, [sp, #28]
 8005492:	0021      	movs	r1, r4
 8005494:	9300      	str	r3, [sp, #0]
 8005496:	9805      	ldr	r0, [sp, #20]
 8005498:	9b06      	ldr	r3, [sp, #24]
 800549a:	aa09      	add	r2, sp, #36	; 0x24
 800549c:	f7ff fede 	bl	800525c <_printf_common>
 80054a0:	1c43      	adds	r3, r0, #1
 80054a2:	d135      	bne.n	8005510 <_printf_i+0x1d4>
 80054a4:	2001      	movs	r0, #1
 80054a6:	4240      	negs	r0, r0
 80054a8:	b00b      	add	sp, #44	; 0x2c
 80054aa:	bdf0      	pop	{r4, r5, r6, r7, pc}
 80054ac:	2220      	movs	r2, #32
 80054ae:	6809      	ldr	r1, [r1, #0]
 80054b0:	430a      	orrs	r2, r1
 80054b2:	6022      	str	r2, [r4, #0]
 80054b4:	0022      	movs	r2, r4
 80054b6:	2178      	movs	r1, #120	; 0x78
 80054b8:	3245      	adds	r2, #69	; 0x45
 80054ba:	7011      	strb	r1, [r2, #0]
 80054bc:	4a27      	ldr	r2, [pc, #156]	; (800555c <_printf_i+0x220>)
 80054be:	e7a7      	b.n	8005410 <_printf_i+0xd4>
 80054c0:	0648      	lsls	r0, r1, #25
 80054c2:	d5ac      	bpl.n	800541e <_printf_i+0xe2>
 80054c4:	b2ad      	uxth	r5, r5
 80054c6:	e7aa      	b.n	800541e <_printf_i+0xe2>
 80054c8:	681a      	ldr	r2, [r3, #0]
 80054ca:	680d      	ldr	r5, [r1, #0]
 80054cc:	1d10      	adds	r0, r2, #4
 80054ce:	6949      	ldr	r1, [r1, #20]
 80054d0:	6018      	str	r0, [r3, #0]
 80054d2:	6813      	ldr	r3, [r2, #0]
 80054d4:	062e      	lsls	r6, r5, #24
 80054d6:	d501      	bpl.n	80054dc <_printf_i+0x1a0>
 80054d8:	6019      	str	r1, [r3, #0]
 80054da:	e002      	b.n	80054e2 <_printf_i+0x1a6>
 80054dc:	066d      	lsls	r5, r5, #25
 80054de:	d5fb      	bpl.n	80054d8 <_printf_i+0x19c>
 80054e0:	8019      	strh	r1, [r3, #0]
 80054e2:	2300      	movs	r3, #0
 80054e4:	9e04      	ldr	r6, [sp, #16]
 80054e6:	6123      	str	r3, [r4, #16]
 80054e8:	e7d2      	b.n	8005490 <_printf_i+0x154>
 80054ea:	681a      	ldr	r2, [r3, #0]
 80054ec:	1d11      	adds	r1, r2, #4
 80054ee:	6019      	str	r1, [r3, #0]
 80054f0:	6816      	ldr	r6, [r2, #0]
 80054f2:	2100      	movs	r1, #0
 80054f4:	0030      	movs	r0, r6
 80054f6:	6862      	ldr	r2, [r4, #4]
 80054f8:	f000 f8dc 	bl	80056b4 <memchr>
 80054fc:	2800      	cmp	r0, #0
 80054fe:	d001      	beq.n	8005504 <_printf_i+0x1c8>
 8005500:	1b80      	subs	r0, r0, r6
 8005502:	6060      	str	r0, [r4, #4]
 8005504:	6863      	ldr	r3, [r4, #4]
 8005506:	6123      	str	r3, [r4, #16]
 8005508:	2300      	movs	r3, #0
 800550a:	9a04      	ldr	r2, [sp, #16]
 800550c:	7013      	strb	r3, [r2, #0]
 800550e:	e7bf      	b.n	8005490 <_printf_i+0x154>
 8005510:	6923      	ldr	r3, [r4, #16]
 8005512:	0032      	movs	r2, r6
 8005514:	9906      	ldr	r1, [sp, #24]
 8005516:	9805      	ldr	r0, [sp, #20]
 8005518:	9d07      	ldr	r5, [sp, #28]
 800551a:	47a8      	blx	r5
 800551c:	1c43      	adds	r3, r0, #1
 800551e:	d0c1      	beq.n	80054a4 <_printf_i+0x168>
 8005520:	6823      	ldr	r3, [r4, #0]
 8005522:	079b      	lsls	r3, r3, #30
 8005524:	d415      	bmi.n	8005552 <_printf_i+0x216>
 8005526:	9b09      	ldr	r3, [sp, #36]	; 0x24
 8005528:	68e0      	ldr	r0, [r4, #12]
 800552a:	4298      	cmp	r0, r3
 800552c:	dabc      	bge.n	80054a8 <_printf_i+0x16c>
 800552e:	0018      	movs	r0, r3
 8005530:	e7ba      	b.n	80054a8 <_printf_i+0x16c>
 8005532:	0022      	movs	r2, r4
 8005534:	2301      	movs	r3, #1
 8005536:	9906      	ldr	r1, [sp, #24]
 8005538:	9805      	ldr	r0, [sp, #20]
 800553a:	9e07      	ldr	r6, [sp, #28]
 800553c:	3219      	adds	r2, #25
 800553e:	47b0      	blx	r6
 8005540:	1c43      	adds	r3, r0, #1
 8005542:	d0af      	beq.n	80054a4 <_printf_i+0x168>
 8005544:	3501      	adds	r5, #1
 8005546:	68e3      	ldr	r3, [r4, #12]
 8005548:	9a09      	ldr	r2, [sp, #36]	; 0x24
 800554a:	1a9b      	subs	r3, r3, r2
 800554c:	42ab      	cmp	r3, r5
 800554e:	dcf0      	bgt.n	8005532 <_printf_i+0x1f6>
 8005550:	e7e9      	b.n	8005526 <_printf_i+0x1ea>
 8005552:	2500      	movs	r5, #0
 8005554:	e7f7      	b.n	8005546 <_printf_i+0x20a>
 8005556:	46c0      	nop			; (mov r8, r8)
 8005558:	08005a85 	.word	0x08005a85
 800555c:	08005a96 	.word	0x08005a96

08005560 <__sread>:
 8005560:	b570      	push	{r4, r5, r6, lr}
 8005562:	000c      	movs	r4, r1
 8005564:	250e      	movs	r5, #14
 8005566:	5f49      	ldrsh	r1, [r1, r5]
 8005568:	f000 f8b0 	bl	80056cc <_read_r>
 800556c:	2800      	cmp	r0, #0
 800556e:	db03      	blt.n	8005578 <__sread+0x18>
 8005570:	6d63      	ldr	r3, [r4, #84]	; 0x54
 8005572:	181b      	adds	r3, r3, r0
 8005574:	6563      	str	r3, [r4, #84]	; 0x54
 8005576:	bd70      	pop	{r4, r5, r6, pc}
 8005578:	89a3      	ldrh	r3, [r4, #12]
 800557a:	4a02      	ldr	r2, [pc, #8]	; (8005584 <__sread+0x24>)
 800557c:	4013      	ands	r3, r2
 800557e:	81a3      	strh	r3, [r4, #12]
 8005580:	e7f9      	b.n	8005576 <__sread+0x16>
 8005582:	46c0      	nop			; (mov r8, r8)
 8005584:	ffffefff 	.word	0xffffefff

08005588 <__swrite>:
 8005588:	b5f8      	push	{r3, r4, r5, r6, r7, lr}
 800558a:	001f      	movs	r7, r3
 800558c:	898b      	ldrh	r3, [r1, #12]
 800558e:	0005      	movs	r5, r0
 8005590:	000c      	movs	r4, r1
 8005592:	0016      	movs	r6, r2
 8005594:	05db      	lsls	r3, r3, #23
 8005596:	d505      	bpl.n	80055a4 <__swrite+0x1c>
 8005598:	230e      	movs	r3, #14
 800559a:	5ec9      	ldrsh	r1, [r1, r3]
 800559c:	2200      	movs	r2, #0
 800559e:	2302      	movs	r3, #2
 80055a0:	f000 f874 	bl	800568c <_lseek_r>
 80055a4:	89a3      	ldrh	r3, [r4, #12]
 80055a6:	4a05      	ldr	r2, [pc, #20]	; (80055bc <__swrite+0x34>)
 80055a8:	0028      	movs	r0, r5
 80055aa:	4013      	ands	r3, r2
 80055ac:	81a3      	strh	r3, [r4, #12]
 80055ae:	0032      	movs	r2, r6
 80055b0:	230e      	movs	r3, #14
 80055b2:	5ee1      	ldrsh	r1, [r4, r3]
 80055b4:	003b      	movs	r3, r7
 80055b6:	f000 f81f 	bl	80055f8 <_write_r>
 80055ba:	bdf8      	pop	{r3, r4, r5, r6, r7, pc}
 80055bc:	ffffefff 	.word	0xffffefff

080055c0 <__sseek>:
 80055c0:	b570      	push	{r4, r5, r6, lr}
 80055c2:	000c      	movs	r4, r1
 80055c4:	250e      	movs	r5, #14
 80055c6:	5f49      	ldrsh	r1, [r1, r5]
 80055c8:	f000 f860 	bl	800568c <_lseek_r>
 80055cc:	89a3      	ldrh	r3, [r4, #12]
 80055ce:	1c42      	adds	r2, r0, #1
 80055d0:	d103      	bne.n	80055da <__sseek+0x1a>
 80055d2:	4a05      	ldr	r2, [pc, #20]	; (80055e8 <__sseek+0x28>)
 80055d4:	4013      	ands	r3, r2
 80055d6:	81a3      	strh	r3, [r4, #12]
 80055d8:	bd70      	pop	{r4, r5, r6, pc}
 80055da:	2280      	movs	r2, #128	; 0x80
 80055dc:	0152      	lsls	r2, r2, #5
 80055de:	4313      	orrs	r3, r2
 80055e0:	81a3      	strh	r3, [r4, #12]
 80055e2:	6560      	str	r0, [r4, #84]	; 0x54
 80055e4:	e7f8      	b.n	80055d8 <__sseek+0x18>
 80055e6:	46c0      	nop			; (mov r8, r8)
 80055e8:	ffffefff 	.word	0xffffefff

080055ec <__sclose>:
 80055ec:	b510      	push	{r4, lr}
 80055ee:	230e      	movs	r3, #14
 80055f0:	5ec9      	ldrsh	r1, [r1, r3]
 80055f2:	f000 f815 	bl	8005620 <_close_r>
 80055f6:	bd10      	pop	{r4, pc}

080055f8 <_write_r>:
 80055f8:	b570      	push	{r4, r5, r6, lr}
 80055fa:	0004      	movs	r4, r0
 80055fc:	0008      	movs	r0, r1
 80055fe:	0011      	movs	r1, r2
 8005600:	001a      	movs	r2, r3
 8005602:	2300      	movs	r3, #0
 8005604:	4d05      	ldr	r5, [pc, #20]	; (800561c <_write_r+0x24>)
 8005606:	602b      	str	r3, [r5, #0]
 8005608:	f7fd f9bd 	bl	8002986 <_write>
 800560c:	1c43      	adds	r3, r0, #1
 800560e:	d103      	bne.n	8005618 <_write_r+0x20>
 8005610:	682b      	ldr	r3, [r5, #0]
 8005612:	2b00      	cmp	r3, #0
 8005614:	d000      	beq.n	8005618 <_write_r+0x20>
 8005616:	6023      	str	r3, [r4, #0]
 8005618:	bd70      	pop	{r4, r5, r6, pc}
 800561a:	46c0      	nop			; (mov r8, r8)
 800561c:	200001c0 	.word	0x200001c0

08005620 <_close_r>:
 8005620:	2300      	movs	r3, #0
 8005622:	b570      	push	{r4, r5, r6, lr}
 8005624:	4d06      	ldr	r5, [pc, #24]	; (8005640 <_close_r+0x20>)
 8005626:	0004      	movs	r4, r0
 8005628:	0008      	movs	r0, r1
 800562a:	602b      	str	r3, [r5, #0]
 800562c:	f7fd f9b8 	bl	80029a0 <_close>
 8005630:	1c43      	adds	r3, r0, #1
 8005632:	d103      	bne.n	800563c <_close_r+0x1c>
 8005634:	682b      	ldr	r3, [r5, #0]
 8005636:	2b00      	cmp	r3, #0
 8005638:	d000      	beq.n	800563c <_close_r+0x1c>
 800563a:	6023      	str	r3, [r4, #0]
 800563c:	bd70      	pop	{r4, r5, r6, pc}
 800563e:	46c0      	nop			; (mov r8, r8)
 8005640:	200001c0 	.word	0x200001c0

08005644 <_fstat_r>:
 8005644:	2300      	movs	r3, #0
 8005646:	b570      	push	{r4, r5, r6, lr}
 8005648:	4d06      	ldr	r5, [pc, #24]	; (8005664 <_fstat_r+0x20>)
 800564a:	0004      	movs	r4, r0
 800564c:	0008      	movs	r0, r1
 800564e:	0011      	movs	r1, r2
 8005650:	602b      	str	r3, [r5, #0]
 8005652:	f7fd f9a8 	bl	80029a6 <_fstat>
 8005656:	1c43      	adds	r3, r0, #1
 8005658:	d103      	bne.n	8005662 <_fstat_r+0x1e>
 800565a:	682b      	ldr	r3, [r5, #0]
 800565c:	2b00      	cmp	r3, #0
 800565e:	d000      	beq.n	8005662 <_fstat_r+0x1e>
 8005660:	6023      	str	r3, [r4, #0]
 8005662:	bd70      	pop	{r4, r5, r6, pc}
 8005664:	200001c0 	.word	0x200001c0

08005668 <_isatty_r>:
 8005668:	2300      	movs	r3, #0
 800566a:	b570      	push	{r4, r5, r6, lr}
 800566c:	4d06      	ldr	r5, [pc, #24]	; (8005688 <_isatty_r+0x20>)
 800566e:	0004      	movs	r4, r0
 8005670:	0008      	movs	r0, r1
 8005672:	602b      	str	r3, [r5, #0]
 8005674:	f7fd f99c 	bl	80029b0 <_isatty>
 8005678:	1c43      	adds	r3, r0, #1
 800567a:	d103      	bne.n	8005684 <_isatty_r+0x1c>
 800567c:	682b      	ldr	r3, [r5, #0]
 800567e:	2b00      	cmp	r3, #0
 8005680:	d000      	beq.n	8005684 <_isatty_r+0x1c>
 8005682:	6023      	str	r3, [r4, #0]
 8005684:	bd70      	pop	{r4, r5, r6, pc}
 8005686:	46c0      	nop			; (mov r8, r8)
 8005688:	200001c0 	.word	0x200001c0

0800568c <_lseek_r>:
 800568c:	b570      	push	{r4, r5, r6, lr}
 800568e:	0004      	movs	r4, r0
 8005690:	0008      	movs	r0, r1
 8005692:	0011      	movs	r1, r2
 8005694:	001a      	movs	r2, r3
 8005696:	2300      	movs	r3, #0
 8005698:	4d05      	ldr	r5, [pc, #20]	; (80056b0 <_lseek_r+0x24>)
 800569a:	602b      	str	r3, [r5, #0]
 800569c:	f7fd f98a 	bl	80029b4 <_lseek>
 80056a0:	1c43      	adds	r3, r0, #1
 80056a2:	d103      	bne.n	80056ac <_lseek_r+0x20>
 80056a4:	682b      	ldr	r3, [r5, #0]
 80056a6:	2b00      	cmp	r3, #0
 80056a8:	d000      	beq.n	80056ac <_lseek_r+0x20>
 80056aa:	6023      	str	r3, [r4, #0]
 80056ac:	bd70      	pop	{r4, r5, r6, pc}
 80056ae:	46c0      	nop			; (mov r8, r8)
 80056b0:	200001c0 	.word	0x200001c0

080056b4 <memchr>:
 80056b4:	b2c9      	uxtb	r1, r1
 80056b6:	1882      	adds	r2, r0, r2
 80056b8:	4290      	cmp	r0, r2
 80056ba:	d101      	bne.n	80056c0 <memchr+0xc>
 80056bc:	2000      	movs	r0, #0
 80056be:	4770      	bx	lr
 80056c0:	7803      	ldrb	r3, [r0, #0]
 80056c2:	428b      	cmp	r3, r1
 80056c4:	d0fb      	beq.n	80056be <memchr+0xa>
 80056c6:	3001      	adds	r0, #1
 80056c8:	e7f6      	b.n	80056b8 <memchr+0x4>
	...

080056cc <_read_r>:
 80056cc:	b570      	push	{r4, r5, r6, lr}
 80056ce:	0004      	movs	r4, r0
 80056d0:	0008      	movs	r0, r1
 80056d2:	0011      	movs	r1, r2
 80056d4:	001a      	movs	r2, r3
 80056d6:	2300      	movs	r3, #0
 80056d8:	4d05      	ldr	r5, [pc, #20]	; (80056f0 <_read_r+0x24>)
 80056da:	602b      	str	r3, [r5, #0]
 80056dc:	f7fd f946 	bl	800296c <_read>
 80056e0:	1c43      	adds	r3, r0, #1
 80056e2:	d103      	bne.n	80056ec <_read_r+0x20>
 80056e4:	682b      	ldr	r3, [r5, #0]
 80056e6:	2b00      	cmp	r3, #0
 80056e8:	d000      	beq.n	80056ec <_read_r+0x20>
 80056ea:	6023      	str	r3, [r4, #0]
 80056ec:	bd70      	pop	{r4, r5, r6, pc}
 80056ee:	46c0      	nop			; (mov r8, r8)
 80056f0:	200001c0 	.word	0x200001c0

080056f4 <_init>:
 80056f4:	b5f8      	push	{r3, r4, r5, r6, r7, lr}
 80056f6:	46c0      	nop			; (mov r8, r8)
 80056f8:	bcf8      	pop	{r3, r4, r5, r6, r7}
 80056fa:	bc08      	pop	{r3}
 80056fc:	469e      	mov	lr, r3
 80056fe:	4770      	bx	lr

08005700 <_fini>:
 8005700:	b5f8      	push	{r3, r4, r5, r6, r7, lr}
 8005702:	46c0      	nop			; (mov r8, r8)
 8005704:	bcf8      	pop	{r3, r4, r5, r6, r7}
 8005706:	bc08      	pop	{r3}
 8005708:	469e      	mov	lr, r3
 800570a:	4770      	bx	lr
